(lp0
(lp1
(dp2
(I0
I2
I0
I1
I0
tp3
(dp4
S'RRRG'
p5
I0
sS'GRRR'
p6
I0
sS'RRRR'
p7
I0
sS'RGRR'
p8
I0
sS'RRGR'
p9
I0
ss(I2
I0
I1
I1
I1
tp10
(dp11
g5
I0
sg6
I0
sg7
I0
sg8
I0
sg9
I0
ss(I1
I2
I1
I2
I0
tp12
(dp13
g5
I0
sg6
I0
sg7
I0
sg8
I0
sg9
I0
ss(I2
I0
I0
I2
I1
tp14
(dp15
g5
F6.721429583294149
sg6
F11.000111940749836
sg7
F-35.59843605513374
sg8
F-7.694724798003009
sg9
I0
ss(I1
I0
I0
I2
I0
tp16
(dp17
g5
I0
sg6
I0
sg7
I0
sg8
I0
sg9
I0
ss(I2
I0
I0
I1
I1
tp18
(dp19
g5
F3.2850142195648626
sg6
F8.15921561092367
sg7
F-34.21616031022782
sg8
F-5.069397609968725
sg9
I0
ss(I0
I0
I0
I2
I1
tp20
(dp21
g5
F9.70064100386637
sg6
F-1.4390815514532482
sg7
F-30.135345499383885
sg8
F-1.2268882620960888
sg9
I0
ss(I2
I1
I1
I2
I0
tp22
(dp23
g5
I0
sg6
I0
sg7
I0
sg8
I0
sg9
I0
ss(I1
I0
I1
I1
I0
tp24
(dp25
g5
I0
sg6
I0
sg7
I0
sg8
I0
sg9
I0
ss(I2
I0
I1
I2
I1
tp26
(dp27
g5
I0
sg6
I0
sg7
I0
sg8
I0
sg9
I0
ss(I2
I2
I2
I1
I0
tp28
(dp29
g5
I0
sg6
I0
sg7
I0
sg8
I0
sg9
I0
ss(I2
I1
I0
I1
I0
tp30
(dp31
g5
I0
sg6
I0
sg7
I0
sg8
I0
sg9
I0
ss(I2
I2
I1
I0
I0
tp32
(dp33
g5
I0
sg6
I0
sg7
I0
sg8
I0
sg9
I0
ss(I0
I1
I2
I2
I0
tp34
(dp35
g5
I0
sg6
I0
sg7
I0
sg8
I0
sg9
I0
ss(I2
I2
I0
I0
I1
tp36
(dp37
g5
F-2.370287703735535
sg6
F5.188529063111316
sg7
F-15.6576202060206
sg8
F2.734375
sg9
I0
ss(I2
I2
I0
I2
I0
tp38
(dp39
g5
I0
sg6
I0
sg7
I0
sg8
I0
sg9
I0
ss(I1
I0
I0
I0
I1
tp40
(dp41
g5
F0.24608422934487495
sg6
F4.840411908834118
sg7
F-31.910753139718157
sg8
F-0.765663307090678
sg9
I0
ss(I0
I2
I1
I1
I1
tp42
(dp43
g5
I0
sg6
I0
sg7
I0
sg8
I0
sg9
I0
ss(I2
I0
I2
I0
I1
tp44
(dp45
g5
I0
sg6
I0
sg7
I0
sg8
I0
sg9
I0
ss(I1
I1
I0
I1
I0
tp46
(dp47
g5
I0
sg6
I0
sg7
I0
sg8
I0
sg9
I0
ss(I0
I2
I2
I0
I1
tp48
(dp49
g5
I0
sg6
I0
sg7
I0
sg8
I0
sg9
I0
ss(I2
I2
I1
I2
I1
tp50
(dp51
g5
I0
sg6
I0
sg7
I0
sg8
I0
sg9
I0
ss(I1
I0
I1
I2
I1
tp52
(dp53
g5
I0
sg6
I0
sg7
I0
sg8
I0
sg9
I0
ss(I0
I2
I0
I1
I1
tp54
(dp55
g5
F3.376468294766134
sg6
F-4.689512800068691
sg7
F-35.84389928321558
sg8
F6.679827547124081
sg9
I0
ss(I1
I1
I1
I2
I0
tp56
(dp57
g5
I0
sg6
I0
sg7
I0
sg8
I0
sg9
I0
ss(I1
I0
I0
I1
I1
tp58
(dp59
g5
F2.5369605022521347
sg6
F2.2518609647322707
sg7
F-32.77732868198737
sg8
F-2.727507342371488
sg9
I0
ss(I0
I2
I1
I2
I1
tp60
(dp61
g5
I0
sg6
I0
sg7
I0
sg8
I0
sg9
I0
ss(I0
I0
I2
I1
I0
tp62
(dp63
g5
I0
sg6
I0
sg7
I0
sg8
I0
sg9
I0
ss(I1
I0
I0
I2
I1
tp64
(dp65
g5
F7.800845526963238
sg6
F3.5195086433632956
sg7
F-35.2281633540011
sg8
F-2.9877358371922726
sg9
I0
ss(I2
I0
I1
I1
I0
tp66
(dp67
g5
I0
sg6
I0
sg7
I0
sg8
I0
sg9
I0
ss(I2
I2
I0
I0
I0
tp68
(dp69
g5
I0
sg6
I0
sg7
I0
sg8
I0
sg9
I0
ss(I0
I0
I1
I0
I0
tp70
(dp71
g5
I0
sg6
I0
sg7
I0
sg8
I0
sg9
I0
ss(I1
I0
I1
I1
I1
tp72
(dp73
g5
I0
sg6
I0
sg7
I0
sg8
I0
sg9
I0
ss(I2
I2
I2
I1
I1
tp74
(dp75
g5
I0
sg6
I0
sg7
I0
sg8
I0
sg9
I0
ss(I2
I2
I1
I0
I1
tp76
(dp77
g5
I0
sg6
I0
sg7
I0
sg8
I0
sg9
I0
ss(I1
I2
I2
I2
I1
tp78
(dp79
g5
I0
sg6
I0
sg7
I0
sg8
I0
sg9
I0
ss(I0
I1
I1
I0
I1
tp80
(dp81
g5
I0
sg6
I0
sg7
I0
sg8
I0
sg9
I0
ss(I1
I2
I2
I2
I0
tp82
(dp83
g5
I0
sg6
I0
sg7
I0
sg8
I0
sg9
I0
ss(I0
I1
I2
I1
I1
tp84
(dp85
g5
I0
sg6
I0
sg7
I0
sg8
I0
sg9
I0
ss(I1
I1
I1
I1
I1
tp86
(dp87
g5
I0
sg6
I0
sg7
I0
sg8
I0
sg9
I0
ss(I0
I1
I0
I0
I1
tp88
(dp89
g5
F-0.13149197941251134
sg6
F-0.8122383123996207
sg7
F-30.00235257550591
sg8
F4.2599016768185995
sg9
I0
ss(I1
I0
I0
I0
I0
tp90
(dp91
g5
I0
sg6
I0
sg7
I0
sg8
I0
sg9
I0
ss(I1
I1
I0
I2
I1
tp92
(dp93
g5
F7.176118761445328
sg6
F2.3281517992141594
sg7
F-36.864096668117355
sg8
F0.2582828003645742
sg9
I0
ss(I0
I0
I1
I2
I0
tp94
(dp95
g5
I0
sg6
I0
sg7
I0
sg8
I0
sg9
I0
ss(I1
I1
I0
I1
I1
tp96
(dp97
g5
F3.4137555134866293
sg6
F0.17161272884882245
sg7
F-35.56939203068559
sg8
F0.3539863272936343
sg9
I0
ss(I1
I2
I0
I0
I0
tp98
(dp99
g5
I0
sg6
I0
sg7
I0
sg8
I0
sg9
I0
ss(I0
I0
I1
I1
I1
tp100
(dp101
g5
I0
sg6
I0
sg7
I0
sg8
I0
sg9
I0
ss(I0
I2
I2
I0
I0
tp102
(dp103
g5
I0
sg6
I0
sg7
I0
sg8
I0
sg9
I0
ss(I1
I0
I1
I2
I0
tp104
(dp105
g5
I0
sg6
I0
sg7
I0
sg8
I0
sg9
I0
ss(I1
I1
I1
I2
I1
tp106
(dp107
g5
I0
sg6
I0
sg7
I0
sg8
I0
sg9
I0
ss(I2
I1
I0
I0
I0
tp108
(dp109
g5
I0
sg6
I0
sg7
I0
sg8
I0
sg9
I0
ss(I1
I0
I0
I1
I0
tp110
(dp111
g5
I0
sg6
I0
sg7
I0
sg8
I0
sg9
I0
ss(I0
I0
I2
I1
I1
tp112
(dp113
g5
I0
sg6
I0
sg7
I0
sg8
I0
sg9
I0
ss(I1
I1
I2
I2
I0
tp114
(dp115
g5
I0
sg6
I0
sg7
I0
sg8
I0
sg9
I0
ss(I2
I2
I2
I2
I0
tp116
(dp117
g5
I0
sg6
I0
sg7
I0
sg8
I0
sg9
I0
ss(I1
I2
I0
I2
I1
tp118
(dp119
g5
F5.252203556984688
sg6
F-0.9917803629998634
sg7
F-37.93708691457438
sg8
F4.287758652085504
sg9
I0
ss(I1
I2
I1
I0
I1
tp120
(dp121
g5
I0
sg6
I0
sg7
I0
sg8
I0
sg9
I0
ss(I0
I1
I1
I0
I0
tp122
(dp123
g5
I0
sg6
I0
sg7
I0
sg8
I0
sg9
I0
ss(I1
I2
I2
I1
I1
tp124
(dp125
g5
I0
sg6
I0
sg7
I0
sg8
I0
sg9
I0
ss(I1
I2
I0
I0
I1
tp126
(dp127
g5
F-3.794785787799106
sg6
F0.6248880769937141
sg7
F-32.29309632565507
sg8
F8.530485415931764
sg9
I0
ss(I0
I0
I1
I1
I0
tp128
(dp129
g5
I0
sg6
I0
sg7
I0
sg8
I0
sg9
I0
ss(I0
I1
I2
I1
I0
tp130
(dp131
g5
I0
sg6
I0
sg7
I0
sg8
I0
sg9
I0
ss(I2
I0
I1
I0
I0
tp132
(dp133
g5
I0
sg6
I0
sg7
I0
sg8
I0
sg9
I0
ss(I1
I1
I1
I1
I0
tp134
(dp135
g5
I0
sg6
I0
sg7
I0
sg8
I0
sg9
I0
ss(I2
I1
I2
I2
I0
tp136
(dp137
g5
I0
sg6
I0
sg7
I0
sg8
I0
sg9
I0
ss(I0
I0
I0
I1
I0
tp138
(dp139
g5
I0
sg6
I0
sg7
I0
sg8
I0
sg9
I0
ss(I2
I1
I2
I1
I1
tp140
(dp141
g5
I0
sg6
I0
sg7
I0
sg8
I0
sg9
I0
ss(I2
I0
I2
I1
I0
tp142
(dp143
g5
I0
sg6
I0
sg7
I0
sg8
I0
sg9
I0
ss(I1
I1
I0
I2
I0
tp144
(dp145
g5
I0
sg6
I0
sg7
I0
sg8
I0
sg9
I0
ss(I2
I1
I0
I2
I0
tp146
(dp147
g5
I0
sg6
I0
sg7
I0
sg8
I0
sg9
I0
ss(I2
I1
I1
I0
I1
tp148
(dp149
g5
I0
sg6
I0
sg7
I0
sg8
I0
sg9
I0
ss(I1
I1
I2
I0
I0
tp150
(dp151
g5
I0
sg6
I0
sg7
I0
sg8
I0
sg9
I0
ss(I0
I0
I2
I2
I0
tp152
(dp153
g5
I0
sg6
I0
sg7
I0
sg8
I0
sg9
I0
ss(I0
I2
I0
I0
I0
tp154
(dp155
g5
I0
sg6
I0
sg7
I0
sg8
I0
sg9
I0
ss(I1
I1
I2
I2
I1
tp156
(dp157
g5
I0
sg6
I0
sg7
I0
sg8
I0
sg9
I0
ss(I0
I1
I2
I2
I1
tp158
(dp159
g5
I0
sg6
I0
sg7
I0
sg8
I0
sg9
I0
ss(I1
I2
I0
I2
I0
tp160
(dp161
g5
I0
sg6
I0
sg7
I0
sg8
I0
sg9
I0
ss(I1
I2
I1
I0
I0
tp162
(dp163
g5
I0
sg6
I0
sg7
I0
sg8
I0
sg9
I0
ss(I2
I0
I0
I0
I1
tp164
(dp165
g5
F0.1660044082750347
sg6
F8.90517979850814
sg7
F-31.691911878133666
sg8
F-0.8538845120094471
sg9
I0
ss(I2
I1
I0
I2
I1
tp166
(dp167
g5
F3.204159370958473
sg6
F7.50147895732162
sg7
F-38.228320552255006
sg8
F-2.2724777723523824
sg9
I0
ss(I1
I2
I2
I1
I0
tp168
(dp169
g5
I0
sg6
I0
sg7
I0
sg8
I0
sg9
I0
ss(I0
I2
I2
I1
I0
tp170
(dp171
g5
I0
sg6
I0
sg7
I0
sg8
I0
sg9
I0
ss(I2
I0
I1
I0
I1
tp172
(dp173
g5
I0
sg6
I0
sg7
I0
sg8
I0
sg9
I0
ss(I2
I1
I2
I1
I0
tp174
(dp175
g5
I0
sg6
I0
sg7
I0
sg8
I0
sg9
I0
ss(I1
I0
I2
I2
I0
tp176
(dp177
g5
I0
sg6
I0
sg7
I0
sg8
I0
sg9
I0
ss(I2
I0
I2
I1
I1
tp178
(dp179
g5
I0
sg6
I0
sg7
I0
sg8
I0
sg9
I0
ss(I2
I2
I1
I2
I0
tp180
(dp181
g5
I0
sg6
I0
sg7
I0
sg8
I0
sg9
I0
ss(I2
I1
I1
I0
I0
tp182
(dp183
g5
I0
sg6
I0
sg7
I0
sg8
I0
sg9
I0
ss(I2
I2
I0
I1
I0
tp184
(dp185
g5
I0
sg6
I0
sg7
I0
sg8
I0
sg9
I0
ss(I1
I1
I2
I0
I1
tp186
(dp187
g5
I0
sg6
I0
sg7
I0
sg8
I0
sg9
I0
ss(I2
I1
I0
I0
I1
tp188
(dp189
g5
F-4.259215612656998
sg6
F7.648539506761683
sg7
F-31.447980487346026
sg8
F0.5837671738717709
sg9
I0
ss(I0
I1
I2
I0
I1
tp190
(dp191
g5
I0
sg6
I0
sg7
I0
sg8
I0
sg9
I0
ss(I0
I1
I1
I1
I0
tp192
(dp193
g5
I0
sg6
I0
sg7
I0
sg8
I0
sg9
I0
ss(I0
I1
I0
I0
I0
tp194
(dp195
g5
I0
sg6
I0
sg7
I0
sg8
I0
sg9
I0
ss(I0
I2
I0
I0
I1
tp196
(dp197
g5
F-3.4289891720264616
sg6
F0.12510367013190882
sg7
F-33.629129229040686
sg8
F8.979166066338514
sg9
I0
ss(I0
I1
I2
I0
I0
tp198
(dp199
g5
I0
sg6
I0
sg7
I0
sg8
I0
sg9
I0
ss(I1
I1
I1
I0
I0
tp200
(dp201
g5
I0
sg6
I0
sg7
I0
sg8
I0
sg9
I0
ss(I1
I0
I2
I1
I1
tp202
(dp203
g5
I0
sg6
I0
sg7
I0
sg8
I0
sg9
I0
ss(I2
I0
I0
I0
I0
tp204
(dp205
g5
I0
sg6
I0
sg7
I0
sg8
I0
sg9
I0
ss(I1
I1
I2
I1
I0
tp206
(dp207
g5
I0
sg6
I0
sg7
I0
sg8
I0
sg9
I0
ss(I1
I0
I2
I0
I0
tp208
(dp209
g5
I0
sg6
I0
sg7
I0
sg8
I0
sg9
I0
ss(I1
I0
I1
I0
I1
tp210
(dp211
g5
I0
sg6
I0
sg7
I0
sg8
I0
sg9
I0
ss(I2
I1
I2
I2
I1
tp212
(dp213
g5
I0
sg6
I0
sg7
I0
sg8
I0
sg9
I0
ss(I2
I2
I0
I2
I1
tp214
(dp215
g5
F0.0
sg6
F0.10689575546656395
sg7
F-26.713883309774523
sg8
F2.2743528500424266
sg9
I0
ss(I0
I2
I2
I1
I1
tp216
(dp217
g5
I0
sg6
I0
sg7
I0
sg8
I0
sg9
I0
ss(I0
I2
I0
I2
I0
tp218
(dp219
g5
I0
sg6
I0
sg7
I0
sg8
I0
sg9
I0
ss(I2
I2
I1
I1
I1
tp220
(dp221
g5
I0
sg6
I0
sg7
I0
sg8
I0
sg9
I0
ss(I1
I0
I2
I2
I1
tp222
(dp223
g5
I0
sg6
I0
sg7
I0
sg8
I0
sg9
I0
ss(I2
I1
I2
I0
I0
tp224
(dp225
g5
I0
sg6
I0
sg7
I0
sg8
I0
sg9
I0
ss(I0
I2
I2
I2
I1
tp226
(dp227
g5
I0
sg6
I0
sg7
I0
sg8
I0
sg9
I0
ss(I2
I2
I0
I1
I1
tp228
(dp229
g5
F-3.734625702229801
sg6
F2.806646642757214
sg7
F-39.55724773156153
sg8
F3.198662937656325
sg9
I0
ss(I2
I0
I2
I2
I1
tp230
(dp231
g5
I0
sg6
I0
sg7
I0
sg8
I0
sg9
I0
ss(I0
I1
I0
I1
I1
tp232
(dp233
g5
F2.1180817087101484
sg6
F-3.3536980554638793
sg7
F-32.252262817750136
sg8
F3.1519458031412153
sg9
I0
ss(I1
I2
I1
I1
I0
tp234
(dp235
g5
I0
sg6
I0
sg7
I0
sg8
I0
sg9
I0
ss(I0
I1
I0
I2
I0
tp236
(dp237
g5
I0
sg6
I0
sg7
I0
sg8
I0
sg9
I0
ss(I0
I0
I2
I2
I1
tp238
(dp239
g5
I0
sg6
I0
sg7
I0
sg8
I0
sg9
I0
ss(I0
I1
I1
I2
I1
tp240
(dp241
g5
I0
sg6
I0
sg7
I0
sg8
I0
sg9
I0
ss(I1
I1
I0
I0
I1
tp242
(dp243
g5
F-2.8155210318838235
sg6
F2.399434022210553
sg7
F-32.597912651335044
sg8
F5.36471108553067
sg9
I0
ss(I0
I1
I1
I1
I1
tp244
(dp245
g5
I0
sg6
I0
sg7
I0
sg8
I0
sg9
I0
ss(I1
I2
I2
I0
I0
tp246
(dp247
g5
I0
sg6
I0
sg7
I0
sg8
I0
sg9
I0
ss(I0
I0
I2
I0
I0
tp248
(dp249
g5
I0
sg6
I0
sg7
I0
sg8
I0
sg9
I0
ss(I0
I2
I2
I2
I0
tp250
(dp251
g5
I0
sg6
I0
sg7
I0
sg8
I0
sg9
I0
ss(I0
I1
I0
I2
I1
tp252
(dp253
g5
F7.982047528992428
sg6
F-3.252923324280121
sg7
F-32.90758834853587
sg8
F1.9677384949393448
sg9
I0
ss(I1
I1
I1
I0
I1
tp254
(dp255
g5
I0
sg6
I0
sg7
I0
sg8
I0
sg9
I0
ss(I0
I0
I2
I0
I1
tp256
(dp257
g5
I0
sg6
I0
sg7
I0
sg8
I0
sg9
I0
ss(I1
I0
I2
I1
I0
tp258
(dp259
g5
I0
sg6
I0
sg7
I0
sg8
I0
sg9
I0
ss(I2
I0
I0
I2
I0
tp260
(dp261
g5
I0
sg6
I0
sg7
I0
sg8
I0
sg9
I0
ss(I1
I1
I2
I1
I1
tp262
(dp263
g5
I0
sg6
I0
sg7
I0
sg8
I0
sg9
I0
ss(I2
I1
I1
I1
I0
tp264
(dp265
g5
I0
sg6
I0
sg7
I0
sg8
I0
sg9
I0
ss(I1
I0
I1
I0
I0
tp266
(dp267
g5
I0
sg6
I0
sg7
I0
sg8
I0
sg9
I0
ss(I2
I2
I2
I0
I0
tp268
(dp269
g5
I0
sg6
I0
sg7
I0
sg8
I0
sg9
I0
ss(I0
I2
I0
I2
I1
tp270
(dp271
g5
F6.592768407131546
sg6
F-7.417420001341615
sg7
F-32.92110795389358
sg8
F6.683349587333203
sg9
I0
ss(I0
I0
I0
I0
I1
tp272
(dp273
g5
F1.2845132505961816
sg6
F0.9783383259523786
sg7
F-28.08357565652267
sg8
F2.44885336783946
sg9
I0
ss(I2
I2
I1
I1
I0
tp274
(dp275
g5
I0
sg6
I0
sg7
I0
sg8
I0
sg9
I0
ss(I0
I0
I1
I2
I1
tp276
(dp277
g5
I0
sg6
I0
sg7
I0
sg8
I0
sg9
I0
ss(I1
I2
I0
I1
I1
tp278
(dp279
g5
F-1.9348481621237128
sg6
F-0.1372869833639021
sg7
F-37.275032051578876
sg8
F4.472469565752154
sg9
I0
ss(I0
I0
I0
I2
I0
tp280
(dp281
g5
I0
sg6
I0
sg7
I0
sg8
I0
sg9
I0
ss(I2
I0
I2
I2
I0
tp282
(dp283
g5
I0
sg6
I0
sg7
I0
sg8
I0
sg9
I0
ss(I0
I1
I0
I1
I0
tp284
(dp285
g5
I0
sg6
I0
sg7
I0
sg8
I0
sg9
I0
ss(I1
I2
I1
I2
I1
tp286
(dp287
g5
I0
sg6
I0
sg7
I0
sg8
I0
sg9
I0
ss(I1
I2
I1
I1
I1
tp288
(dp289
g5
I0
sg6
I0
sg7
I0
sg8
I0
sg9
I0
ss(I0
I2
I1
I0
I0
tp290
(dp291
g5
I0
sg6
I0
sg7
I0
sg8
I0
sg9
I0
ss(I0
I1
I1
I2
I0
tp292
(dp293
g5
I0
sg6
I0
sg7
I0
sg8
I0
sg9
I0
ss(I2
I0
I0
I1
I0
tp294
(dp295
g5
I0
sg6
I0
sg7
I0
sg8
I0
sg9
I0
ss(I1
I1
I0
I0
I0
tp296
(dp297
g5
I0
sg6
I0
sg7
I0
sg8
I0
sg9
I0
ss(I1
I2
I2
I0
I1
tp298
(dp299
g5
I0
sg6
I0
sg7
I0
sg8
I0
sg9
I0
ss(I2
I1
I1
I2
I1
tp300
(dp301
g5
I0
sg6
I0
sg7
I0
sg8
I0
sg9
I0
ss(I2
I0
I1
I2
I0
tp302
(dp303
g5
I0
sg6
I0
sg7
I0
sg8
I0
sg9
I0
ss(I0
I2
I1
I1
I0
tp304
(dp305
g5
I0
sg6
I0
sg7
I0
sg8
I0
sg9
I0
ss(I2
I1
I0
I1
I1
tp306
(dp307
g5
F-1.112594181144936
sg6
F4.1544890517041075
sg7
F-37.04759636627815
sg8
F-0.46104899026597357
sg9
I0
ss(I0
I0
I0
I0
I0
tp308
(dp309
g5
I0
sg6
I0
sg7
I0
sg8
I0
sg9
I0
ss(I2
I2
I2
I0
I1
tp310
(dp311
g5
I0
sg6
I0
sg7
I0
sg8
I0
sg9
I0
ss(I2
I1
I2
I0
I1
tp312
(dp313
g5
I0
sg6
I0
sg7
I0
sg8
I0
sg9
I0
ss(I0
I2
I1
I2
I0
tp314
(dp315
g5
I0
sg6
I0
sg7
I0
sg8
I0
sg9
I0
ss(I2
I1
I1
I1
I1
tp316
(dp317
g5
I0
sg6
I0
sg7
I0
sg8
I0
sg9
I0
ss(I0
I0
I1
I0
I1
tp318
(dp319
g5
I0
sg6
I0
sg7
I0
sg8
I0
sg9
I0
ss(I0
I2
I1
I0
I1
tp320
(dp321
g5
I0
sg6
I0
sg7
I0
sg8
I0
sg9
I0
ss(I2
I0
I2
I0
I0
tp322
(dp323
g5
I0
sg6
I0
sg7
I0
sg8
I0
sg9
I0
ss(I0
I0
I0
I1
I1
tp324
(dp325
g5
F4.571379228278514
sg6
F-1.8421748977564893
sg7
F-29.99287220191499
sg8
F-1.4239023169820406
sg9
I0
ss(I1
I2
I0
I1
I0
tp326
(dp327
g5
I0
sg6
I0
sg7
I0
sg8
I0
sg9
I0
ss(I2
I2
I2
I2
I1
tp328
(dp329
g5
I0
sg6
I0
sg7
I0
sg8
I0
sg9
I0
ss(I1
I0
I2
I0
I1
tp330
(dp331
g5
I0
sg6
I0
sg7
I0
sg8
I0
sg9
I0
ssa(dp332
(I0
I2
I0
I1
I0
tp333
(dp334
g5
I0
sg6
I0
sg7
I0
sg8
I0
sg9
I0
ss(I2
I0
I1
I1
I1
tp335
(dp336
g5
F-0.7987243807841382
sg6
F6.187192526876036
sg7
F-36.877084646175554
sg8
I0
sg9
F-1.8109721379559989
ss(I1
I2
I1
I2
I0
tp337
(dp338
g5
I0
sg6
I0
sg7
I0
sg8
I0
sg9
I0
ss(I2
I0
I0
I2
I1
tp339
(dp340
g5
F4.257269864933848
sg6
F4.868200526225931
sg7
F-37.84006710998519
sg8
I0
sg9
F-7.232053125118274
ss(I1
I0
I0
I2
I0
tp341
(dp342
g5
I0
sg6
I0
sg7
I0
sg8
I0
sg9
I0
ss(I2
I0
I0
I1
I1
tp343
(dp344
g5
F0.9079160006020359
sg6
F6.110553407273434
sg7
F-35.54054654826038
sg8
I0
sg9
F-5.674886544242482
ss(I0
I0
I0
I2
I1
tp345
(dp346
g5
F8.105257487677111
sg6
F-3.5720373968801935
sg7
F-33.79199198476299
sg8
I0
sg9
F-3.5969272633720064
ss(I2
I1
I1
I2
I0
tp347
(dp348
g5
I0
sg6
I0
sg7
I0
sg8
I0
sg9
I0
ss(I1
I0
I1
I1
I0
tp349
(dp350
g5
I0
sg6
I0
sg7
I0
sg8
I0
sg9
I0
ss(I2
I0
I1
I2
I1
tp351
(dp352
g5
F2.0036229619850388
sg6
F3.201414054412667
sg7
F-39.00017079852638
sg8
I0
sg9
F-3.8819492159094584
ss(I2
I2
I2
I1
I0
tp353
(dp354
g5
I0
sg6
I0
sg7
I0
sg8
I0
sg9
I0
ss(I2
I1
I0
I1
I0
tp355
(dp356
g5
I0
sg6
I0
sg7
I0
sg8
I0
sg9
I0
ss(I2
I2
I1
I0
I0
tp357
(dp358
g5
I0
sg6
I0
sg7
I0
sg8
I0
sg9
I0
ss(I0
I1
I2
I2
I0
tp359
(dp360
g5
I0
sg6
I0
sg7
I0
sg8
I0
sg9
I0
ss(I2
I2
I0
I0
I1
tp361
(dp362
g5
I0
sg6
I0
sg7
I0
sg8
I0
sg9
I0
ss(I2
I2
I0
I2
I0
tp363
(dp364
g5
I0
sg6
I0
sg7
I0
sg8
I0
sg9
I0
ss(I1
I0
I0
I0
I1
tp365
(dp366
g5
F-1.4757652344859322
sg6
F4.617088870678934
sg7
F-31.862865848511376
sg8
I0
sg9
F-0.6081397743458382
ss(I0
I2
I1
I1
I1
tp367
(dp368
g5
I0
sg6
I0
sg7
I0
sg8
I0
sg9
I0
ss(I2
I0
I2
I0
I1
tp369
(dp370
g5
F-7.149427064178677
sg6
F6.001845229822697
sg7
F-36.246520961918264
sg8
I0
sg9
F6.1588598209722
ss(I1
I1
I0
I1
I0
tp371
(dp372
g5
I0
sg6
I0
sg7
I0
sg8
I0
sg9
I0
ss(I0
I2
I2
I0
I1
tp373
(dp374
g5
I0
sg6
I0
sg7
I0
sg8
I0
sg9
I0
ss(I2
I2
I1
I2
I1
tp375
(dp376
g5
I0
sg6
I0
sg7
I0
sg8
I0
sg9
I0
ss(I1
I0
I1
I2
I1
tp377
(dp378
g5
F5.777613874789674
sg6
F0.7067678312425967
sg7
F-37.77153751508691
sg8
I0
sg9
F-0.8609274294639434
ss(I0
I2
I0
I1
I1
tp379
(dp380
g5
I0
sg6
I0
sg7
I0
sg8
I0
sg9
I0
ss(I1
I1
I1
I2
I0
tp381
(dp382
g5
I0
sg6
I0
sg7
I0
sg8
I0
sg9
I0
ss(I1
I0
I0
I1
I1
tp383
(dp384
g5
F5.566193617642042
sg6
F2.843682151211987
sg7
F-32.00822744414235
sg8
I0
sg9
F-2.721825004954038
ss(I0
I2
I1
I2
I1
tp385
(dp386
g5
I0
sg6
I0
sg7
I0
sg8
I0
sg9
I0
ss(I0
I0
I2
I1
I0
tp387
(dp388
g5
I0
sg6
I0
sg7
I0
sg8
I0
sg9
I0
ss(I1
I0
I0
I2
I1
tp389
(dp390
g5
F7.301895533772585
sg6
F1.2443572934299938
sg7
F-35.57107476507744
sg8
I0
sg9
F-5.962232945362466
ss(I2
I0
I1
I1
I0
tp391
(dp392
g5
I0
sg6
I0
sg7
I0
sg8
I0
sg9
I0
ss(I2
I2
I0
I0
I0
tp393
(dp394
g5
I0
sg6
I0
sg7
I0
sg8
I0
sg9
I0
ss(I0
I0
I1
I0
I0
tp395
(dp396
g5
I0
sg6
I0
sg7
I0
sg8
I0
sg9
I0
ss(I1
I0
I1
I1
I1
tp397
(dp398
g5
F0.4529940710345399
sg6
F1.021068313603094
sg7
F-33.85938842254181
sg8
I0
sg9
F1.8466102632796288
ss(I2
I2
I2
I1
I1
tp399
(dp400
g5
I0
sg6
I0
sg7
I0
sg8
I0
sg9
I0
ss(I2
I2
I1
I0
I1
tp401
(dp402
g5
I0
sg6
I0
sg7
I0
sg8
I0
sg9
I0
ss(I1
I2
I2
I2
I1
tp403
(dp404
g5
I0
sg6
I0
sg7
I0
sg8
I0
sg9
I0
ss(I0
I1
I1
I0
I1
tp405
(dp406
g5
I0
sg6
I0
sg7
I0
sg8
I0
sg9
I0
ss(I1
I2
I2
I2
I0
tp407
(dp408
g5
I0
sg6
I0
sg7
I0
sg8
I0
sg9
I0
ss(I0
I1
I2
I1
I1
tp409
(dp410
g5
I0
sg6
I0
sg7
I0
sg8
I0
sg9
I0
ss(I1
I1
I1
I1
I1
tp411
(dp412
g5
I0
sg6
I0
sg7
I0
sg8
I0
sg9
I0
ss(I0
I1
I0
I0
I1
tp413
(dp414
g5
I0
sg6
I0
sg7
I0
sg8
I0
sg9
I0
ss(I1
I0
I0
I0
I0
tp415
(dp416
g5
I0
sg6
I0
sg7
I0
sg8
I0
sg9
I0
ss(I1
I1
I0
I2
I1
tp417
(dp418
g5
I0
sg6
I0
sg7
I0
sg8
I0
sg9
I0
ss(I0
I0
I1
I2
I0
tp419
(dp420
g5
I0
sg6
I0
sg7
I0
sg8
I0
sg9
I0
ss(I1
I1
I0
I1
I1
tp421
(dp422
g5
I0
sg6
I0
sg7
I0
sg8
I0
sg9
I0
ss(I1
I2
I0
I0
I0
tp423
(dp424
g5
I0
sg6
I0
sg7
I0
sg8
I0
sg9
I0
ss(I0
I0
I1
I1
I1
tp425
(dp426
g5
F2.0332240372147368
sg6
F-3.952324222251242
sg7
F-33.99207925986856
sg8
I0
sg9
F3.1868944745424885
ss(I0
I2
I2
I0
I0
tp427
(dp428
g5
I0
sg6
I0
sg7
I0
sg8
I0
sg9
I0
ss(I1
I0
I1
I2
I0
tp429
(dp430
g5
I0
sg6
I0
sg7
I0
sg8
I0
sg9
I0
ss(I1
I1
I1
I2
I1
tp431
(dp432
g5
I0
sg6
I0
sg7
I0
sg8
I0
sg9
I0
ss(I2
I1
I0
I0
I0
tp433
(dp434
g5
I0
sg6
I0
sg7
I0
sg8
I0
sg9
I0
ss(I1
I0
I0
I1
I0
tp435
(dp436
g5
I0
sg6
I0
sg7
I0
sg8
I0
sg9
I0
ss(I0
I0
I2
I1
I1
tp437
(dp438
g5
F0.025281390063075632
sg6
F-5.999355906774815
sg7
F-35.650628725252105
sg8
I0
sg9
F6.150071187576975
ss(I1
I1
I2
I2
I0
tp439
(dp440
g5
I0
sg6
I0
sg7
I0
sg8
I0
sg9
I0
ss(I2
I2
I2
I2
I0
tp441
(dp442
g5
I0
sg6
I0
sg7
I0
sg8
I0
sg9
I0
ss(I1
I2
I0
I2
I1
tp443
(dp444
g5
I0
sg6
I0
sg7
I0
sg8
I0
sg9
I0
ss(I1
I2
I1
I0
I1
tp445
(dp446
g5
I0
sg6
I0
sg7
I0
sg8
I0
sg9
I0
ss(I0
I1
I1
I0
I0
tp447
(dp448
g5
I0
sg6
I0
sg7
I0
sg8
I0
sg9
I0
ss(I1
I2
I2
I1
I1
tp449
(dp450
g5
I0
sg6
I0
sg7
I0
sg8
I0
sg9
I0
ss(I1
I2
I0
I0
I1
tp451
(dp452
g5
I0
sg6
I0
sg7
I0
sg8
I0
sg9
I0
ss(I0
I0
I1
I1
I0
tp453
(dp454
g5
I0
sg6
I0
sg7
I0
sg8
I0
sg9
I0
ss(I0
I1
I2
I1
I0
tp455
(dp456
g5
I0
sg6
I0
sg7
I0
sg8
I0
sg9
I0
ss(I2
I0
I1
I0
I0
tp457
(dp458
g5
I0
sg6
I0
sg7
I0
sg8
I0
sg9
I0
ss(I1
I1
I1
I1
I0
tp459
(dp460
g5
I0
sg6
I0
sg7
I0
sg8
I0
sg9
I0
ss(I2
I1
I2
I2
I0
tp461
(dp462
g5
I0
sg6
I0
sg7
I0
sg8
I0
sg9
I0
ss(I0
I0
I0
I1
I0
tp463
(dp464
g5
I0
sg6
I0
sg7
I0
sg8
I0
sg9
I0
ss(I2
I1
I2
I1
I1
tp465
(dp466
g5
I0
sg6
I0
sg7
I0
sg8
I0
sg9
I0
ss(I2
I0
I2
I1
I0
tp467
(dp468
g5
I0
sg6
I0
sg7
I0
sg8
I0
sg9
I0
ss(I1
I1
I0
I2
I0
tp469
(dp470
g5
I0
sg6
I0
sg7
I0
sg8
I0
sg9
I0
ss(I2
I1
I0
I2
I0
tp471
(dp472
g5
I0
sg6
I0
sg7
I0
sg8
I0
sg9
I0
ss(I2
I1
I1
I0
I1
tp473
(dp474
g5
I0
sg6
I0
sg7
I0
sg8
I0
sg9
I0
ss(I1
I1
I2
I0
I0
tp475
(dp476
g5
I0
sg6
I0
sg7
I0
sg8
I0
sg9
I0
ss(I0
I0
I2
I2
I0
tp477
(dp478
g5
I0
sg6
I0
sg7
I0
sg8
I0
sg9
I0
ss(I0
I2
I0
I0
I0
tp479
(dp480
g5
I0
sg6
I0
sg7
I0
sg8
I0
sg9
I0
ss(I1
I1
I2
I2
I1
tp481
(dp482
g5
I0
sg6
I0
sg7
I0
sg8
I0
sg9
I0
ss(I0
I1
I2
I2
I1
tp483
(dp484
g5
I0
sg6
I0
sg7
I0
sg8
I0
sg9
I0
ss(I1
I2
I0
I2
I0
tp485
(dp486
g5
I0
sg6
I0
sg7
I0
sg8
I0
sg9
I0
ss(I1
I2
I1
I0
I0
tp487
(dp488
g5
I0
sg6
I0
sg7
I0
sg8
I0
sg9
I0
ss(I2
I0
I0
I0
I1
tp489
(dp490
g5
F-1.8591872883802831
sg6
F9.101262466609088
sg7
F-33.47541898860566
sg8
I0
sg9
F-3.556012416639625
ss(I2
I1
I0
I2
I1
tp491
(dp492
g5
I0
sg6
I0
sg7
I0
sg8
I0
sg9
I0
ss(I1
I2
I2
I1
I0
tp493
(dp494
g5
I0
sg6
I0
sg7
I0
sg8
I0
sg9
I0
ss(I0
I2
I2
I1
I0
tp495
(dp496
g5
I0
sg6
I0
sg7
I0
sg8
I0
sg9
I0
ss(I2
I0
I1
I0
I1
tp497
(dp498
g5
F-5.961239188972706
sg6
F6.2905209891993925
sg7
F-35.53232253348365
sg8
I0
sg9
F0.45656493871922077
ss(I2
I1
I2
I1
I0
tp499
(dp500
g5
I0
sg6
I0
sg7
I0
sg8
I0
sg9
I0
ss(I1
I0
I2
I2
I0
tp501
(dp502
g5
I0
sg6
I0
sg7
I0
sg8
I0
sg9
I0
ss(I2
I0
I2
I1
I1
tp503
(dp504
g5
F-3.61078324903151
sg6
F2.9736924907812483
sg7
F-39.34796669225318
sg8
I0
sg9
F3.201111346210575
ss(I2
I2
I1
I2
I0
tp505
(dp506
g5
I0
sg6
I0
sg7
I0
sg8
I0
sg9
I0
ss(I2
I1
I1
I0
I0
tp507
(dp508
g5
I0
sg6
I0
sg7
I0
sg8
I0
sg9
I0
ss(I2
I2
I0
I1
I0
tp509
(dp510
g5
I0
sg6
I0
sg7
I0
sg8
I0
sg9
I0
ss(I1
I1
I2
I0
I1
tp511
(dp512
g5
I0
sg6
I0
sg7
I0
sg8
I0
sg9
I0
ss(I2
I1
I0
I0
I1
tp513
(dp514
g5
I0
sg6
I0
sg7
I0
sg8
I0
sg9
I0
ss(I0
I1
I2
I0
I1
tp515
(dp516
g5
I0
sg6
I0
sg7
I0
sg8
I0
sg9
I0
ss(I0
I1
I1
I1
I0
tp517
(dp518
g5
I0
sg6
I0
sg7
I0
sg8
I0
sg9
I0
ss(I0
I1
I0
I0
I0
tp519
(dp520
g5
I0
sg6
I0
sg7
I0
sg8
I0
sg9
I0
ss(I0
I2
I0
I0
I1
tp521
(dp522
g5
I0
sg6
I0
sg7
I0
sg8
I0
sg9
I0
ss(I0
I1
I2
I0
I0
tp523
(dp524
g5
I0
sg6
I0
sg7
I0
sg8
I0
sg9
I0
ss(I1
I1
I1
I0
I0
tp525
(dp526
g5
I0
sg6
I0
sg7
I0
sg8
I0
sg9
I0
ss(I1
I0
I2
I1
I1
tp527
(dp528
g5
F-1.1276903049474813
sg6
F-0.22463577193067497
sg7
F-37.644558335710876
sg8
I0
sg9
F4.204863221387848
ss(I2
I0
I0
I0
I0
tp529
(dp530
g5
I0
sg6
I0
sg7
I0
sg8
I0
sg9
I0
ss(I1
I1
I2
I1
I0
tp531
(dp532
g5
I0
sg6
I0
sg7
I0
sg8
I0
sg9
I0
ss(I1
I0
I2
I0
I0
tp533
(dp534
g5
I0
sg6
I0
sg7
I0
sg8
I0
sg9
I0
ss(I1
I0
I1
I0
I1
tp535
(dp536
g5
F-2.113336462037992
sg6
F3.5192272268234683
sg7
F-32.89474694656346
sg8
I0
sg9
F3.570655205755964
ss(I2
I1
I2
I2
I1
tp537
(dp538
g5
I0
sg6
I0
sg7
I0
sg8
I0
sg9
I0
ss(I2
I2
I0
I2
I1
tp539
(dp540
g5
I0
sg6
I0
sg7
I0
sg8
I0
sg9
I0
ss(I0
I2
I2
I1
I1
tp541
(dp542
g5
I0
sg6
I0
sg7
I0
sg8
I0
sg9
I0
ss(I0
I2
I0
I2
I0
tp543
(dp544
g5
I0
sg6
I0
sg7
I0
sg8
I0
sg9
I0
ss(I2
I2
I1
I1
I1
tp545
(dp546
g5
I0
sg6
I0
sg7
I0
sg8
I0
sg9
I0
ss(I1
I0
I2
I2
I1
tp547
(dp548
g5
F2.764949270187146
sg6
F-2.9068438699564014
sg7
F-39.081995836112355
sg8
I0
sg9
F2.1855980139082343
ss(I2
I1
I2
I0
I0
tp549
(dp550
g5
I0
sg6
I0
sg7
I0
sg8
I0
sg9
I0
ss(I0
I2
I2
I2
I1
tp551
(dp552
g5
I0
sg6
I0
sg7
I0
sg8
I0
sg9
I0
ss(I2
I2
I0
I1
I1
tp553
(dp554
g5
I0
sg6
I0
sg7
I0
sg8
I0
sg9
I0
ss(I2
I0
I2
I2
I1
tp555
(dp556
g5
F0.4008582229676213
sg6
F1.4491613903913858
sg7
F-41.72690792712825
sg8
I0
sg9
F0.08942528831014561
ss(I0
I1
I0
I1
I1
tp557
(dp558
g5
I0
sg6
I0
sg7
I0
sg8
I0
sg9
I0
ss(I1
I2
I1
I1
I0
tp559
(dp560
g5
I0
sg6
I0
sg7
I0
sg8
I0
sg9
I0
ss(I0
I1
I0
I2
I0
tp561
(dp562
g5
I0
sg6
I0
sg7
I0
sg8
I0
sg9
I0
ss(I0
I0
I2
I2
I1
tp563
(dp564
g5
F4.259363126911711
sg6
F-6.402570726083527
sg7
F-37.899781935364885
sg8
I0
sg9
F4.601486561772598
ss(I0
I1
I1
I2
I1
tp565
(dp566
g5
I0
sg6
I0
sg7
I0
sg8
I0
sg9
I0
ss(I1
I1
I0
I0
I1
tp567
(dp568
g5
I0
sg6
I0
sg7
I0
sg8
I0
sg9
I0
ss(I0
I1
I1
I1
I1
tp569
(dp570
g5
I0
sg6
I0
sg7
I0
sg8
I0
sg9
I0
ss(I1
I2
I2
I0
I0
tp571
(dp572
g5
I0
sg6
I0
sg7
I0
sg8
I0
sg9
I0
ss(I0
I0
I2
I0
I0
tp573
(dp574
g5
I0
sg6
I0
sg7
I0
sg8
I0
sg9
I0
ss(I0
I2
I2
I2
I0
tp575
(dp576
g5
I0
sg6
I0
sg7
I0
sg8
I0
sg9
I0
ss(I0
I1
I0
I2
I1
tp577
(dp578
g5
I0
sg6
I0
sg7
I0
sg8
I0
sg9
I0
ss(I1
I1
I1
I0
I1
tp579
(dp580
g5
I0
sg6
I0
sg7
I0
sg8
I0
sg9
I0
ss(I0
I0
I2
I0
I1
tp581
(dp582
g5
F-3.9658283793874043
sg6
F-3.8880363288021496
sg7
F-33.999750737656456
sg8
I0
sg9
F8.569660890695928
ss(I1
I0
I2
I1
I0
tp583
(dp584
g5
I0
sg6
I0
sg7
I0
sg8
I0
sg9
I0
ss(I2
I0
I0
I2
I0
tp585
(dp586
g5
I0
sg6
I0
sg7
I0
sg8
I0
sg9
I0
ss(I1
I1
I2
I1
I1
tp587
(dp588
g5
I0
sg6
I0
sg7
I0
sg8
I0
sg9
I0
ss(I2
I1
I1
I1
I0
tp589
(dp590
g5
I0
sg6
I0
sg7
I0
sg8
I0
sg9
I0
ss(I1
I0
I1
I0
I0
tp591
(dp592
g5
I0
sg6
I0
sg7
I0
sg8
I0
sg9
I0
ss(I2
I2
I2
I0
I0
tp593
(dp594
g5
I0
sg6
I0
sg7
I0
sg8
I0
sg9
I0
ss(I0
I2
I0
I2
I1
tp595
(dp596
g5
I0
sg6
I0
sg7
I0
sg8
I0
sg9
I0
ss(I0
I0
I0
I0
I1
tp597
(dp598
g5
F0.32387107873422716
sg6
F0.7542317303164229
sg7
F-29.817121988083358
sg8
I0
sg9
F0.09306540149313157
ss(I2
I2
I1
I1
I0
tp599
(dp600
g5
I0
sg6
I0
sg7
I0
sg8
I0
sg9
I0
ss(I0
I0
I1
I2
I1
tp601
(dp602
g5
F6.269895574199389
sg6
F-5.636907376427111
sg7
F-35.46580936361294
sg8
I0
sg9
F1.7156832336712602
ss(I1
I2
I0
I1
I1
tp603
(dp604
g5
I0
sg6
I0
sg7
I0
sg8
I0
sg9
I0
ss(I0
I0
I0
I2
I0
tp605
(dp606
g5
I0
sg6
I0
sg7
I0
sg8
I0
sg9
I0
ss(I2
I0
I2
I2
I0
tp607
(dp608
g5
I0
sg6
I0
sg7
I0
sg8
I0
sg9
I0
ss(I0
I1
I0
I1
I0
tp609
(dp610
g5
I0
sg6
I0
sg7
I0
sg8
I0
sg9
I0
ss(I1
I2
I1
I2
I1
tp611
(dp612
g5
I0
sg6
I0
sg7
I0
sg8
I0
sg9
I0
ss(I1
I2
I1
I1
I1
tp613
(dp614
g5
I0
sg6
I0
sg7
I0
sg8
I0
sg9
I0
ss(I0
I2
I1
I0
I0
tp615
(dp616
g5
I0
sg6
I0
sg7
I0
sg8
I0
sg9
I0
ss(I0
I1
I1
I2
I0
tp617
(dp618
g5
I0
sg6
I0
sg7
I0
sg8
I0
sg9
I0
ss(I2
I0
I0
I1
I0
tp619
(dp620
g5
I0
sg6
I0
sg7
I0
sg8
I0
sg9
I0
ss(I1
I1
I0
I0
I0
tp621
(dp622
g5
I0
sg6
I0
sg7
I0
sg8
I0
sg9
I0
ss(I1
I2
I2
I0
I1
tp623
(dp624
g5
I0
sg6
I0
sg7
I0
sg8
I0
sg9
I0
ss(I2
I1
I1
I2
I1
tp625
(dp626
g5
I0
sg6
I0
sg7
I0
sg8
I0
sg9
I0
ss(I2
I0
I1
I2
I0
tp627
(dp628
g5
I0
sg6
I0
sg7
I0
sg8
I0
sg9
I0
ss(I0
I2
I1
I1
I0
tp629
(dp630
g5
I0
sg6
I0
sg7
I0
sg8
I0
sg9
I0
ss(I2
I1
I0
I1
I1
tp631
(dp632
g5
I0
sg6
I0
sg7
I0
sg8
I0
sg9
I0
ss(I0
I0
I0
I0
I0
tp633
(dp634
g5
I0
sg6
I0
sg7
I0
sg8
I0
sg9
I0
ss(I2
I2
I2
I0
I1
tp635
(dp636
g5
I0
sg6
I0
sg7
I0
sg8
I0
sg9
I0
ss(I2
I1
I2
I0
I1
tp637
(dp638
g5
I0
sg6
I0
sg7
I0
sg8
I0
sg9
I0
ss(I0
I2
I1
I2
I0
tp639
(dp640
g5
I0
sg6
I0
sg7
I0
sg8
I0
sg9
I0
ss(I2
I1
I1
I1
I1
tp641
(dp642
g5
I0
sg6
I0
sg7
I0
sg8
I0
sg9
I0
ss(I0
I0
I1
I0
I1
tp643
(dp644
g5
F-0.07598504232240755
sg6
F-1.6149290212748482
sg7
F-31.985025917091267
sg8
I0
sg9
F4.00608250158084
ss(I0
I2
I1
I0
I1
tp645
(dp646
g5
I0
sg6
I0
sg7
I0
sg8
I0
sg9
I0
ss(I2
I0
I2
I0
I0
tp647
(dp648
g5
I0
sg6
I0
sg7
I0
sg8
I0
sg9
I0
ss(I0
I0
I0
I1
I1
tp649
(dp650
g5
F4.947674348055401
sg6
F-1.9263488223081273
sg7
F-30.158074691235434
sg8
I0
sg9
F-1.7301896502155079
ss(I1
I2
I0
I1
I0
tp651
(dp652
g5
I0
sg6
I0
sg7
I0
sg8
I0
sg9
I0
ss(I2
I2
I2
I2
I1
tp653
(dp654
g5
I0
sg6
I0
sg7
I0
sg8
I0
sg9
I0
ss(I1
I0
I2
I0
I1
tp655
(dp656
g5
F-5.601980653350971
sg6
F0.14983450839021095
sg7
F-34.420816320760956
sg8
I0
sg9
F8.194815587858061
ssa(dp657
(I0
I2
I0
I1
I0
tp658
(dp659
g5
I0
sg6
I0
sg7
I0
sg8
I0
sg9
I0
ss(I2
I0
I1
I1
I1
tp660
(dp661
g5
I0
sg6
I0
sg7
I0
sg8
I0
sg9
I0
ss(I1
I2
I1
I2
I0
tp662
(dp663
g5
I0
sg6
I0
sg7
I0
sg8
I0
sg9
I0
ss(I2
I0
I0
I2
I1
tp664
(dp665
g5
I0
sg6
I0
sg7
I0
sg8
I0
sg9
I0
ss(I1
I0
I0
I2
I0
tp666
(dp667
g5
I0
sg6
I0
sg7
I0
sg8
I0
sg9
I0
ss(I2
I0
I0
I1
I1
tp668
(dp669
g5
I0
sg6
I0
sg7
I0
sg8
I0
sg9
I0
ss(I0
I0
I0
I2
I1
tp670
(dp671
g5
F1742.830898641053
sg6
I0
sg7
F1564.3434155465056
sg8
F1530.0806014477866
sg9
F1527.413362122532
ss(I2
I1
I1
I2
I0
tp672
(dp673
g5
I0
sg6
I0
sg7
I0
sg8
I0
sg9
I0
ss(I1
I0
I1
I1
I0
tp674
(dp675
g5
I0
sg6
I0
sg7
I0
sg8
I0
sg9
I0
ss(I2
I0
I1
I2
I1
tp676
(dp677
g5
I0
sg6
I0
sg7
I0
sg8
I0
sg9
I0
ss(I2
I2
I2
I1
I0
tp678
(dp679
g5
I0
sg6
I0
sg7
I0
sg8
I0
sg9
I0
ss(I2
I1
I0
I1
I0
tp680
(dp681
g5
I0
sg6
I0
sg7
I0
sg8
I0
sg9
I0
ss(I2
I2
I1
I0
I0
tp682
(dp683
g5
I0
sg6
I0
sg7
I0
sg8
I0
sg9
I0
ss(I0
I1
I2
I2
I0
tp684
(dp685
g5
I0
sg6
I0
sg7
I0
sg8
I0
sg9
I0
ss(I2
I2
I0
I0
I1
tp686
(dp687
g5
I0
sg6
I0
sg7
I0
sg8
I0
sg9
I0
ss(I2
I2
I0
I2
I0
tp688
(dp689
g5
I0
sg6
I0
sg7
I0
sg8
I0
sg9
I0
ss(I1
I0
I0
I0
I1
tp690
(dp691
g5
I0
sg6
I0
sg7
I0
sg8
I0
sg9
I0
ss(I0
I2
I1
I1
I1
tp692
(dp693
g5
F1738.1353492304536
sg6
I0
sg7
F1703.423376753255
sg8
F1745.8694005390291
sg9
F1739.090419361757
ss(I2
I0
I2
I0
I1
tp694
(dp695
g5
I0
sg6
I0
sg7
I0
sg8
I0
sg9
I0
ss(I1
I1
I0
I1
I0
tp696
(dp697
g5
I0
sg6
I0
sg7
I0
sg8
I0
sg9
I0
ss(I0
I2
I2
I0
I1
tp698
(dp699
g5
F1718.0711354488246
sg6
I0
sg7
F1692.1338199102872
sg8
F1729.955475741442
sg9
F1743.0971634317648
ss(I2
I2
I1
I2
I1
tp700
(dp701
g5
I0
sg6
I0
sg7
I0
sg8
I0
sg9
I0
ss(I1
I0
I1
I2
I1
tp702
(dp703
g5
I0
sg6
I0
sg7
I0
sg8
I0
sg9
I0
ss(I0
I2
I0
I1
I1
tp704
(dp705
g5
F1742.2496826507759
sg6
I0
sg7
F1708.040464377293
sg8
F1749.8586242374438
sg9
F1735.7919950566081
ss(I1
I1
I1
I2
I0
tp706
(dp707
g5
I0
sg6
I0
sg7
I0
sg8
I0
sg9
I0
ss(I1
I0
I0
I1
I1
tp708
(dp709
g5
I0
sg6
I0
sg7
I0
sg8
I0
sg9
I0
ss(I0
I2
I1
I2
I1
tp710
(dp711
g5
F1692.7553337921886
sg6
I0
sg7
F1671.7366519474297
sg8
F1695.823391956597
sg9
F1713.974731744059
ss(I0
I0
I2
I1
I0
tp712
(dp713
g5
I0
sg6
I0
sg7
I0
sg8
I0
sg9
I0
ss(I1
I0
I0
I2
I1
tp714
(dp715
g5
I0
sg6
I0
sg7
I0
sg8
I0
sg9
I0
ss(I2
I0
I1
I1
I0
tp716
(dp717
g5
I0
sg6
I0
sg7
I0
sg8
I0
sg9
I0
ss(I2
I2
I0
I0
I0
tp718
(dp719
g5
I0
sg6
I0
sg7
I0
sg8
I0
sg9
I0
ss(I0
I0
I1
I0
I0
tp720
(dp721
g5
I0
sg6
I0
sg7
I0
sg8
I0
sg9
I0
ss(I1
I0
I1
I1
I1
tp722
(dp723
g5
I0
sg6
I0
sg7
I0
sg8
I0
sg9
I0
ss(I2
I2
I2
I1
I1
tp724
(dp725
g5
I0
sg6
I0
sg7
I0
sg8
I0
sg9
I0
ss(I2
I2
I1
I0
I1
tp726
(dp727
g5
I0
sg6
I0
sg7
I0
sg8
I0
sg9
I0
ss(I1
I2
I2
I2
I1
tp728
(dp729
g5
I0
sg6
I0
sg7
I0
sg8
I0
sg9
I0
ss(I0
I1
I1
I0
I1
tp730
(dp731
g5
F1741.5248404333026
sg6
I0
sg7
F1709.1599610826513
sg8
F1744.779749602158
sg9
F1743.0821276631289
ss(I1
I2
I2
I2
I0
tp732
(dp733
g5
I0
sg6
I0
sg7
I0
sg8
I0
sg9
I0
ss(I0
I1
I2
I1
I1
tp734
(dp735
g5
F1702.003114948851
sg6
I0
sg7
F1663.4660998178651
sg8
F1698.8121172075068
sg9
F1693.1435176389843
ss(I1
I1
I1
I1
I1
tp736
(dp737
g5
I0
sg6
I0
sg7
I0
sg8
I0
sg9
I0
ss(I0
I1
I0
I0
I1
tp738
(dp739
g5
F1742.6606117773804
sg6
I0
sg7
F1704.2723924540762
sg8
F1748.7978730860905
sg9
F1742.236443542463
ss(I1
I0
I0
I0
I0
tp740
(dp741
g5
I0
sg6
I0
sg7
I0
sg8
I0
sg9
I0
ss(I1
I1
I0
I2
I1
tp742
(dp743
g5
I0
sg6
I0
sg7
I0
sg8
I0
sg9
I0
ss(I0
I0
I1
I2
I0
tp744
(dp745
g5
I0
sg6
I0
sg7
I0
sg8
I0
sg9
I0
ss(I1
I1
I0
I1
I1
tp746
(dp747
g5
I0
sg6
I0
sg7
I0
sg8
I0
sg9
I0
ss(I1
I2
I0
I0
I0
tp748
(dp749
g5
I0
sg6
I0
sg7
I0
sg8
I0
sg9
I0
ss(I0
I0
I1
I1
I1
tp750
(dp751
g5
F1742.690964018902
sg6
I0
sg7
F1685.964355037542
sg8
F1725.003948470307
sg9
F1746.642014572695
ss(I0
I2
I2
I0
I0
tp752
(dp753
g5
I0
sg6
I0
sg7
I0
sg8
I0
sg9
I0
ss(I1
I0
I1
I2
I0
tp754
(dp755
g5
I0
sg6
I0
sg7
I0
sg8
I0
sg9
I0
ss(I1
I1
I1
I2
I1
tp756
(dp757
g5
I0
sg6
I0
sg7
I0
sg8
I0
sg9
I0
ss(I2
I1
I0
I0
I0
tp758
(dp759
g5
I0
sg6
I0
sg7
I0
sg8
I0
sg9
I0
ss(I1
I0
I0
I1
I0
tp760
(dp761
g5
I0
sg6
I0
sg7
I0
sg8
I0
sg9
I0
ss(I0
I0
I2
I1
I1
tp762
(dp763
g5
F1627.7267032103048
sg6
I0
sg7
F1581.075207694854
sg8
F1643.5697275695566
sg9
F1742.801348734971
ss(I1
I1
I2
I2
I0
tp764
(dp765
g5
I0
sg6
I0
sg7
I0
sg8
I0
sg9
I0
ss(I2
I2
I2
I2
I0
tp766
(dp767
g5
I0
sg6
I0
sg7
I0
sg8
I0
sg9
I0
ss(I1
I2
I0
I2
I1
tp768
(dp769
g5
I0
sg6
I0
sg7
I0
sg8
I0
sg9
I0
ss(I1
I2
I1
I0
I1
tp770
(dp771
g5
I0
sg6
I0
sg7
I0
sg8
I0
sg9
I0
ss(I0
I1
I1
I0
I0
tp772
(dp773
g5
I0
sg6
I0
sg7
I0
sg8
I0
sg9
I0
ss(I1
I2
I2
I1
I1
tp774
(dp775
g5
I0
sg6
I0
sg7
I0
sg8
I0
sg9
I0
ss(I1
I2
I0
I0
I1
tp776
(dp777
g5
I0
sg6
I0
sg7
I0
sg8
I0
sg9
I0
ss(I0
I0
I1
I1
I0
tp778
(dp779
g5
I0
sg6
I0
sg7
I0
sg8
I0
sg9
I0
ss(I0
I1
I2
I1
I0
tp780
(dp781
g5
I0
sg6
I0
sg7
I0
sg8
I0
sg9
I0
ss(I2
I0
I1
I0
I0
tp782
(dp783
g5
I0
sg6
I0
sg7
I0
sg8
I0
sg9
I0
ss(I1
I1
I1
I1
I0
tp784
(dp785
g5
I0
sg6
I0
sg7
I0
sg8
I0
sg9
I0
ss(I2
I1
I2
I2
I0
tp786
(dp787
g5
I0
sg6
I0
sg7
I0
sg8
I0
sg9
I0
ss(I0
I0
I0
I1
I0
tp788
(dp789
g5
I0
sg6
I0
sg7
I0
sg8
I0
sg9
I0
ss(I2
I1
I2
I1
I1
tp790
(dp791
g5
I0
sg6
I0
sg7
I0
sg8
I0
sg9
I0
ss(I2
I0
I2
I1
I0
tp792
(dp793
g5
I0
sg6
I0
sg7
I0
sg8
I0
sg9
I0
ss(I1
I1
I0
I2
I0
tp794
(dp795
g5
I0
sg6
I0
sg7
I0
sg8
I0
sg9
I0
ss(I2
I1
I0
I2
I0
tp796
(dp797
g5
I0
sg6
I0
sg7
I0
sg8
I0
sg9
I0
ss(I2
I1
I1
I0
I1
tp798
(dp799
g5
I0
sg6
I0
sg7
I0
sg8
I0
sg9
I0
ss(I1
I1
I2
I0
I0
tp800
(dp801
g5
I0
sg6
I0
sg7
I0
sg8
I0
sg9
I0
ss(I0
I0
I2
I2
I0
tp802
(dp803
g5
I0
sg6
I0
sg7
I0
sg8
I0
sg9
I0
ss(I0
I2
I0
I0
I0
tp804
(dp805
g5
I0
sg6
I0
sg7
I0
sg8
I0
sg9
I0
ss(I1
I1
I2
I2
I1
tp806
(dp807
g5
I0
sg6
I0
sg7
I0
sg8
I0
sg9
I0
ss(I0
I1
I2
I2
I1
tp808
(dp809
g5
F1124.5998627123583
sg6
I0
sg7
F1576.3473610664032
sg8
F1504.2754047820229
sg9
F1640.7554870570298
ss(I1
I2
I0
I2
I0
tp810
(dp811
g5
I0
sg6
I0
sg7
I0
sg8
I0
sg9
I0
ss(I1
I2
I1
I0
I0
tp812
(dp813
g5
I0
sg6
I0
sg7
I0
sg8
I0
sg9
I0
ss(I2
I0
I0
I0
I1
tp814
(dp815
g5
I0
sg6
I0
sg7
I0
sg8
I0
sg9
I0
ss(I2
I1
I0
I2
I1
tp816
(dp817
g5
I0
sg6
I0
sg7
I0
sg8
I0
sg9
I0
ss(I1
I2
I2
I1
I0
tp818
(dp819
g5
I0
sg6
I0
sg7
I0
sg8
I0
sg9
I0
ss(I0
I2
I2
I1
I0
tp820
(dp821
g5
I0
sg6
I0
sg7
I0
sg8
I0
sg9
I0
ss(I2
I0
I1
I0
I1
tp822
(dp823
g5
I0
sg6
I0
sg7
I0
sg8
I0
sg9
I0
ss(I2
I1
I2
I1
I0
tp824
(dp825
g5
I0
sg6
I0
sg7
I0
sg8
I0
sg9
I0
ss(I1
I0
I2
I2
I0
tp826
(dp827
g5
I0
sg6
I0
sg7
I0
sg8
I0
sg9
I0
ss(I2
I0
I2
I1
I1
tp828
(dp829
g5
I0
sg6
I0
sg7
I0
sg8
I0
sg9
I0
ss(I2
I2
I1
I2
I0
tp830
(dp831
g5
I0
sg6
I0
sg7
I0
sg8
I0
sg9
I0
ss(I2
I1
I1
I0
I0
tp832
(dp833
g5
I0
sg6
I0
sg7
I0
sg8
I0
sg9
I0
ss(I2
I2
I0
I1
I0
tp834
(dp835
g5
I0
sg6
I0
sg7
I0
sg8
I0
sg9
I0
ss(I1
I1
I2
I0
I1
tp836
(dp837
g5
I0
sg6
I0
sg7
I0
sg8
I0
sg9
I0
ss(I2
I1
I0
I0
I1
tp838
(dp839
g5
I0
sg6
I0
sg7
I0
sg8
I0
sg9
I0
ss(I0
I1
I2
I0
I1
tp840
(dp841
g5
F1738.057917300007
sg6
I0
sg7
F1700.9685700234922
sg8
F1734.4188865628662
sg9
F1748.1354718545244
ss(I0
I1
I1
I1
I0
tp842
(dp843
g5
I0
sg6
I0
sg7
I0
sg8
I0
sg9
I0
ss(I0
I1
I0
I0
I0
tp844
(dp845
g5
I0
sg6
I0
sg7
I0
sg8
I0
sg9
I0
ss(I0
I2
I0
I0
I1
tp846
(dp847
g5
F1738.2352848569435
sg6
I0
sg7
F1709.394282324073
sg8
F1751.6604660436108
sg9
F1740.515274391477
ss(I0
I1
I2
I0
I0
tp848
(dp849
g5
I0
sg6
I0
sg7
I0
sg8
I0
sg9
I0
ss(I1
I1
I1
I0
I0
tp850
(dp851
g5
I0
sg6
I0
sg7
I0
sg8
I0
sg9
I0
ss(I1
I0
I2
I1
I1
tp852
(dp853
g5
I0
sg6
I0
sg7
I0
sg8
I0
sg9
I0
ss(I2
I0
I0
I0
I0
tp854
(dp855
g5
I0
sg6
I0
sg7
I0
sg8
I0
sg9
I0
ss(I1
I1
I2
I1
I0
tp856
(dp857
g5
I0
sg6
I0
sg7
I0
sg8
I0
sg9
I0
ss(I1
I0
I2
I0
I0
tp858
(dp859
g5
I0
sg6
I0
sg7
I0
sg8
I0
sg9
I0
ss(I1
I0
I1
I0
I1
tp860
(dp861
g5
I0
sg6
I0
sg7
I0
sg8
I0
sg9
I0
ss(I2
I1
I2
I2
I1
tp862
(dp863
g5
I0
sg6
I0
sg7
I0
sg8
I0
sg9
I0
ss(I2
I2
I0
I2
I1
tp864
(dp865
g5
I0
sg6
I0
sg7
I0
sg8
I0
sg9
I0
ss(I0
I2
I2
I1
I1
tp866
(dp867
g5
F1661.702526422171
sg6
I0
sg7
F1679.2838407717222
sg8
F1723.1593756812658
sg9
F1730.3690507743297
ss(I0
I2
I0
I2
I0
tp868
(dp869
g5
I0
sg6
I0
sg7
I0
sg8
I0
sg9
I0
ss(I2
I2
I1
I1
I1
tp870
(dp871
g5
I0
sg6
I0
sg7
I0
sg8
I0
sg9
I0
ss(I1
I0
I2
I2
I1
tp872
(dp873
g5
I0
sg6
I0
sg7
I0
sg8
I0
sg9
I0
ss(I2
I1
I2
I0
I0
tp874
(dp875
g5
I0
sg6
I0
sg7
I0
sg8
I0
sg9
I0
ss(I0
I2
I2
I2
I1
tp876
(dp877
g5
F1615.7298572126203
sg6
I0
sg7
F1262.980466260852
sg8
F1534.4440951195136
sg9
F1453.1835045687853
ss(I2
I2
I0
I1
I1
tp878
(dp879
g5
I0
sg6
I0
sg7
I0
sg8
I0
sg9
I0
ss(I2
I0
I2
I2
I1
tp880
(dp881
g5
I0
sg6
I0
sg7
I0
sg8
I0
sg9
I0
ss(I0
I1
I0
I1
I1
tp882
(dp883
g5
F1742.4043284783443
sg6
I0
sg7
F1706.7607942161849
sg8
F1740.467863497207
sg9
F1739.704862668928
ss(I1
I2
I1
I1
I0
tp884
(dp885
g5
I0
sg6
I0
sg7
I0
sg8
I0
sg9
I0
ss(I0
I1
I0
I2
I0
tp886
(dp887
g5
I0
sg6
I0
sg7
I0
sg8
I0
sg9
I0
ss(I0
I0
I2
I2
I1
tp888
(dp889
g5
F1623.7104542893785
sg6
I0
sg7
F1281.813130902458
sg8
F1070.264715745705
sg9
F937.310870639166
ss(I0
I1
I1
I2
I1
tp890
(dp891
g5
F1687.940695540186
sg6
I0
sg7
F1681.9831858057996
sg8
F1703.8280708026493
sg9
F1710.8501918550926
ss(I1
I1
I0
I0
I1
tp892
(dp893
g5
I0
sg6
I0
sg7
I0
sg8
I0
sg9
I0
ss(I0
I1
I1
I1
I1
tp894
(dp895
g5
F1741.3252871509358
sg6
I0
sg7
F1707.3845597064358
sg8
F1743.2221726368068
sg9
F1741.4786133192115
ss(I1
I2
I2
I0
I0
tp896
(dp897
g5
I0
sg6
I0
sg7
I0
sg8
I0
sg9
I0
ss(I0
I0
I2
I0
I0
tp898
(dp899
g5
I0
sg6
I0
sg7
I0
sg8
I0
sg9
I0
ss(I0
I2
I2
I2
I0
tp900
(dp901
g5
I0
sg6
I0
sg7
I0
sg8
I0
sg9
I0
ss(I0
I1
I0
I2
I1
tp902
(dp903
g5
F1730.8190884198657
sg6
I0
sg7
F1698.5302229032584
sg8
F1731.2404372179885
sg9
F1731.3520751731812
ss(I1
I1
I1
I0
I1
tp904
(dp905
g5
I0
sg6
I0
sg7
I0
sg8
I0
sg9
I0
ss(I0
I0
I2
I0
I1
tp906
(dp907
g5
F1693.821663800506
sg6
I0
sg7
F1655.7548244230768
sg8
F1692.5089785488003
sg9
F1750.6653979038742
ss(I1
I0
I2
I1
I0
tp908
(dp909
g5
I0
sg6
I0
sg7
I0
sg8
I0
sg9
I0
ss(I2
I0
I0
I2
I0
tp910
(dp911
g5
I0
sg6
I0
sg7
I0
sg8
I0
sg9
I0
ss(I1
I1
I2
I1
I1
tp912
(dp913
g5
I0
sg6
I0
sg7
I0
sg8
I0
sg9
I0
ss(I2
I1
I1
I1
I0
tp914
(dp915
g5
I0
sg6
I0
sg7
I0
sg8
I0
sg9
I0
ss(I1
I0
I1
I0
I0
tp916
(dp917
g5
I0
sg6
I0
sg7
I0
sg8
I0
sg9
I0
ss(I2
I2
I2
I0
I0
tp918
(dp919
g5
I0
sg6
I0
sg7
I0
sg8
I0
sg9
I0
ss(I0
I2
I0
I2
I1
tp920
(dp921
g5
F1741.6487527270065
sg6
I0
sg7
F1692.481673062125
sg8
F1735.9072854281158
sg9
F1730.8406822197778
ss(I0
I0
I0
I0
I1
tp922
(dp923
g5
F1744.4006368575888
sg6
I0
sg7
F1713.3303815366364
sg8
F1739.3431736700575
sg9
F1734.2016063452375
ss(I2
I2
I1
I1
I0
tp924
(dp925
g5
I0
sg6
I0
sg7
I0
sg8
I0
sg9
I0
ss(I0
I0
I1
I2
I1
tp926
(dp927
g5
F1744.6255088078192
sg6
I0
sg7
F1474.9100710325247
sg8
F1488.1762678042655
sg9
F1514.0993130581749
ss(I1
I2
I0
I1
I1
tp928
(dp929
g5
I0
sg6
I0
sg7
I0
sg8
I0
sg9
I0
ss(I0
I0
I0
I2
I0
tp930
(dp931
g5
I0
sg6
I0
sg7
I0
sg8
I0
sg9
I0
ss(I2
I0
I2
I2
I0
tp932
(dp933
g5
I0
sg6
I0
sg7
I0
sg8
I0
sg9
I0
ss(I0
I1
I0
I1
I0
tp934
(dp935
g5
I0
sg6
I0
sg7
I0
sg8
I0
sg9
I0
ss(I1
I2
I1
I2
I1
tp936
(dp937
g5
I0
sg6
I0
sg7
I0
sg8
I0
sg9
I0
ss(I1
I2
I1
I1
I1
tp938
(dp939
g5
I0
sg6
I0
sg7
I0
sg8
I0
sg9
I0
ss(I0
I2
I1
I0
I0
tp940
(dp941
g5
I0
sg6
I0
sg7
I0
sg8
I0
sg9
I0
ss(I0
I1
I1
I2
I0
tp942
(dp943
g5
I0
sg6
I0
sg7
I0
sg8
I0
sg9
I0
ss(I2
I0
I0
I1
I0
tp944
(dp945
g5
I0
sg6
I0
sg7
I0
sg8
I0
sg9
I0
ss(I1
I1
I0
I0
I0
tp946
(dp947
g5
I0
sg6
I0
sg7
I0
sg8
I0
sg9
I0
ss(I1
I2
I2
I0
I1
tp948
(dp949
g5
I0
sg6
I0
sg7
I0
sg8
I0
sg9
I0
ss(I2
I1
I1
I2
I1
tp950
(dp951
g5
I0
sg6
I0
sg7
I0
sg8
I0
sg9
I0
ss(I2
I0
I1
I2
I0
tp952
(dp953
g5
I0
sg6
I0
sg7
I0
sg8
I0
sg9
I0
ss(I0
I2
I1
I1
I0
tp954
(dp955
g5
I0
sg6
I0
sg7
I0
sg8
I0
sg9
I0
ss(I2
I1
I0
I1
I1
tp956
(dp957
g5
I0
sg6
I0
sg7
I0
sg8
I0
sg9
I0
ss(I0
I0
I0
I0
I0
tp958
(dp959
g5
I0
sg6
I0
sg7
I0
sg8
I0
sg9
I0
ss(I2
I2
I2
I0
I1
tp960
(dp961
g5
I0
sg6
I0
sg7
I0
sg8
I0
sg9
I0
ss(I2
I1
I2
I0
I1
tp962
(dp963
g5
I0
sg6
I0
sg7
I0
sg8
I0
sg9
I0
ss(I0
I2
I1
I2
I0
tp964
(dp965
g5
I0
sg6
I0
sg7
I0
sg8
I0
sg9
I0
ss(I2
I1
I1
I1
I1
tp966
(dp967
g5
I0
sg6
I0
sg7
I0
sg8
I0
sg9
I0
ss(I0
I0
I1
I0
I1
tp968
(dp969
g5
F1734.450021530739
sg6
I0
sg7
F1704.7371165820261
sg8
F1741.9729211858787
sg9
F1751.1427494031377
ss(I0
I2
I1
I0
I1
tp970
(dp971
g5
F1738.2075120909556
sg6
I0
sg7
F1705.5458070116551
sg8
F1746.3093007391453
sg9
F1738.4826891975888
ss(I2
I0
I2
I0
I0
tp972
(dp973
g5
I0
sg6
I0
sg7
I0
sg8
I0
sg9
I0
ss(I0
I0
I0
I1
I1
tp974
(dp975
g5
F1749.2432071689118
sg6
I0
sg7
F1706.307088491617
sg8
F1738.6125688016468
sg9
F1735.0245372630043
ss(I1
I2
I0
I1
I0
tp976
(dp977
g5
I0
sg6
I0
sg7
I0
sg8
I0
sg9
I0
ss(I2
I2
I2
I2
I1
tp978
(dp979
g5
I0
sg6
I0
sg7
I0
sg8
I0
sg9
I0
ss(I1
I0
I2
I0
I1
tp980
(dp981
g5
I0
sg6
I0
sg7
I0
sg8
I0
sg9
I0
ssaa(lp982
(dp983
(I0
I2
I0
I1
I0
tp984
(dp985
g5
I0
sg6
I0
sg7
I0
sg8
I0
sg9
I0
ss(I2
I0
I1
I1
I1
tp986
(dp987
g5
I0
sg6
I0
sg7
I0
sg8
I0
sg9
I0
ss(I1
I2
I1
I2
I0
tp988
(dp989
g5
I0
sg6
I0
sg7
I0
sg8
I0
sg9
I0
ss(I2
I0
I0
I2
I1
tp990
(dp991
g5
I0
sg6
I0
sg7
I0
sg8
I0
sg9
I0
ss(I1
I0
I0
I2
I0
tp992
(dp993
g5
I0
sg6
I0
sg7
I0
sg8
I0
sg9
I0
ss(I2
I0
I0
I1
I1
tp994
(dp995
g5
I0
sg6
I0
sg7
I0
sg8
I0
sg9
I0
ss(I0
I0
I0
I2
I1
tp996
(dp997
g5
F11.220022476211474
sg6
I0
sg7
F-33.12554606714896
sg8
F-1.4534893996894898
sg9
F-1.465558542166558
ss(I2
I1
I1
I2
I0
tp998
(dp999
g5
I0
sg6
I0
sg7
I0
sg8
I0
sg9
I0
ss(I1
I0
I1
I1
I0
tp1000
(dp1001
g5
I0
sg6
I0
sg7
I0
sg8
I0
sg9
I0
ss(I2
I0
I1
I2
I1
tp1002
(dp1003
g5
I0
sg6
I0
sg7
I0
sg8
I0
sg9
I0
ss(I2
I2
I2
I1
I0
tp1004
(dp1005
g5
I0
sg6
I0
sg7
I0
sg8
I0
sg9
I0
ss(I2
I1
I0
I1
I0
tp1006
(dp1007
g5
I0
sg6
I0
sg7
I0
sg8
I0
sg9
I0
ss(I2
I2
I1
I0
I0
tp1008
(dp1009
g5
I0
sg6
I0
sg7
I0
sg8
I0
sg9
I0
ss(I0
I1
I2
I2
I0
tp1010
(dp1011
g5
I0
sg6
I0
sg7
I0
sg8
I0
sg9
I0
ss(I2
I2
I0
I0
I1
tp1012
(dp1013
g5
I0
sg6
I0
sg7
I0
sg8
I0
sg9
I0
ss(I2
I2
I0
I2
I0
tp1014
(dp1015
g5
I0
sg6
I0
sg7
I0
sg8
I0
sg9
I0
ss(I1
I0
I0
I0
I1
tp1016
(dp1017
g5
I0
sg6
I0
sg7
I0
sg8
I0
sg9
I0
ss(I0
I2
I1
I1
I1
tp1018
(dp1019
g5
F-1.2660165070645615
sg6
I0
sg7
F-36.77416338653867
sg8
F4.624814759442895
sg9
F-1.9040523046800915
ss(I2
I0
I2
I0
I1
tp1020
(dp1021
g5
I0
sg6
I0
sg7
I0
sg8
I0
sg9
I0
ss(I1
I1
I0
I1
I0
tp1022
(dp1023
g5
I0
sg6
I0
sg7
I0
sg8
I0
sg9
I0
ss(I0
I2
I2
I0
I1
tp1024
(dp1025
g5
F-6.625646172131168
sg6
I0
sg7
F-37.097409421776916
sg8
F4.067122140816469
sg9
F6.6336031274752205
ss(I2
I2
I1
I2
I1
tp1026
(dp1027
g5
I0
sg6
I0
sg7
I0
sg8
I0
sg9
I0
ss(I1
I0
I1
I2
I1
tp1028
(dp1029
g5
I0
sg6
I0
sg7
I0
sg8
I0
sg9
I0
ss(I0
I2
I0
I1
I1
tp1030
(dp1031
g5
F0.7398264544914461
sg6
I0
sg7
F-34.72836421065574
sg8
F7.656107194318743
sg9
F-3.0161455150787946
ss(I1
I1
I1
I2
I0
tp1032
(dp1033
g5
I0
sg6
I0
sg7
I0
sg8
I0
sg9
I0
ss(I1
I0
I0
I1
I1
tp1034
(dp1035
g5
I0
sg6
I0
sg7
I0
sg8
I0
sg9
I0
ss(I0
I2
I1
I2
I1
tp1036
(dp1037
g5
F2.555936566350998
sg6
I0
sg7
F-39.192461747282586
sg8
F2.362317485037652
sg9
F-2.9629282175599325
ss(I0
I0
I2
I1
I0
tp1038
(dp1039
g5
I0
sg6
I0
sg7
I0
sg8
I0
sg9
I0
ss(I1
I0
I0
I2
I1
tp1040
(dp1041
g5
I0
sg6
I0
sg7
I0
sg8
I0
sg9
I0
ss(I2
I0
I1
I1
I0
tp1042
(dp1043
g5
I0
sg6
I0
sg7
I0
sg8
I0
sg9
I0
ss(I2
I2
I0
I0
I0
tp1044
(dp1045
g5
I0
sg6
I0
sg7
I0
sg8
I0
sg9
I0
ss(I0
I0
I1
I0
I0
tp1046
(dp1047
g5
I0
sg6
I0
sg7
I0
sg8
I0
sg9
I0
ss(I1
I0
I1
I1
I1
tp1048
(dp1049
g5
I0
sg6
I0
sg7
I0
sg8
I0
sg9
I0
ss(I2
I2
I2
I1
I1
tp1050
(dp1051
g5
I0
sg6
I0
sg7
I0
sg8
I0
sg9
I0
ss(I2
I2
I1
I0
I1
tp1052
(dp1053
g5
I0
sg6
I0
sg7
I0
sg8
I0
sg9
I0
ss(I1
I2
I2
I2
I1
tp1054
(dp1055
g5
I0
sg6
I0
sg7
I0
sg8
I0
sg9
I0
ss(I0
I1
I1
I0
I1
tp1056
(dp1057
g5
F-3.5763615824286257
sg6
I0
sg7
F-32.498912264114566
sg8
F3.0166146255668522
sg9
F2.1456339316457393
ss(I1
I2
I2
I2
I0
tp1058
(dp1059
g5
I0
sg6
I0
sg7
I0
sg8
I0
sg9
I0
ss(I0
I1
I2
I1
I1
tp1060
(dp1061
g5
F-1.4624595633626734
sg6
I0
sg7
F-37.43973479071914
sg8
F-0.11813670852008018
sg9
F4.5791825328079945
ss(I1
I1
I1
I1
I1
tp1062
(dp1063
g5
I0
sg6
I0
sg7
I0
sg8
I0
sg9
I0
ss(I0
I1
I0
I0
I1
tp1064
(dp1065
g5
F-1.6458484429529925
sg6
I0
sg7
F-31.113566159360914
sg8
F4.878524516216955
sg9
F-0.6063586142215882
ss(I1
I0
I0
I0
I0
tp1066
(dp1067
g5
I0
sg6
I0
sg7
I0
sg8
I0
sg9
I0
ss(I1
I1
I0
I2
I1
tp1068
(dp1069
g5
I0
sg6
I0
sg7
I0
sg8
I0
sg9
I0
ss(I0
I0
I1
I2
I0
tp1070
(dp1071
g5
I0
sg6
I0
sg7
I0
sg8
I0
sg9
I0
ss(I1
I1
I0
I1
I1
tp1072
(dp1073
g5
I0
sg6
I0
sg7
I0
sg8
I0
sg9
I0
ss(I1
I2
I0
I0
I0
tp1074
(dp1075
g5
I0
sg6
I0
sg7
I0
sg8
I0
sg9
I0
ss(I0
I0
I1
I1
I1
tp1076
(dp1077
g5
F2.0001948708811663
sg6
I0
sg7
F-33.17141185129281
sg8
F-2.9354241645146852
sg9
F2.857278158830093
ss(I0
I2
I2
I0
I0
tp1078
(dp1079
g5
I0
sg6
I0
sg7
I0
sg8
I0
sg9
I0
ss(I1
I0
I1
I2
I0
tp1080
(dp1081
g5
I0
sg6
I0
sg7
I0
sg8
I0
sg9
I0
ss(I1
I1
I1
I2
I1
tp1082
(dp1083
g5
I0
sg6
I0
sg7
I0
sg8
I0
sg9
I0
ss(I2
I1
I0
I0
I0
tp1084
(dp1085
g5
I0
sg6
I0
sg7
I0
sg8
I0
sg9
I0
ss(I1
I0
I0
I1
I0
tp1086
(dp1087
g5
I0
sg6
I0
sg7
I0
sg8
I0
sg9
I0
ss(I0
I0
I2
I1
I1
tp1088
(dp1089
g5
F1.9513831365734378
sg6
I0
sg7
F-35.790855459644504
sg8
F-4.1586113607094735
sg9
F8.08531301486939
ss(I1
I1
I2
I2
I0
tp1090
(dp1091
g5
I0
sg6
I0
sg7
I0
sg8
I0
sg9
I0
ss(I2
I2
I2
I2
I0
tp1092
(dp1093
g5
I0
sg6
I0
sg7
I0
sg8
I0
sg9
I0
ss(I1
I2
I0
I2
I1
tp1094
(dp1095
g5
I0
sg6
I0
sg7
I0
sg8
I0
sg9
I0
ss(I1
I2
I1
I0
I1
tp1096
(dp1097
g5
I0
sg6
I0
sg7
I0
sg8
I0
sg9
I0
ss(I0
I1
I1
I0
I0
tp1098
(dp1099
g5
I0
sg6
I0
sg7
I0
sg8
I0
sg9
I0
ss(I1
I2
I2
I1
I1
tp1100
(dp1101
g5
I0
sg6
I0
sg7
I0
sg8
I0
sg9
I0
ss(I1
I2
I0
I0
I1
tp1102
(dp1103
g5
I0
sg6
I0
sg7
I0
sg8
I0
sg9
I0
ss(I0
I0
I1
I1
I0
tp1104
(dp1105
g5
I0
sg6
I0
sg7
I0
sg8
I0
sg9
I0
ss(I0
I1
I2
I1
I0
tp1106
(dp1107
g5
I0
sg6
I0
sg7
I0
sg8
I0
sg9
I0
ss(I2
I0
I1
I0
I0
tp1108
(dp1109
g5
I0
sg6
I0
sg7
I0
sg8
I0
sg9
I0
ss(I1
I1
I1
I1
I0
tp1110
(dp1111
g5
I0
sg6
I0
sg7
I0
sg8
I0
sg9
I0
ss(I2
I1
I2
I2
I0
tp1112
(dp1113
g5
I0
sg6
I0
sg7
I0
sg8
I0
sg9
I0
ss(I0
I0
I0
I1
I0
tp1114
(dp1115
g5
I0
sg6
I0
sg7
I0
sg8
I0
sg9
I0
ss(I2
I1
I2
I1
I1
tp1116
(dp1117
g5
I0
sg6
I0
sg7
I0
sg8
I0
sg9
I0
ss(I2
I0
I2
I1
I0
tp1118
(dp1119
g5
I0
sg6
I0
sg7
I0
sg8
I0
sg9
I0
ss(I1
I1
I0
I2
I0
tp1120
(dp1121
g5
I0
sg6
I0
sg7
I0
sg8
I0
sg9
I0
ss(I2
I1
I0
I2
I0
tp1122
(dp1123
g5
I0
sg6
I0
sg7
I0
sg8
I0
sg9
I0
ss(I2
I1
I1
I0
I1
tp1124
(dp1125
g5
I0
sg6
I0
sg7
I0
sg8
I0
sg9
I0
ss(I1
I1
I2
I0
I0
tp1126
(dp1127
g5
I0
sg6
I0
sg7
I0
sg8
I0
sg9
I0
ss(I0
I0
I2
I2
I0
tp1128
(dp1129
g5
I0
sg6
I0
sg7
I0
sg8
I0
sg9
I0
ss(I0
I2
I0
I0
I0
tp1130
(dp1131
g5
I0
sg6
I0
sg7
I0
sg8
I0
sg9
I0
ss(I1
I1
I2
I2
I1
tp1132
(dp1133
g5
I0
sg6
I0
sg7
I0
sg8
I0
sg9
I0
ss(I0
I1
I2
I2
I1
tp1134
(dp1135
g5
F3.8507128430757738
sg6
I0
sg7
F-38.02684705304422
sg8
F-2.936908274904301
sg9
F4.375293092267107
ss(I1
I2
I0
I2
I0
tp1136
(dp1137
g5
I0
sg6
I0
sg7
I0
sg8
I0
sg9
I0
ss(I1
I2
I1
I0
I0
tp1138
(dp1139
g5
I0
sg6
I0
sg7
I0
sg8
I0
sg9
I0
ss(I2
I0
I0
I0
I1
tp1140
(dp1141
g5
I0
sg6
I0
sg7
I0
sg8
I0
sg9
I0
ss(I2
I1
I0
I2
I1
tp1142
(dp1143
g5
I0
sg6
I0
sg7
I0
sg8
I0
sg9
I0
ss(I1
I2
I2
I1
I0
tp1144
(dp1145
g5
I0
sg6
I0
sg7
I0
sg8
I0
sg9
I0
ss(I0
I2
I2
I1
I0
tp1146
(dp1147
g5
I0
sg6
I0
sg7
I0
sg8
I0
sg9
I0
ss(I2
I0
I1
I0
I1
tp1148
(dp1149
g5
I0
sg6
I0
sg7
I0
sg8
I0
sg9
I0
ss(I2
I1
I2
I1
I0
tp1150
(dp1151
g5
I0
sg6
I0
sg7
I0
sg8
I0
sg9
I0
ss(I1
I0
I2
I2
I0
tp1152
(dp1153
g5
I0
sg6
I0
sg7
I0
sg8
I0
sg9
I0
ss(I2
I0
I2
I1
I1
tp1154
(dp1155
g5
I0
sg6
I0
sg7
I0
sg8
I0
sg9
I0
ss(I2
I2
I1
I2
I0
tp1156
(dp1157
g5
I0
sg6
I0
sg7
I0
sg8
I0
sg9
I0
ss(I2
I1
I1
I0
I0
tp1158
(dp1159
g5
I0
sg6
I0
sg7
I0
sg8
I0
sg9
I0
ss(I2
I2
I0
I1
I0
tp1160
(dp1161
g5
I0
sg6
I0
sg7
I0
sg8
I0
sg9
I0
ss(I1
I1
I2
I0
I1
tp1162
(dp1163
g5
I0
sg6
I0
sg7
I0
sg8
I0
sg9
I0
ss(I2
I1
I0
I0
I1
tp1164
(dp1165
g5
I0
sg6
I0
sg7
I0
sg8
I0
sg9
I0
ss(I0
I1
I2
I0
I1
tp1166
(dp1167
g5
F-4.036205012009869
sg6
I0
sg7
F-34.7682198240298
sg8
F1.5472632040503025
sg9
F7.336486025146068
ss(I0
I1
I1
I1
I0
tp1168
(dp1169
g5
I0
sg6
I0
sg7
I0
sg8
I0
sg9
I0
ss(I0
I1
I0
I0
I0
tp1170
(dp1171
g5
I0
sg6
I0
sg7
I0
sg8
I0
sg9
I0
ss(I0
I2
I0
I0
I1
tp1172
(dp1173
g5
F-2.76556507577895
sg6
I0
sg7
F-33.755001301044125
sg8
F9.433230951605871
sg9
F-1.8421116964456097
ss(I0
I1
I2
I0
I0
tp1174
(dp1175
g5
I0
sg6
I0
sg7
I0
sg8
I0
sg9
I0
ss(I1
I1
I1
I0
I0
tp1176
(dp1177
g5
I0
sg6
I0
sg7
I0
sg8
I0
sg9
I0
ss(I1
I0
I2
I1
I1
tp1178
(dp1179
g5
I0
sg6
I0
sg7
I0
sg8
I0
sg9
I0
ss(I2
I0
I0
I0
I0
tp1180
(dp1181
g5
I0
sg6
I0
sg7
I0
sg8
I0
sg9
I0
ss(I1
I1
I2
I1
I0
tp1182
(dp1183
g5
I0
sg6
I0
sg7
I0
sg8
I0
sg9
I0
ss(I1
I0
I2
I0
I0
tp1184
(dp1185
g5
I0
sg6
I0
sg7
I0
sg8
I0
sg9
I0
ss(I1
I0
I1
I0
I1
tp1186
(dp1187
g5
I0
sg6
I0
sg7
I0
sg8
I0
sg9
I0
ss(I2
I1
I2
I2
I1
tp1188
(dp1189
g5
I0
sg6
I0
sg7
I0
sg8
I0
sg9
I0
ss(I2
I2
I0
I2
I1
tp1190
(dp1191
g5
I0
sg6
I0
sg7
I0
sg8
I0
sg9
I0
ss(I0
I2
I2
I1
I1
tp1192
(dp1193
g5
F-3.0053023077329257
sg6
I0
sg7
F-39.464662299939306
sg8
F3.456414460365373
sg9
F3.291829436832841
ss(I0
I2
I0
I2
I0
tp1194
(dp1195
g5
I0
sg6
I0
sg7
I0
sg8
I0
sg9
I0
ss(I2
I2
I1
I1
I1
tp1196
(dp1197
g5
I0
sg6
I0
sg7
I0
sg8
I0
sg9
I0
ss(I1
I0
I2
I2
I1
tp1198
(dp1199
g5
I0
sg6
I0
sg7
I0
sg8
I0
sg9
I0
ss(I2
I1
I2
I0
I0
tp1200
(dp1201
g5
I0
sg6
I0
sg7
I0
sg8
I0
sg9
I0
ss(I0
I2
I2
I2
I1
tp1202
(dp1203
g5
F0.7241330817126903
sg6
I0
sg7
F-26.197017325478527
sg8
F1.8117997735292959
sg9
F0.63392505790157
ss(I2
I2
I0
I1
I1
tp1204
(dp1205
g5
I0
sg6
I0
sg7
I0
sg8
I0
sg9
I0
ss(I2
I0
I2
I2
I1
tp1206
(dp1207
g5
I0
sg6
I0
sg7
I0
sg8
I0
sg9
I0
ss(I0
I1
I0
I1
I1
tp1208
(dp1209
g5
F3.221736457403723
sg6
I0
sg7
F-33.22298263447728
sg8
F3.6910497400246394
sg9
F-0.9445227325072056
ss(I1
I2
I1
I1
I0
tp1210
(dp1211
g5
I0
sg6
I0
sg7
I0
sg8
I0
sg9
I0
ss(I0
I1
I0
I2
I0
tp1212
(dp1213
g5
I0
sg6
I0
sg7
I0
sg8
I0
sg9
I0
ss(I0
I0
I2
I2
I1
tp1214
(dp1215
g5
F6.403174523928637
sg6
I0
sg7
F-36.402885018035384
sg8
F-7.766472830381719
sg9
F5.633889781325995
ss(I0
I1
I1
I2
I1
tp1216
(dp1217
g5
F5.401368131929251
sg6
I0
sg7
F-37.22788734862898
sg8
F-1.4522014373617451
sg9
F-0.5508313148613244
ss(I1
I1
I0
I0
I1
tp1218
(dp1219
g5
I0
sg6
I0
sg7
I0
sg8
I0
sg9
I0
ss(I0
I1
I1
I1
I1
tp1220
(dp1221
g5
F0.44713698326118434
sg6
I0
sg7
F-35.881816723765425
sg8
F0.8357520974530388
sg9
F0.5998722696501009
ss(I1
I2
I2
I0
I0
tp1222
(dp1223
g5
I0
sg6
I0
sg7
I0
sg8
I0
sg9
I0
ss(I0
I0
I2
I0
I0
tp1224
(dp1225
g5
I0
sg6
I0
sg7
I0
sg8
I0
sg9
I0
ss(I0
I2
I2
I2
I0
tp1226
(dp1227
g5
I0
sg6
I0
sg7
I0
sg8
I0
sg9
I0
ss(I0
I1
I0
I2
I1
tp1228
(dp1229
g5
F6.836636199027617
sg6
I0
sg7
F-32.72488127170336
sg8
F2.020577275936556
sg9
F-4.740084765699517
ss(I1
I1
I1
I0
I1
tp1230
(dp1231
g5
I0
sg6
I0
sg7
I0
sg8
I0
sg9
I0
ss(I0
I0
I2
I0
I1
tp1232
(dp1233
g5
F-1.4053218795010292
sg6
I0
sg7
F-32.46577012939271
sg8
F-1.4653109453141009
sg9
F8.36192777629369
ss(I1
I0
I2
I1
I0
tp1234
(dp1235
g5
I0
sg6
I0
sg7
I0
sg8
I0
sg9
I0
ss(I2
I0
I0
I2
I0
tp1236
(dp1237
g5
I0
sg6
I0
sg7
I0
sg8
I0
sg9
I0
ss(I1
I1
I2
I1
I1
tp1238
(dp1239
g5
I0
sg6
I0
sg7
I0
sg8
I0
sg9
I0
ss(I2
I1
I1
I1
I0
tp1240
(dp1241
g5
I0
sg6
I0
sg7
I0
sg8
I0
sg9
I0
ss(I1
I0
I1
I0
I0
tp1242
(dp1243
g5
I0
sg6
I0
sg7
I0
sg8
I0
sg9
I0
ss(I2
I2
I2
I0
I0
tp1244
(dp1245
g5
I0
sg6
I0
sg7
I0
sg8
I0
sg9
I0
ss(I0
I2
I0
I2
I1
tp1246
(dp1247
g5
F4.329138157658798
sg6
I0
sg7
F-34.81121962503428
sg8
F6.362258339334124
sg9
F-5.009820651859162
ss(I0
I0
I0
I0
I1
tp1248
(dp1249
g5
F0.8149260482828544
sg6
I0
sg7
F-29.084128699143648
sg8
F1.3498765333914542
sg9
F0.2683921663774351
ss(I2
I2
I1
I1
I0
tp1250
(dp1251
g5
I0
sg6
I0
sg7
I0
sg8
I0
sg9
I0
ss(I0
I0
I1
I2
I1
tp1252
(dp1253
g5
F6.245101836167466
sg6
I0
sg7
F-34.721180695933
sg8
F-4.681177162898152
sg9
F0.9336940078543114
ss(I1
I2
I0
I1
I1
tp1254
(dp1255
g5
I0
sg6
I0
sg7
I0
sg8
I0
sg9
I0
ss(I0
I0
I0
I2
I0
tp1256
(dp1257
g5
I0
sg6
I0
sg7
I0
sg8
I0
sg9
I0
ss(I2
I0
I2
I2
I0
tp1258
(dp1259
g5
I0
sg6
I0
sg7
I0
sg8
I0
sg9
I0
ss(I0
I1
I0
I1
I0
tp1260
(dp1261
g5
I0
sg6
I0
sg7
I0
sg8
I0
sg9
I0
ss(I1
I2
I1
I2
I1
tp1262
(dp1263
g5
I0
sg6
I0
sg7
I0
sg8
I0
sg9
I0
ss(I1
I2
I1
I1
I1
tp1264
(dp1265
g5
I0
sg6
I0
sg7
I0
sg8
I0
sg9
I0
ss(I0
I2
I1
I0
I0
tp1266
(dp1267
g5
I0
sg6
I0
sg7
I0
sg8
I0
sg9
I0
ss(I0
I1
I1
I2
I0
tp1268
(dp1269
g5
I0
sg6
I0
sg7
I0
sg8
I0
sg9
I0
ss(I2
I0
I0
I1
I0
tp1270
(dp1271
g5
I0
sg6
I0
sg7
I0
sg8
I0
sg9
I0
ss(I1
I1
I0
I0
I0
tp1272
(dp1273
g5
I0
sg6
I0
sg7
I0
sg8
I0
sg9
I0
ss(I1
I2
I2
I0
I1
tp1274
(dp1275
g5
I0
sg6
I0
sg7
I0
sg8
I0
sg9
I0
ss(I2
I1
I1
I2
I1
tp1276
(dp1277
g5
I0
sg6
I0
sg7
I0
sg8
I0
sg9
I0
ss(I2
I0
I1
I2
I0
tp1278
(dp1279
g5
I0
sg6
I0
sg7
I0
sg8
I0
sg9
I0
ss(I0
I2
I1
I1
I0
tp1280
(dp1281
g5
I0
sg6
I0
sg7
I0
sg8
I0
sg9
I0
ss(I2
I1
I0
I1
I1
tp1282
(dp1283
g5
I0
sg6
I0
sg7
I0
sg8
I0
sg9
I0
ss(I0
I0
I0
I0
I0
tp1284
(dp1285
g5
I0
sg6
I0
sg7
I0
sg8
I0
sg9
I0
ss(I2
I2
I2
I0
I1
tp1286
(dp1287
g5
I0
sg6
I0
sg7
I0
sg8
I0
sg9
I0
ss(I2
I1
I2
I0
I1
tp1288
(dp1289
g5
I0
sg6
I0
sg7
I0
sg8
I0
sg9
I0
ss(I0
I2
I1
I2
I0
tp1290
(dp1291
g5
I0
sg6
I0
sg7
I0
sg8
I0
sg9
I0
ss(I2
I1
I1
I1
I1
tp1292
(dp1293
g5
I0
sg6
I0
sg7
I0
sg8
I0
sg9
I0
ss(I0
I0
I1
I0
I1
tp1294
(dp1295
g5
F-0.14810143112667395
sg6
I0
sg7
F-31.881356622585525
sg8
F-1.9669708999222517
sg9
F4.3569065600607
ss(I0
I2
I1
I0
I1
tp1296
(dp1297
g5
F-3.5601997699489765
sg6
I0
sg7
F-34.82727355465156
sg8
F6.814166584051589
sg9
F0.137375415378657
ss(I2
I0
I2
I0
I0
tp1298
(dp1299
g5
I0
sg6
I0
sg7
I0
sg8
I0
sg9
I0
ss(I0
I0
I0
I1
I1
tp1300
(dp1301
g5
F4.39415174419231
sg6
I0
sg7
F-30.89570801411911
sg8
F-1.3718514014140335
sg9
F-0.6632212268541926
ss(I1
I2
I0
I1
I0
tp1302
(dp1303
g5
I0
sg6
I0
sg7
I0
sg8
I0
sg9
I0
ss(I2
I2
I2
I2
I1
tp1304
(dp1305
g5
I0
sg6
I0
sg7
I0
sg8
I0
sg9
I0
ss(I1
I0
I2
I0
I1
tp1306
(dp1307
g5
I0
sg6
I0
sg7
I0
sg8
I0
sg9
I0
ssa(dp1308
(I0
I2
I0
I1
I0
tp1309
(dp1310
g5
I0
sg6
I0
sg7
I0
sg8
I0
sg9
I0
ss(I2
I0
I1
I1
I1
tp1311
(dp1312
g5
F-1.232863062591798
sg6
F4.024936783132961
sg7
F-37.705977772096915
sg8
I0
sg9
F-0.9736058488621525
ss(I1
I2
I1
I2
I0
tp1313
(dp1314
g5
I0
sg6
I0
sg7
I0
sg8
I0
sg9
I0
ss(I2
I0
I0
I2
I1
tp1315
(dp1316
g5
F7.639702207932009
sg6
F7.152213131133463
sg7
F-35.53901018282503
sg8
I0
sg9
F-5.323686854271163
ss(I1
I0
I0
I2
I0
tp1317
(dp1318
g5
I0
sg6
I0
sg7
I0
sg8
I0
sg9
I0
ss(I2
I0
I0
I1
I1
tp1319
(dp1320
g5
F0.6472289139020755
sg6
F7.304665286057052
sg7
F-35.92594027438489
sg8
I0
sg9
F-5.292274994319183
ss(I0
I0
I0
I2
I1
tp1321
(dp1322
g5
F9.285531733963245
sg6
F2.9295665369321227
sg7
F-32.32133166386754
sg8
I0
sg9
F0.10157673632574848
ss(I2
I1
I1
I2
I0
tp1323
(dp1324
g5
I0
sg6
I0
sg7
I0
sg8
I0
sg9
I0
ss(I1
I0
I1
I1
I0
tp1325
(dp1326
g5
I0
sg6
I0
sg7
I0
sg8
I0
sg9
I0
ss(I2
I0
I1
I2
I1
tp1327
(dp1328
g5
F2.3972371689528993
sg6
F6.739923753019731
sg7
F-39.0400473855855
sg8
I0
sg9
F-0.03139898958654519
ss(I2
I2
I2
I1
I0
tp1329
(dp1330
g5
I0
sg6
I0
sg7
I0
sg8
I0
sg9
I0
ss(I2
I1
I0
I1
I0
tp1331
(dp1332
g5
I0
sg6
I0
sg7
I0
sg8
I0
sg9
I0
ss(I2
I2
I1
I0
I0
tp1333
(dp1334
g5
I0
sg6
I0
sg7
I0
sg8
I0
sg9
I0
ss(I0
I1
I2
I2
I0
tp1335
(dp1336
g5
I0
sg6
I0
sg7
I0
sg8
I0
sg9
I0
ss(I2
I2
I0
I0
I1
tp1337
(dp1338
g5
I0
sg6
I0
sg7
I0
sg8
I0
sg9
I0
ss(I2
I2
I0
I2
I0
tp1339
(dp1340
g5
I0
sg6
I0
sg7
I0
sg8
I0
sg9
I0
ss(I1
I0
I0
I0
I1
tp1341
(dp1342
g5
F-1.6446346123458335
sg6
F4.002030780208743
sg7
F-31.476103009170643
sg8
I0
sg9
F-1.1784654186352148
ss(I0
I2
I1
I1
I1
tp1343
(dp1344
g5
I0
sg6
I0
sg7
I0
sg8
I0
sg9
I0
ss(I2
I0
I2
I0
I1
tp1345
(dp1346
g5
F-5.533915214968356
sg6
F6.745428555168166
sg7
F-35.33603489411473
sg8
I0
sg9
F5.168229721081451
ss(I1
I1
I0
I1
I0
tp1347
(dp1348
g5
I0
sg6
I0
sg7
I0
sg8
I0
sg9
I0
ss(I0
I2
I2
I0
I1
tp1349
(dp1350
g5
I0
sg6
I0
sg7
I0
sg8
I0
sg9
I0
ss(I2
I2
I1
I2
I1
tp1351
(dp1352
g5
I0
sg6
I0
sg7
I0
sg8
I0
sg9
I0
ss(I1
I0
I1
I2
I1
tp1353
(dp1354
g5
F7.217203643605789
sg6
F1.090274892286617
sg7
F-34.47748499862523
sg8
I0
sg9
F3.3161250512726532
ss(I0
I2
I0
I1
I1
tp1355
(dp1356
g5
I0
sg6
I0
sg7
I0
sg8
I0
sg9
I0
ss(I1
I1
I1
I2
I0
tp1357
(dp1358
g5
I0
sg6
I0
sg7
I0
sg8
I0
sg9
I0
ss(I1
I0
I0
I1
I1
tp1359
(dp1360
g5
F2.982032527814747
sg6
F2.2345807922668692
sg7
F-33.5818927237102
sg8
I0
sg9
F-1.9339988400101402
ss(I0
I2
I1
I2
I1
tp1361
(dp1362
g5
I0
sg6
I0
sg7
I0
sg8
I0
sg9
I0
ss(I0
I0
I2
I1
I0
tp1363
(dp1364
g5
I0
sg6
I0
sg7
I0
sg8
I0
sg9
I0
ss(I1
I0
I0
I2
I1
tp1365
(dp1366
g5
F8.224195969764056
sg6
F3.45954425705592
sg7
F-33.65468166883041
sg8
I0
sg9
F-3.8786751537113524
ss(I2
I0
I1
I1
I0
tp1367
(dp1368
g5
I0
sg6
I0
sg7
I0
sg8
I0
sg9
I0
ss(I2
I2
I0
I0
I0
tp1369
(dp1370
g5
I0
sg6
I0
sg7
I0
sg8
I0
sg9
I0
ss(I0
I0
I1
I0
I0
tp1371
(dp1372
g5
I0
sg6
I0
sg7
I0
sg8
I0
sg9
I0
ss(I1
I0
I1
I1
I1
tp1373
(dp1374
g5
F0.815280214383405
sg6
F0.7479136474188094
sg7
F-33.586587003790896
sg8
I0
sg9
F1.0034568805909723
ss(I2
I2
I2
I1
I1
tp1375
(dp1376
g5
I0
sg6
I0
sg7
I0
sg8
I0
sg9
I0
ss(I2
I2
I1
I0
I1
tp1377
(dp1378
g5
I0
sg6
I0
sg7
I0
sg8
I0
sg9
I0
ss(I1
I2
I2
I2
I1
tp1379
(dp1380
g5
I0
sg6
I0
sg7
I0
sg8
I0
sg9
I0
ss(I0
I1
I1
I0
I1
tp1381
(dp1382
g5
I0
sg6
I0
sg7
I0
sg8
I0
sg9
I0
ss(I1
I2
I2
I2
I0
tp1383
(dp1384
g5
I0
sg6
I0
sg7
I0
sg8
I0
sg9
I0
ss(I0
I1
I2
I1
I1
tp1385
(dp1386
g5
I0
sg6
I0
sg7
I0
sg8
I0
sg9
I0
ss(I1
I1
I1
I1
I1
tp1387
(dp1388
g5
I0
sg6
I0
sg7
I0
sg8
I0
sg9
I0
ss(I0
I1
I0
I0
I1
tp1389
(dp1390
g5
I0
sg6
I0
sg7
I0
sg8
I0
sg9
I0
ss(I1
I0
I0
I0
I0
tp1391
(dp1392
g5
I0
sg6
I0
sg7
I0
sg8
I0
sg9
I0
ss(I1
I1
I0
I2
I1
tp1393
(dp1394
g5
I0
sg6
I0
sg7
I0
sg8
I0
sg9
I0
ss(I0
I0
I1
I2
I0
tp1395
(dp1396
g5
I0
sg6
I0
sg7
I0
sg8
I0
sg9
I0
ss(I1
I1
I0
I1
I1
tp1397
(dp1398
g5
I0
sg6
I0
sg7
I0
sg8
I0
sg9
I0
ss(I1
I2
I0
I0
I0
tp1399
(dp1400
g5
I0
sg6
I0
sg7
I0
sg8
I0
sg9
I0
ss(I0
I0
I1
I1
I1
tp1401
(dp1402
g5
F2.177198148410022
sg6
F-1.12568291832272
sg7
F-30.741880764583158
sg8
I0
sg9
F4.855419386346091
ss(I0
I2
I2
I0
I0
tp1403
(dp1404
g5
I0
sg6
I0
sg7
I0
sg8
I0
sg9
I0
ss(I1
I0
I1
I2
I0
tp1405
(dp1406
g5
I0
sg6
I0
sg7
I0
sg8
I0
sg9
I0
ss(I1
I1
I1
I2
I1
tp1407
(dp1408
g5
I0
sg6
I0
sg7
I0
sg8
I0
sg9
I0
ss(I2
I1
I0
I0
I0
tp1409
(dp1410
g5
I0
sg6
I0
sg7
I0
sg8
I0
sg9
I0
ss(I1
I0
I0
I1
I0
tp1411
(dp1412
g5
I0
sg6
I0
sg7
I0
sg8
I0
sg9
I0
ss(I0
I0
I2
I1
I1
tp1413
(dp1414
g5
F3.7708673320135344
sg6
F-2.8906372202094057
sg7
F-31.710474305400616
sg8
I0
sg9
F10.804405322169835
ss(I1
I1
I2
I2
I0
tp1415
(dp1416
g5
I0
sg6
I0
sg7
I0
sg8
I0
sg9
I0
ss(I2
I2
I2
I2
I0
tp1417
(dp1418
g5
I0
sg6
I0
sg7
I0
sg8
I0
sg9
I0
ss(I1
I2
I0
I2
I1
tp1419
(dp1420
g5
I0
sg6
I0
sg7
I0
sg8
I0
sg9
I0
ss(I1
I2
I1
I0
I1
tp1421
(dp1422
g5
I0
sg6
I0
sg7
I0
sg8
I0
sg9
I0
ss(I0
I1
I1
I0
I0
tp1423
(dp1424
g5
I0
sg6
I0
sg7
I0
sg8
I0
sg9
I0
ss(I1
I2
I2
I1
I1
tp1425
(dp1426
g5
I0
sg6
I0
sg7
I0
sg8
I0
sg9
I0
ss(I1
I2
I0
I0
I1
tp1427
(dp1428
g5
I0
sg6
I0
sg7
I0
sg8
I0
sg9
I0
ss(I0
I0
I1
I1
I0
tp1429
(dp1430
g5
I0
sg6
I0
sg7
I0
sg8
I0
sg9
I0
ss(I0
I1
I2
I1
I0
tp1431
(dp1432
g5
I0
sg6
I0
sg7
I0
sg8
I0
sg9
I0
ss(I2
I0
I1
I0
I0
tp1433
(dp1434
g5
I0
sg6
I0
sg7
I0
sg8
I0
sg9
I0
ss(I1
I1
I1
I1
I0
tp1435
(dp1436
g5
I0
sg6
I0
sg7
I0
sg8
I0
sg9
I0
ss(I2
I1
I2
I2
I0
tp1437
(dp1438
g5
I0
sg6
I0
sg7
I0
sg8
I0
sg9
I0
ss(I0
I0
I0
I1
I0
tp1439
(dp1440
g5
I0
sg6
I0
sg7
I0
sg8
I0
sg9
I0
ss(I2
I1
I2
I1
I1
tp1441
(dp1442
g5
I0
sg6
I0
sg7
I0
sg8
I0
sg9
I0
ss(I2
I0
I2
I1
I0
tp1443
(dp1444
g5
I0
sg6
I0
sg7
I0
sg8
I0
sg9
I0
ss(I1
I1
I0
I2
I0
tp1445
(dp1446
g5
I0
sg6
I0
sg7
I0
sg8
I0
sg9
I0
ss(I2
I1
I0
I2
I0
tp1447
(dp1448
g5
I0
sg6
I0
sg7
I0
sg8
I0
sg9
I0
ss(I2
I1
I1
I0
I1
tp1449
(dp1450
g5
I0
sg6
I0
sg7
I0
sg8
I0
sg9
I0
ss(I1
I1
I2
I0
I0
tp1451
(dp1452
g5
I0
sg6
I0
sg7
I0
sg8
I0
sg9
I0
ss(I0
I0
I2
I2
I0
tp1453
(dp1454
g5
I0
sg6
I0
sg7
I0
sg8
I0
sg9
I0
ss(I0
I2
I0
I0
I0
tp1455
(dp1456
g5
I0
sg6
I0
sg7
I0
sg8
I0
sg9
I0
ss(I1
I1
I2
I2
I1
tp1457
(dp1458
g5
I0
sg6
I0
sg7
I0
sg8
I0
sg9
I0
ss(I0
I1
I2
I2
I1
tp1459
(dp1460
g5
I0
sg6
I0
sg7
I0
sg8
I0
sg9
I0
ss(I1
I2
I0
I2
I0
tp1461
(dp1462
g5
I0
sg6
I0
sg7
I0
sg8
I0
sg9
I0
ss(I1
I2
I1
I0
I0
tp1463
(dp1464
g5
I0
sg6
I0
sg7
I0
sg8
I0
sg9
I0
ss(I2
I0
I0
I0
I1
tp1465
(dp1466
g5
F-2.5179019410088923
sg6
F9.365958891229598
sg7
F-33.48893926884711
sg8
I0
sg9
F-3.336061108267411
ss(I2
I1
I0
I2
I1
tp1467
(dp1468
g5
I0
sg6
I0
sg7
I0
sg8
I0
sg9
I0
ss(I1
I2
I2
I1
I0
tp1469
(dp1470
g5
I0
sg6
I0
sg7
I0
sg8
I0
sg9
I0
ss(I0
I2
I2
I1
I0
tp1471
(dp1472
g5
I0
sg6
I0
sg7
I0
sg8
I0
sg9
I0
ss(I2
I0
I1
I0
I1
tp1473
(dp1474
g5
F-5.751371236466204
sg6
F7.322651814504205
sg7
F-35.62647198291011
sg8
I0
sg9
F0.3633331996662255
ss(I2
I1
I2
I1
I0
tp1475
(dp1476
g5
I0
sg6
I0
sg7
I0
sg8
I0
sg9
I0
ss(I1
I0
I2
I2
I0
tp1477
(dp1478
g5
I0
sg6
I0
sg7
I0
sg8
I0
sg9
I0
ss(I2
I0
I2
I1
I1
tp1479
(dp1480
g5
F-0.39105121020647216
sg6
F5.206312150402875
sg7
F-38.86721195651074
sg8
I0
sg9
F4.478318790182712
ss(I2
I2
I1
I2
I0
tp1481
(dp1482
g5
I0
sg6
I0
sg7
I0
sg8
I0
sg9
I0
ss(I2
I1
I1
I0
I0
tp1483
(dp1484
g5
I0
sg6
I0
sg7
I0
sg8
I0
sg9
I0
ss(I2
I2
I0
I1
I0
tp1485
(dp1486
g5
I0
sg6
I0
sg7
I0
sg8
I0
sg9
I0
ss(I1
I1
I2
I0
I1
tp1487
(dp1488
g5
I0
sg6
I0
sg7
I0
sg8
I0
sg9
I0
ss(I2
I1
I0
I0
I1
tp1489
(dp1490
g5
I0
sg6
I0
sg7
I0
sg8
I0
sg9
I0
ss(I0
I1
I2
I0
I1
tp1491
(dp1492
g5
I0
sg6
I0
sg7
I0
sg8
I0
sg9
I0
ss(I0
I1
I1
I1
I0
tp1493
(dp1494
g5
I0
sg6
I0
sg7
I0
sg8
I0
sg9
I0
ss(I0
I1
I0
I0
I0
tp1495
(dp1496
g5
I0
sg6
I0
sg7
I0
sg8
I0
sg9
I0
ss(I0
I2
I0
I0
I1
tp1497
(dp1498
g5
I0
sg6
I0
sg7
I0
sg8
I0
sg9
I0
ss(I0
I1
I2
I0
I0
tp1499
(dp1500
g5
I0
sg6
I0
sg7
I0
sg8
I0
sg9
I0
ss(I1
I1
I1
I0
I0
tp1501
(dp1502
g5
I0
sg6
I0
sg7
I0
sg8
I0
sg9
I0
ss(I1
I0
I2
I1
I1
tp1503
(dp1504
g5
F3.9511798848332873
sg6
F5.802898790914051
sg7
F-36.75142849647466
sg8
I0
sg9
F7.972523781886398
ss(I2
I0
I0
I0
I0
tp1505
(dp1506
g5
I0
sg6
I0
sg7
I0
sg8
I0
sg9
I0
ss(I1
I1
I2
I1
I0
tp1507
(dp1508
g5
I0
sg6
I0
sg7
I0
sg8
I0
sg9
I0
ss(I1
I0
I2
I0
I0
tp1509
(dp1510
g5
I0
sg6
I0
sg7
I0
sg8
I0
sg9
I0
ss(I1
I0
I1
I0
I1
tp1511
(dp1512
g5
F-0.06473635518897747
sg6
F2.919249384070538
sg7
F-33.20939135045327
sg8
I0
sg9
F2.020931089725442
ss(I2
I1
I2
I2
I1
tp1513
(dp1514
g5
I0
sg6
I0
sg7
I0
sg8
I0
sg9
I0
ss(I2
I2
I0
I2
I1
tp1515
(dp1516
g5
I0
sg6
I0
sg7
I0
sg8
I0
sg9
I0
ss(I0
I2
I2
I1
I1
tp1517
(dp1518
g5
I0
sg6
I0
sg7
I0
sg8
I0
sg9
I0
ss(I0
I2
I0
I2
I0
tp1519
(dp1520
g5
I0
sg6
I0
sg7
I0
sg8
I0
sg9
I0
ss(I2
I2
I1
I1
I1
tp1521
(dp1522
g5
I0
sg6
I0
sg7
I0
sg8
I0
sg9
I0
ss(I1
I0
I2
I2
I1
tp1523
(dp1524
g5
F3.882205618089197
sg6
F0.2648321754559515
sg7
F-25.315670939741242
sg8
I0
sg9
F7.322376360263963
ss(I2
I1
I2
I0
I0
tp1525
(dp1526
g5
I0
sg6
I0
sg7
I0
sg8
I0
sg9
I0
ss(I0
I2
I2
I2
I1
tp1527
(dp1528
g5
I0
sg6
I0
sg7
I0
sg8
I0
sg9
I0
ss(I2
I2
I0
I1
I1
tp1529
(dp1530
g5
I0
sg6
I0
sg7
I0
sg8
I0
sg9
I0
ss(I2
I0
I2
I2
I1
tp1531
(dp1532
g5
F0.0
sg6
F3.8594498253252447
sg7
F-8.245481060468343
sg8
I0
sg9
F5.452544484073357
ss(I0
I1
I0
I1
I1
tp1533
(dp1534
g5
I0
sg6
I0
sg7
I0
sg8
I0
sg9
I0
ss(I1
I2
I1
I1
I0
tp1535
(dp1536
g5
I0
sg6
I0
sg7
I0
sg8
I0
sg9
I0
ss(I0
I1
I0
I2
I0
tp1537
(dp1538
g5
I0
sg6
I0
sg7
I0
sg8
I0
sg9
I0
ss(I0
I0
I2
I2
I1
tp1539
(dp1540
g5
F9.917179995645672
sg6
F-1.6885503809110225
sg7
F-26.852481150327705
sg8
I0
sg9
F9.255216372806736
ss(I0
I1
I1
I2
I1
tp1541
(dp1542
g5
I0
sg6
I0
sg7
I0
sg8
I0
sg9
I0
ss(I1
I1
I0
I0
I1
tp1543
(dp1544
g5
I0
sg6
I0
sg7
I0
sg8
I0
sg9
I0
ss(I0
I1
I1
I1
I1
tp1545
(dp1546
g5
I0
sg6
I0
sg7
I0
sg8
I0
sg9
I0
ss(I1
I2
I2
I0
I0
tp1547
(dp1548
g5
I0
sg6
I0
sg7
I0
sg8
I0
sg9
I0
ss(I0
I0
I2
I0
I0
tp1549
(dp1550
g5
I0
sg6
I0
sg7
I0
sg8
I0
sg9
I0
ss(I0
I2
I2
I2
I0
tp1551
(dp1552
g5
I0
sg6
I0
sg7
I0
sg8
I0
sg9
I0
ss(I0
I1
I0
I2
I1
tp1553
(dp1554
g5
I0
sg6
I0
sg7
I0
sg8
I0
sg9
I0
ss(I1
I1
I1
I0
I1
tp1555
(dp1556
g5
I0
sg6
I0
sg7
I0
sg8
I0
sg9
I0
ss(I0
I0
I2
I0
I1
tp1557
(dp1558
g5
F-0.010905446146353803
sg6
F-1.2766571284981383
sg7
F-28.19272837634341
sg8
I0
sg9
F12.482360835051288
ss(I1
I0
I2
I1
I0
tp1559
(dp1560
g5
I0
sg6
I0
sg7
I0
sg8
I0
sg9
I0
ss(I2
I0
I0
I2
I0
tp1561
(dp1562
g5
I0
sg6
I0
sg7
I0
sg8
I0
sg9
I0
ss(I1
I1
I2
I1
I1
tp1563
(dp1564
g5
I0
sg6
I0
sg7
I0
sg8
I0
sg9
I0
ss(I2
I1
I1
I1
I0
tp1565
(dp1566
g5
I0
sg6
I0
sg7
I0
sg8
I0
sg9
I0
ss(I1
I0
I1
I0
I0
tp1567
(dp1568
g5
I0
sg6
I0
sg7
I0
sg8
I0
sg9
I0
ss(I2
I2
I2
I0
I0
tp1569
(dp1570
g5
I0
sg6
I0
sg7
I0
sg8
I0
sg9
I0
ss(I0
I2
I0
I2
I1
tp1571
(dp1572
g5
I0
sg6
I0
sg7
I0
sg8
I0
sg9
I0
ss(I0
I0
I0
I0
I1
tp1573
(dp1574
g5
F3.9298112095855626
sg6
F0.6641728341425329
sg7
F-25.476714241475968
sg8
I0
sg9
F2.645220579660568
ss(I2
I2
I1
I1
I0
tp1575
(dp1576
g5
I0
sg6
I0
sg7
I0
sg8
I0
sg9
I0
ss(I0
I0
I1
I2
I1
tp1577
(dp1578
g5
F8.368923530931756
sg6
F-2.616358124241681
sg7
F-31.694502031089854
sg8
I0
sg9
F2.402578326642307
ss(I1
I2
I0
I1
I1
tp1579
(dp1580
g5
I0
sg6
I0
sg7
I0
sg8
I0
sg9
I0
ss(I0
I0
I0
I2
I0
tp1581
(dp1582
g5
I0
sg6
I0
sg7
I0
sg8
I0
sg9
I0
ss(I2
I0
I2
I2
I0
tp1583
(dp1584
g5
I0
sg6
I0
sg7
I0
sg8
I0
sg9
I0
ss(I0
I1
I0
I1
I0
tp1585
(dp1586
g5
I0
sg6
I0
sg7
I0
sg8
I0
sg9
I0
ss(I1
I2
I1
I2
I1
tp1587
(dp1588
g5
I0
sg6
I0
sg7
I0
sg8
I0
sg9
I0
ss(I1
I2
I1
I1
I1
tp1589
(dp1590
g5
I0
sg6
I0
sg7
I0
sg8
I0
sg9
I0
ss(I0
I2
I1
I0
I0
tp1591
(dp1592
g5
I0
sg6
I0
sg7
I0
sg8
I0
sg9
I0
ss(I0
I1
I1
I2
I0
tp1593
(dp1594
g5
I0
sg6
I0
sg7
I0
sg8
I0
sg9
I0
ss(I2
I0
I0
I1
I0
tp1595
(dp1596
g5
I0
sg6
I0
sg7
I0
sg8
I0
sg9
I0
ss(I1
I1
I0
I0
I0
tp1597
(dp1598
g5
I0
sg6
I0
sg7
I0
sg8
I0
sg9
I0
ss(I1
I2
I2
I0
I1
tp1599
(dp1600
g5
I0
sg6
I0
sg7
I0
sg8
I0
sg9
I0
ss(I2
I1
I1
I2
I1
tp1601
(dp1602
g5
I0
sg6
I0
sg7
I0
sg8
I0
sg9
I0
ss(I2
I0
I1
I2
I0
tp1603
(dp1604
g5
I0
sg6
I0
sg7
I0
sg8
I0
sg9
I0
ss(I0
I2
I1
I1
I0
tp1605
(dp1606
g5
I0
sg6
I0
sg7
I0
sg8
I0
sg9
I0
ss(I2
I1
I0
I1
I1
tp1607
(dp1608
g5
I0
sg6
I0
sg7
I0
sg8
I0
sg9
I0
ss(I0
I0
I0
I0
I0
tp1609
(dp1610
g5
I0
sg6
I0
sg7
I0
sg8
I0
sg9
I0
ss(I2
I2
I2
I0
I1
tp1611
(dp1612
g5
I0
sg6
I0
sg7
I0
sg8
I0
sg9
I0
ss(I2
I1
I2
I0
I1
tp1613
(dp1614
g5
I0
sg6
I0
sg7
I0
sg8
I0
sg9
I0
ss(I0
I2
I1
I2
I0
tp1615
(dp1616
g5
I0
sg6
I0
sg7
I0
sg8
I0
sg9
I0
ss(I2
I1
I1
I1
I1
tp1617
(dp1618
g5
I0
sg6
I0
sg7
I0
sg8
I0
sg9
I0
ss(I0
I0
I1
I0
I1
tp1619
(dp1620
g5
F-1.2539750453389202
sg6
F-0.42837665061018304
sg7
F-29.102724145264055
sg8
I0
sg9
F6.88135335114451
ss(I0
I2
I1
I0
I1
tp1621
(dp1622
g5
I0
sg6
I0
sg7
I0
sg8
I0
sg9
I0
ss(I2
I0
I2
I0
I0
tp1623
(dp1624
g5
I0
sg6
I0
sg7
I0
sg8
I0
sg9
I0
ss(I0
I0
I0
I1
I1
tp1625
(dp1626
g5
F7.1084221945897665
sg6
F-0.7681699740836755
sg7
F-30.739637776071234
sg8
I0
sg9
F0.9612173875819235
ss(I1
I2
I0
I1
I0
tp1627
(dp1628
g5
I0
sg6
I0
sg7
I0
sg8
I0
sg9
I0
ss(I2
I2
I2
I2
I1
tp1629
(dp1630
g5
I0
sg6
I0
sg7
I0
sg8
I0
sg9
I0
ss(I1
I0
I2
I0
I1
tp1631
(dp1632
g5
F-2.47169764011357
sg6
F4.14369409800263
sg7
F-30.390013840650692
sg8
I0
sg9
F8.765994677980453
ssa(dp1633
(I0
I2
I0
I1
I0
tp1634
(dp1635
g5
I0
sg6
I0
sg7
I0
sg8
I0
sg9
I0
ss(I2
I0
I1
I1
I1
tp1636
(dp1637
g5
F2172.3406469311008
sg6
F2501.383117751418
sg7
I0
sg8
F2108.11591109932
sg9
F2340.086750189825
ss(I1
I2
I1
I2
I0
tp1638
(dp1639
g5
I0
sg6
I0
sg7
I0
sg8
I0
sg9
I0
ss(I2
I0
I0
I2
I1
tp1640
(dp1641
g5
F2329.241055576864
sg6
F2298.7147523708127
sg7
I0
sg8
F940.6291819127118
sg9
F473.86738747982065
ss(I1
I0
I0
I2
I0
tp1642
(dp1643
g5
I0
sg6
I0
sg7
I0
sg8
I0
sg9
I0
ss(I2
I0
I0
I1
I1
tp1644
(dp1645
g5
F2385.127900820612
sg6
F2555.6920041575268
sg7
I0
sg8
F2247.8516547709096
sg9
F2326.1425151145377
ss(I0
I0
I0
I2
I1
tp1646
(dp1647
g5
F2555.4884806521854
sg6
F2450.930462983591
sg7
I0
sg8
F2468.0179435344135
sg9
F2436.1706211703467
ss(I2
I1
I1
I2
I0
tp1648
(dp1649
g5
I0
sg6
I0
sg7
I0
sg8
I0
sg9
I0
ss(I1
I0
I1
I1
I0
tp1650
(dp1651
g5
I0
sg6
I0
sg7
I0
sg8
I0
sg9
I0
ss(I2
I0
I1
I2
I1
tp1652
(dp1653
g5
I0
sg6
F1349.453927660888
sg7
I0
sg8
F600.4881822000032
sg9
I0
ss(I2
I2
I2
I1
I0
tp1654
(dp1655
g5
I0
sg6
I0
sg7
I0
sg8
I0
sg9
I0
ss(I2
I1
I0
I1
I0
tp1656
(dp1657
g5
I0
sg6
I0
sg7
I0
sg8
I0
sg9
I0
ss(I2
I2
I1
I0
I0
tp1658
(dp1659
g5
I0
sg6
I0
sg7
I0
sg8
I0
sg9
I0
ss(I0
I1
I2
I2
I0
tp1660
(dp1661
g5
I0
sg6
I0
sg7
I0
sg8
I0
sg9
I0
ss(I2
I2
I0
I0
I1
tp1662
(dp1663
g5
F2494.1783266147886
sg6
F2497.967838178319
sg7
I0
sg8
F2540.5189897835508
sg9
F2517.219324840349
ss(I2
I2
I0
I2
I0
tp1664
(dp1665
g5
I0
sg6
I0
sg7
I0
sg8
I0
sg9
I0
ss(I1
I0
I0
I0
I1
tp1666
(dp1667
g5
F2540.6051890545923
sg6
F2562.2615997237326
sg7
I0
sg8
F2548.962168845876
sg9
F2536.472326240764
ss(I0
I2
I1
I1
I1
tp1668
(dp1669
g5
F2553.3335143676104
sg6
F2542.3415088336833
sg7
I0
sg8
F2542.1381236460293
sg9
F2555.5720051742082
ss(I2
I0
I2
I0
I1
tp1670
(dp1671
g5
F837.5515948792736
sg6
F1933.8803797060468
sg7
I0
sg8
F414.76013759168
sg9
F1651.4894997238775
ss(I1
I1
I0
I1
I0
tp1672
(dp1673
g5
I0
sg6
I0
sg7
I0
sg8
F555.5468751105856
sg9
I0
ss(I0
I2
I2
I0
I1
tp1674
(dp1675
g5
F2480.080746337363
sg6
F2485.6047734314016
sg7
I0
sg8
F2488.841973122659
sg9
F2463.109162736436
ss(I2
I2
I1
I2
I1
tp1676
(dp1677
g5
I0
sg6
F616.208177273455
sg7
I0
sg8
F630.2194429592695
sg9
F879.7850491582869
ss(I1
I0
I1
I2
I1
tp1678
(dp1679
g5
F2524.7591747826186
sg6
F1818.6378394879785
sg7
I0
sg8
F2046.173595914819
sg9
F1991.127922887974
ss(I0
I2
I0
I1
I1
tp1680
(dp1681
g5
F2561.5794444912854
sg6
F2555.501689579373
sg7
I0
sg8
F2562.525058515841
sg9
F2552.0326981472595
ss(I1
I1
I1
I2
I0
tp1682
(dp1683
g5
I0
sg6
I0
sg7
I0
sg8
I0
sg9
I0
ss(I1
I0
I0
I1
I1
tp1684
(dp1685
g5
F2555.466223625678
sg6
F2562.300470757694
sg7
I0
sg8
F2500.3911312350465
sg9
F2520.189752612783
ss(I0
I2
I1
I2
I1
tp1686
(dp1687
g5
F2486.7782990960495
sg6
F2215.0799179839223
sg7
I0
sg8
F2324.0512500355044
sg9
F2380.697166723183
ss(I0
I0
I2
I1
I0
tp1688
(dp1689
g5
I0
sg6
I0
sg7
I0
sg8
I0
sg9
I0
ss(I1
I0
I0
I2
I1
tp1690
(dp1691
g5
F2533.6232786620562
sg6
F2338.17861103803
sg7
I0
sg8
F2398.5720874006165
sg9
F2422.570053944218
ss(I2
I0
I1
I1
I0
tp1692
(dp1693
g5
I0
sg6
I0
sg7
I0
sg8
I0
sg9
I0
ss(I2
I2
I0
I0
I0
tp1694
(dp1695
g5
I0
sg6
I0
sg7
I0
sg8
I0
sg9
I0
ss(I0
I0
I1
I0
I0
tp1696
(dp1697
g5
I0
sg6
I0
sg7
I0
sg8
I0
sg9
I0
ss(I1
I0
I1
I1
I1
tp1698
(dp1699
g5
F2539.0377916793027
sg6
F2552.5370018087297
sg7
I0
sg8
F2505.0973530138963
sg9
F2522.382543724367
ss(I2
I2
I2
I1
I1
tp1700
(dp1701
g5
I0
sg6
I0
sg7
I0
sg8
F521.7568112011244
sg9
I0
ss(I2
I2
I1
I0
I1
tp1702
(dp1703
g5
F2135.3099407634572
sg6
F2326.405759316211
sg7
I0
sg8
F2407.8041330250257
sg9
F2484.2843405177546
ss(I1
I2
I2
I2
I1
tp1704
(dp1705
g5
F928.6767382084385
sg6
I0
sg7
I0
sg8
F974.6901585593125
sg9
F534.1337788551331
ss(I0
I1
I1
I0
I1
tp1706
(dp1707
g5
F2556.096260686095
sg6
F2554.177240480616
sg7
I0
sg8
F2557.7444466216575
sg9
F2558.7420666751996
ss(I1
I2
I2
I2
I0
tp1708
(dp1709
g5
I0
sg6
I0
sg7
I0
sg8
I0
sg9
I0
ss(I0
I1
I2
I1
I1
tp1710
(dp1711
g5
F2442.84043556447
sg6
F2443.8827101983925
sg7
I0
sg8
F2357.094122217522
sg9
F2475.0725199754243
ss(I1
I1
I1
I1
I1
tp1712
(dp1713
g5
F2534.3298255258073
sg6
F2531.3830692576325
sg7
I0
sg8
F2525.527083881231
sg9
F2529.905973273694
ss(I0
I1
I0
I0
I1
tp1714
(dp1715
g5
F2559.551337521825
sg6
F2560.2073767934717
sg7
I0
sg8
F2563.1186684161808
sg9
F2558.5842595610593
ss(I1
I0
I0
I0
I0
tp1716
(dp1717
g5
I0
sg6
I0
sg7
I0
sg8
I0
sg9
I0
ss(I1
I1
I0
I2
I1
tp1718
(dp1719
g5
F2497.3765481760174
sg6
F2502.2327553453365
sg7
I0
sg8
F2458.9641474519003
sg9
F2452.7920417431087
ss(I0
I0
I1
I2
I0
tp1720
(dp1721
g5
I0
sg6
I0
sg7
I0
sg8
I0
sg9
I0
ss(I1
I1
I0
I1
I1
tp1722
(dp1723
g5
F2553.07648743599
sg6
F2553.4526790567024
sg7
I0
sg8
F2546.123122358603
sg9
F2546.340285850297
ss(I1
I2
I0
I0
I0
tp1724
(dp1725
g5
I0
sg6
I0
sg7
I0
sg8
I0
sg9
I0
ss(I0
I0
I1
I1
I1
tp1726
(dp1727
g5
F2519.3818621878577
sg6
F2509.313257005727
sg7
I0
sg8
F2526.8602038870895
sg9
F2559.700575983984
ss(I0
I2
I2
I0
I0
tp1728
(dp1729
g5
I0
sg6
I0
sg7
I0
sg8
I0
sg9
I0
ss(I1
I0
I1
I2
I0
tp1730
(dp1731
g5
I0
sg6
I0
sg7
I0
sg8
I0
sg9
I0
ss(I1
I1
I1
I2
I1
tp1732
(dp1733
g5
F2014.3265895432132
sg6
F2328.3050888792877
sg7
I0
sg8
F2124.0058795352306
sg9
F2155.8089363623776
ss(I2
I1
I0
I0
I0
tp1734
(dp1735
g5
I0
sg6
I0
sg7
I0
sg8
I0
sg9
I0
ss(I1
I0
I0
I1
I0
tp1736
(dp1737
g5
I0
sg6
I0
sg7
I0
sg8
I0
sg9
I0
ss(I0
I0
I2
I1
I1
tp1738
(dp1739
g5
F2220.70081914382
sg6
F2342.718944610343
sg7
I0
sg8
F2272.217669038723
sg9
F2522.9476072843686
ss(I1
I1
I2
I2
I0
tp1740
(dp1741
g5
I0
sg6
I0
sg7
I0
sg8
I0
sg9
I0
ss(I2
I2
I2
I2
I0
tp1742
(dp1743
g5
I0
sg6
I0
sg7
I0
sg8
I0
sg9
I0
ss(I1
I2
I0
I2
I1
tp1744
(dp1745
g5
F2320.859973390455
sg6
F2065.88903686523
sg7
I0
sg8
F2460.579634215718
sg9
F2295.5435121306814
ss(I1
I2
I1
I0
I1
tp1746
(dp1747
g5
F2544.8674812716436
sg6
F2546.0623231281047
sg7
I0
sg8
F2550.0380618714726
sg9
F2546.5064880491454
ss(I0
I1
I1
I0
I0
tp1748
(dp1749
g5
I0
sg6
I0
sg7
I0
sg8
I0
sg9
I0
ss(I1
I2
I2
I1
I1
tp1750
(dp1751
g5
F1603.924594615464
sg6
F1692.0056145416545
sg7
I0
sg8
F1800.547366903854
sg9
F1056.8227620868815
ss(I1
I2
I0
I0
I1
tp1752
(dp1753
g5
F2553.5836038576167
sg6
F2552.7222834824297
sg7
I0
sg8
F2558.709804637606
sg9
F2551.886806348101
ss(I0
I0
I1
I1
I0
tp1754
(dp1755
g5
I0
sg6
I0
sg7
I0
sg8
I0
sg9
I0
ss(I0
I1
I2
I1
I0
tp1756
(dp1757
g5
I0
sg6
I0
sg7
I0
sg8
I0
sg9
I0
ss(I2
I0
I1
I0
I0
tp1758
(dp1759
g5
I0
sg6
I0
sg7
I0
sg8
I0
sg9
I0
ss(I1
I1
I1
I1
I0
tp1760
(dp1761
g5
I0
sg6
I0
sg7
I0
sg8
I0
sg9
I0
ss(I2
I1
I2
I2
I0
tp1762
(dp1763
g5
I0
sg6
I0
sg7
I0
sg8
I0
sg9
I0
ss(I0
I0
I0
I1
I0
tp1764
(dp1765
g5
I0
sg6
I0
sg7
I0
sg8
I0
sg9
I0
ss(I2
I1
I2
I1
I1
tp1766
(dp1767
g5
F572.0559455430747
sg6
I0
sg7
I0
sg8
F355.0225984175873
sg9
I0
ss(I2
I0
I2
I1
I0
tp1768
(dp1769
g5
I0
sg6
I0
sg7
I0
sg8
I0
sg9
I0
ss(I1
I1
I0
I2
I0
tp1770
(dp1771
g5
I0
sg6
I0
sg7
I0
sg8
I0
sg9
I0
ss(I2
I1
I0
I2
I0
tp1772
(dp1773
g5
I0
sg6
I0
sg7
I0
sg8
I0
sg9
I0
ss(I2
I1
I1
I0
I1
tp1774
(dp1775
g5
F2512.7099794311334
sg6
F2496.764012836213
sg7
I0
sg8
F2459.4588248399273
sg9
F2436.333447512403
ss(I1
I1
I2
I0
I0
tp1776
(dp1777
g5
I0
sg6
I0
sg7
I0
sg8
I0
sg9
I0
ss(I0
I0
I2
I2
I0
tp1778
(dp1779
g5
I0
sg6
I0
sg7
I0
sg8
I0
sg9
I0
ss(I0
I2
I0
I0
I0
tp1780
(dp1781
g5
I0
sg6
I0
sg7
I0
sg8
I0
sg9
I0
ss(I1
I1
I2
I2
I1
tp1782
(dp1783
g5
F1024.3270249849174
sg6
I0
sg7
I0
sg8
F883.7427878499619
sg9
F515.8830555230181
ss(I0
I1
I2
I2
I1
tp1784
(dp1785
g5
F1923.1464146692185
sg6
F1189.05196327092
sg7
I0
sg8
F1347.412177686092
sg9
F1662.670053812466
ss(I1
I2
I0
I2
I0
tp1786
(dp1787
g5
I0
sg6
I0
sg7
I0
sg8
I0
sg9
I0
ss(I1
I2
I1
I0
I0
tp1788
(dp1789
g5
I0
sg6
I0
sg7
I0
sg8
I0
sg9
I0
ss(I2
I0
I0
I0
I1
tp1790
(dp1791
g5
F2399.0528646598405
sg6
F2547.962131608071
sg7
I0
sg8
F2466.020726993147
sg9
F2393.8698069043726
ss(I2
I1
I0
I2
I1
tp1792
(dp1793
g5
F1013.9719334372445
sg6
F1671.4731172246195
sg7
I0
sg8
F1915.517477178781
sg9
F2092.3400008095405
ss(I1
I2
I2
I1
I0
tp1794
(dp1795
g5
I0
sg6
I0
sg7
I0
sg8
I0
sg9
I0
ss(I0
I2
I2
I1
I0
tp1796
(dp1797
g5
I0
sg6
I0
sg7
I0
sg8
I0
sg9
I0
ss(I2
I0
I1
I0
I1
tp1798
(dp1799
g5
F2248.640932356085
sg6
F2536.499943668788
sg7
I0
sg8
F2307.2844698301997
sg9
F2404.088080321919
ss(I2
I1
I2
I1
I0
tp1800
(dp1801
g5
I0
sg6
I0
sg7
I0
sg8
I0
sg9
I0
ss(I1
I0
I2
I2
I0
tp1802
(dp1803
g5
I0
sg6
I0
sg7
I0
sg8
I0
sg9
I0
ss(I2
I0
I2
I1
I1
tp1804
(dp1805
g5
F346.36669349651896
sg6
F1463.5383390705142
sg7
I0
sg8
F723.6026681416497
sg9
F1591.3191020943814
ss(I2
I2
I1
I2
I0
tp1806
(dp1807
g5
I0
sg6
I0
sg7
I0
sg8
I0
sg9
I0
ss(I2
I1
I1
I0
I0
tp1808
(dp1809
g5
I0
sg6
I0
sg7
I0
sg8
I0
sg9
I0
ss(I2
I2
I0
I1
I0
tp1810
(dp1811
g5
I0
sg6
I0
sg7
I0
sg8
I0
sg9
I0
ss(I1
I1
I2
I0
I1
tp1812
(dp1813
g5
F2408.7551114564167
sg6
F2398.5260560775873
sg7
I0
sg8
F2321.544955433762
sg9
F2455.727226412234
ss(I2
I1
I0
I0
I1
tp1814
(dp1815
g5
F2532.783428405484
sg6
F2531.8802654794595
sg7
I0
sg8
F2532.8002006693214
sg9
F2517.492737939262
ss(I0
I1
I2
I0
I1
tp1816
(dp1817
g5
F2473.95860614545
sg6
F2514.5958746036654
sg7
I0
sg8
F2498.6154913647733
sg9
F2523.4781247866295
ss(I0
I1
I1
I1
I0
tp1818
(dp1819
g5
I0
sg6
I0
sg7
I0
sg8
I0
sg9
I0
ss(I0
I1
I0
I0
I0
tp1820
(dp1821
g5
I0
sg6
I0
sg7
I0
sg8
I0
sg9
I0
ss(I0
I2
I0
I0
I1
tp1822
(dp1823
g5
F2556.410077144268
sg6
F2550.3592957896467
sg7
I0
sg8
F2570.4758729671694
sg9
F2556.3334222222798
ss(I0
I1
I2
I0
I0
tp1824
(dp1825
g5
I0
sg6
I0
sg7
I0
sg8
I0
sg9
I0
ss(I1
I1
I1
I0
I0
tp1826
(dp1827
g5
I0
sg6
I0
sg7
I0
sg8
I0
sg9
I0
ss(I1
I0
I2
I1
I1
tp1828
(dp1829
g5
F2282.9353941101404
sg6
F2414.877373247511
sg7
I0
sg8
F2001.6138277107066
sg9
F2495.750108878387
ss(I2
I0
I0
I0
I0
tp1830
(dp1831
g5
I0
sg6
I0
sg7
I0
sg8
I0
sg9
I0
ss(I1
I1
I2
I1
I0
tp1832
(dp1833
g5
I0
sg6
I0
sg7
I0
sg8
I0
sg9
I0
ss(I1
I0
I2
I0
I0
tp1834
(dp1835
g5
I0
sg6
I0
sg7
I0
sg8
I0
sg9
I0
ss(I1
I0
I1
I0
I1
tp1836
(dp1837
g5
F2531.258902149161
sg6
F2559.0693397891546
sg7
I0
sg8
F2510.976762241803
sg9
F2554.074170675246
ss(I2
I1
I2
I2
I1
tp1838
(dp1839
g5
I0
sg6
I0
sg7
I0
sg8
I0
sg9
I0
ss(I2
I2
I0
I2
I1
tp1840
(dp1841
g5
F1533.0532677237768
sg6
F1042.9029440727024
sg7
I0
sg8
F1584.6726546055284
sg9
F407.10942883047835
ss(I0
I2
I2
I1
I1
tp1842
(dp1843
g5
F2388.5790612655383
sg6
F2191.2118904899285
sg7
I0
sg8
F2340.5968257196223
sg9
F2431.7091176229806
ss(I0
I2
I0
I2
I0
tp1844
(dp1845
g5
I0
sg6
I0
sg7
I0
sg8
I0
sg9
I0
ss(I2
I2
I1
I1
I1
tp1846
(dp1847
g5
F1762.041828795883
sg6
F1781.4224644293372
sg7
I0
sg8
F2012.3065780525426
sg9
F1583.899386295879
ss(I1
I0
I2
I2
I1
tp1848
(dp1849
g5
F123.64683435603173
sg6
I0
sg7
I0
sg8
F120.64375985418698
sg9
F2148.6679793233748
ss(I2
I1
I2
I0
I0
tp1850
(dp1851
g5
I0
sg6
I0
sg7
I0
sg8
I0
sg9
I0
ss(I0
I2
I2
I2
I1
tp1852
(dp1853
g5
F1086.5348189778579
sg6
F1297.5745979046865
sg7
I0
sg8
F590.2313383881163
sg9
F1007.4086994283492
ss(I2
I2
I0
I1
I1
tp1854
(dp1855
g5
F2437.7478852126633
sg6
F2459.086093423519
sg7
I0
sg8
F2463.1295656843276
sg9
F2148.90456699873
ss(I2
I0
I2
I2
I1
tp1856
(dp1857
g5
I0
sg6
I0
sg7
I0
sg8
I0
sg9
F603.679536872198
ss(I0
I1
I0
I1
I1
tp1858
(dp1859
g5
F2561.3607740022044
sg6
F2557.1071364272934
sg7
I0
sg8
F2559.2269898641916
sg9
F2553.632755430661
ss(I1
I2
I1
I1
I0
tp1860
(dp1861
g5
I0
sg6
I0
sg7
I0
sg8
I0
sg9
I0
ss(I0
I1
I0
I2
I0
tp1862
(dp1863
g5
I0
sg6
I0
sg7
I0
sg8
I0
sg9
I0
ss(I0
I0
I2
I2
I1
tp1864
(dp1865
g5
F1236.6563231020286
sg6
F725.9628442982598
sg7
I0
sg8
F821.9757345201284
sg9
F2205.728485381211
ss(I0
I1
I1
I2
I1
tp1866
(dp1867
g5
F2510.4253107062495
sg6
F2511.3725795341406
sg7
I0
sg8
F2493.381638018483
sg9
F2492.683216877236
ss(I1
I1
I0
I0
I1
tp1868
(dp1869
g5
F2552.337248806268
sg6
F2560.76499143517
sg7
I0
sg8
F2558.1786484412187
sg9
F2552.803557226349
ss(I0
I1
I1
I1
I1
tp1870
(dp1871
g5
F2546.1208735812934
sg6
F2546.662479122116
sg7
I0
sg8
F2550.931785264219
sg9
F2548.6160602022755
ss(I1
I2
I2
I0
I0
tp1872
(dp1873
g5
I0
sg6
I0
sg7
I0
sg8
I0
sg9
I0
ss(I0
I0
I2
I0
I0
tp1874
(dp1875
g5
I0
sg6
I0
sg7
I0
sg8
I0
sg9
I0
ss(I0
I2
I2
I2
I0
tp1876
(dp1877
g5
I0
sg6
I0
sg7
I0
sg8
I0
sg9
I0
ss(I0
I1
I0
I2
I1
tp1878
(dp1879
g5
F2493.822820802518
sg6
F2505.896874007542
sg7
I0
sg8
F2522.4913701817677
sg9
F2497.6692366781203
ss(I1
I1
I1
I0
I1
tp1880
(dp1881
g5
F2548.5135976225333
sg6
F2552.5203921539974
sg7
I0
sg8
F2549.782096023154
sg9
F2548.7542130838783
ss(I0
I0
I2
I0
I1
tp1882
(dp1883
g5
F2431.445075330789
sg6
F2394.3873861897446
sg7
I0
sg8
F2423.512380681541
sg9
F2547.7256616482573
ss(I1
I0
I2
I1
I0
tp1884
(dp1885
g5
I0
sg6
I0
sg7
I0
sg8
I0
sg9
I0
ss(I2
I0
I0
I2
I0
tp1886
(dp1887
g5
I0
sg6
I0
sg7
I0
sg8
I0
sg9
I0
ss(I1
I1
I2
I1
I1
tp1888
(dp1889
g5
F2335.3664150760646
sg6
F2014.398168408834
sg7
I0
sg8
F2234.768485676989
sg9
F2326.153893649275
ss(I2
I1
I1
I1
I0
tp1890
(dp1891
g5
I0
sg6
I0
sg7
I0
sg8
I0
sg9
I0
ss(I1
I0
I1
I0
I0
tp1892
(dp1893
g5
I0
sg6
I0
sg7
I0
sg8
I0
sg9
I0
ss(I2
I2
I2
I0
I0
tp1894
(dp1895
g5
I0
sg6
I0
sg7
I0
sg8
I0
sg9
I0
ss(I0
I2
I0
I2
I1
tp1896
(dp1897
g5
F2487.571145621172
sg6
F2514.587616444606
sg7
I0
sg8
F2512.1264985020503
sg9
F2445.351010890338
ss(I0
I0
I0
I0
I1
tp1898
(dp1899
g5
F2561.025617966602
sg6
F2549.2807277854326
sg7
I0
sg8
F2544.3010133146495
sg9
F2560.354148820123
ss(I2
I2
I1
I1
I0
tp1900
(dp1901
g5
I0
sg6
I0
sg7
I0
sg8
I0
sg9
I0
ss(I0
I0
I1
I2
I1
tp1902
(dp1903
g5
F2538.6180505367174
sg6
F2184.256883746103
sg7
I0
sg8
F2355.1359182216856
sg9
F2380.412662735811
ss(I1
I2
I0
I1
I1
tp1904
(dp1905
g5
F2541.323328233842
sg6
F2539.7632011450314
sg7
I0
sg8
F2555.318825675128
sg9
F2540.383877869287
ss(I0
I0
I0
I2
I0
tp1906
(dp1907
g5
I0
sg6
I0
sg7
I0
sg8
I0
sg9
I0
ss(I2
I0
I2
I2
I0
tp1908
(dp1909
g5
I0
sg6
I0
sg7
I0
sg8
I0
sg9
I0
ss(I0
I1
I0
I1
I0
tp1910
(dp1911
g5
I0
sg6
I0
sg7
I0
sg8
I0
sg9
F555.1129212491026
ss(I1
I2
I1
I2
I1
tp1912
(dp1913
g5
F1211.9802866850432
sg6
F2274.8489474704934
sg7
I0
sg8
F1098.7900929431503
sg9
F1719.1678087915477
ss(I1
I2
I1
I1
I1
tp1914
(dp1915
g5
F2521.8058058131273
sg6
F2508.3179150370884
sg7
I0
sg8
F2488.4032590038237
sg9
F2534.9377092995733
ss(I0
I2
I1
I0
I0
tp1916
(dp1917
g5
I0
sg6
I0
sg7
I0
sg8
I0
sg9
I0
ss(I0
I1
I1
I2
I0
tp1918
(dp1919
g5
I0
sg6
I0
sg7
I0
sg8
I0
sg9
I0
ss(I2
I0
I0
I1
I0
tp1920
(dp1921
g5
I0
sg6
I0
sg7
I0
sg8
I0
sg9
I0
ss(I1
I1
I0
I0
I0
tp1922
(dp1923
g5
I0
sg6
F557.1235504129651
sg7
I0
sg8
I0
sg9
I0
ss(I1
I2
I2
I0
I1
tp1924
(dp1925
g5
F2444.6747543146066
sg6
F2048.654189971526
sg7
I0
sg8
F2293.388638683434
sg9
F2230.2246478274583
ss(I2
I1
I1
I2
I1
tp1926
(dp1927
g5
I0
sg6
I0
sg7
I0
sg8
F1513.9448246921595
sg9
I0
ss(I2
I0
I1
I2
I0
tp1928
(dp1929
g5
I0
sg6
I0
sg7
I0
sg8
I0
sg9
I0
ss(I0
I2
I1
I1
I0
tp1930
(dp1931
g5
I0
sg6
I0
sg7
I0
sg8
I0
sg9
I0
ss(I2
I1
I0
I1
I1
tp1932
(dp1933
g5
F2425.1716446025457
sg6
F2475.2336527497464
sg7
I0
sg8
F2426.4034066311256
sg9
F2439.492820204345
ss(I0
I0
I0
I0
I0
tp1934
(dp1935
g5
I0
sg6
I0
sg7
I0
sg8
I0
sg9
I0
ss(I2
I2
I2
I0
I1
tp1936
(dp1937
g5
F552.4364199778515
sg6
F1446.197417446754
sg7
I0
sg8
F415.0044718106399
sg9
F636.5606192907711
ss(I2
I1
I2
I0
I1
tp1938
(dp1939
g5
F876.3690102521505
sg6
F420.17436205570596
sg7
I0
sg8
I0
sg9
F1634.4378687220226
ss(I0
I2
I1
I2
I0
tp1940
(dp1941
g5
I0
sg6
I0
sg7
I0
sg8
I0
sg9
I0
ss(I2
I1
I1
I1
I1
tp1942
(dp1943
g5
F2481.8158088517503
sg6
F2378.318414534905
sg7
I0
sg8
F2151.6057375831956
sg9
F2302.028939508166
ss(I0
I0
I1
I0
I1
tp1944
(dp1945
g5
F2541.8712582175413
sg6
F2541.787448107835
sg7
I0
sg8
F2549.689135538314
sg9
F2564.833319128197
ss(I0
I2
I1
I0
I1
tp1946
(dp1947
g5
F2549.8724750911906
sg6
F2542.524137308228
sg7
I0
sg8
F2541.9806613435458
sg9
F2559.637217372965
ss(I2
I0
I2
I0
I0
tp1948
(dp1949
g5
I0
sg6
I0
sg7
I0
sg8
I0
sg9
I0
ss(I0
I0
I0
I1
I1
tp1950
(dp1951
g5
F2561.226806730754
sg6
F2547.658422392919
sg7
I0
sg8
F2545.808326393141
sg9
F2532.2247432785125
ss(I1
I2
I0
I1
I0
tp1952
(dp1953
g5
I0
sg6
I0
sg7
I0
sg8
I0
sg9
I0
ss(I2
I2
I2
I2
I1
tp1954
(dp1955
g5
I0
sg6
I0
sg7
I0
sg8
I0
sg9
I0
ss(I1
I0
I2
I0
I1
tp1956
(dp1957
g5
F2201.8710329798746
sg6
F2359.4778397260093
sg7
I0
sg8
F2308.72699577824
sg9
F2533.3282043404656
ssaa(lp1958
(dp1959
(I0
I2
I0
I1
I0
tp1960
(dp1961
g5
I0
sg6
I0
sg7
I0
sg8
I0
sg9
I0
ss(I2
I0
I1
I1
I1
tp1962
(dp1963
g5
I0
sg6
I0
sg7
I0
sg8
I0
sg9
I0
ss(I1
I2
I1
I2
I0
tp1964
(dp1965
g5
I0
sg6
I0
sg7
I0
sg8
I0
sg9
I0
ss(I2
I0
I0
I2
I1
tp1966
(dp1967
g5
F10.516901847139291
sg6
F10.586800722207947
sg7
F-18.84708773626083
sg8
F2.4826261283005406
sg9
I0
ss(I1
I0
I0
I2
I0
tp1968
(dp1969
g5
I0
sg6
I0
sg7
I0
sg8
I0
sg9
I0
ss(I2
I0
I0
I1
I1
tp1970
(dp1971
g5
F5.5747002840746145
sg6
F13.6832324465424
sg7
F-30.341013657113116
sg8
F-4.727901936169595
sg9
I0
ss(I0
I0
I0
I2
I1
tp1972
(dp1973
g5
F11.104047920573842
sg6
F0.7830800000512879
sg7
F-29.511126231897258
sg8
F0.9935286231966693
sg9
I0
ss(I2
I1
I1
I2
I0
tp1974
(dp1975
g5
I0
sg6
I0
sg7
I0
sg8
I0
sg9
I0
ss(I1
I0
I1
I1
I0
tp1976
(dp1977
g5
I0
sg6
I0
sg7
I0
sg8
I0
sg9
I0
ss(I2
I0
I1
I2
I1
tp1978
(dp1979
g5
I0
sg6
I0
sg7
I0
sg8
I0
sg9
I0
ss(I2
I2
I2
I1
I0
tp1980
(dp1981
g5
I0
sg6
I0
sg7
I0
sg8
I0
sg9
I0
ss(I2
I1
I0
I1
I0
tp1982
(dp1983
g5
I0
sg6
I0
sg7
I0
sg8
I0
sg9
I0
ss(I2
I2
I1
I0
I0
tp1984
(dp1985
g5
I0
sg6
I0
sg7
I0
sg8
I0
sg9
I0
ss(I0
I1
I2
I2
I0
tp1986
(dp1987
g5
I0
sg6
I0
sg7
I0
sg8
I0
sg9
I0
ss(I2
I2
I0
I0
I1
tp1988
(dp1989
g5
F-2.0212247265323944
sg6
F8.437362828742797
sg7
F-35.14515669532783
sg8
F9.894816723938153
sg9
I0
ss(I2
I2
I0
I2
I0
tp1990
(dp1991
g5
I0
sg6
I0
sg7
I0
sg8
I0
sg9
I0
ss(I1
I0
I0
I0
I1
tp1992
(dp1993
g5
F-0.09454323347312643
sg6
F4.895459138621095
sg7
F-27.381957400048897
sg8
F-0.9309548866598832
sg9
I0
ss(I0
I2
I1
I1
I1
tp1994
(dp1995
g5
I0
sg6
I0
sg7
I0
sg8
I0
sg9
I0
ss(I2
I0
I2
I0
I1
tp1996
(dp1997
g5
I0
sg6
I0
sg7
I0
sg8
I0
sg9
I0
ss(I1
I1
I0
I1
I0
tp1998
(dp1999
g5
I0
sg6
I0
sg7
I0
sg8
I0
sg9
I0
ss(I0
I2
I2
I0
I1
tp2000
(dp2001
g5
I0
sg6
I0
sg7
I0
sg8
I0
sg9
I0
ss(I2
I2
I1
I2
I1
tp2002
(dp2003
g5
I0
sg6
I0
sg7
I0
sg8
I0
sg9
I0
ss(I1
I0
I1
I2
I1
tp2004
(dp2005
g5
I0
sg6
I0
sg7
I0
sg8
I0
sg9
I0
ss(I0
I2
I0
I1
I1
tp2006
(dp2007
g5
F1.0955766713779655
sg6
F-2.5595958379932453
sg7
F-31.547779228335127
sg8
F6.748765806202934
sg9
I0
ss(I1
I1
I1
I2
I0
tp2008
(dp2009
g5
I0
sg6
I0
sg7
I0
sg8
I0
sg9
I0
ss(I1
I0
I0
I1
I1
tp2010
(dp2011
g5
F5.5792634378386845
sg6
F2.065942030771529
sg7
F-31.126404214269904
sg8
F-1.3488377189583103
sg9
I0
ss(I0
I2
I1
I2
I1
tp2012
(dp2013
g5
I0
sg6
I0
sg7
I0
sg8
I0
sg9
I0
ss(I0
I0
I2
I1
I0
tp2014
(dp2015
g5
I0
sg6
I0
sg7
I0
sg8
I0
sg9
I0
ss(I1
I0
I0
I2
I1
tp2016
(dp2017
g5
F8.63819290533063
sg6
F1.7342431983890143
sg7
F-29.310041580286498
sg8
F-2.4938563465720787
sg9
I0
ss(I2
I0
I1
I1
I0
tp2018
(dp2019
g5
I0
sg6
I0
sg7
I0
sg8
I0
sg9
I0
ss(I2
I2
I0
I0
I0
tp2020
(dp2021
g5
I0
sg6
I0
sg7
I0
sg8
I0
sg9
I0
ss(I0
I0
I1
I0
I0
tp2022
(dp2023
g5
I0
sg6
I0
sg7
I0
sg8
I0
sg9
I0
ss(I1
I0
I1
I1
I1
tp2024
(dp2025
g5
I0
sg6
I0
sg7
I0
sg8
I0
sg9
I0
ss(I2
I2
I2
I1
I1
tp2026
(dp2027
g5
I0
sg6
I0
sg7
I0
sg8
I0
sg9
I0
ss(I2
I2
I1
I0
I1
tp2028
(dp2029
g5
I0
sg6
I0
sg7
I0
sg8
I0
sg9
I0
ss(I1
I2
I2
I2
I1
tp2030
(dp2031
g5
I0
sg6
I0
sg7
I0
sg8
I0
sg9
I0
ss(I0
I1
I1
I0
I1
tp2032
(dp2033
g5
I0
sg6
I0
sg7
I0
sg8
I0
sg9
I0
ss(I1
I2
I2
I2
I0
tp2034
(dp2035
g5
I0
sg6
I0
sg7
I0
sg8
I0
sg9
I0
ss(I0
I1
I2
I1
I1
tp2036
(dp2037
g5
I0
sg6
I0
sg7
I0
sg8
I0
sg9
I0
ss(I1
I1
I1
I1
I1
tp2038
(dp2039
g5
I0
sg6
I0
sg7
I0
sg8
I0
sg9
I0
ss(I0
I1
I0
I0
I1
tp2040
(dp2041
g5
F-0.9185164079211539
sg6
F-0.46546310230149346
sg7
F-30.430403501037787
sg8
F4.355003327935483
sg9
I0
ss(I1
I0
I0
I0
I0
tp2042
(dp2043
g5
I0
sg6
I0
sg7
I0
sg8
I0
sg9
I0
ss(I1
I1
I0
I2
I1
tp2044
(dp2045
g5
F5.60753537158509
sg6
F-0.8931279703802479
sg7
F-33.665176795711425
sg8
F1.3673436931664764
sg9
I0
ss(I0
I0
I1
I2
I0
tp2046
(dp2047
g5
I0
sg6
I0
sg7
I0
sg8
I0
sg9
I0
ss(I1
I1
I0
I1
I1
tp2048
(dp2049
g5
F0.4597606218687264
sg6
F0.7187417956481196
sg7
F-32.14855901239656
sg8
F1.458707543942836
sg9
I0
ss(I1
I2
I0
I0
I0
tp2050
(dp2051
g5
I0
sg6
I0
sg7
I0
sg8
I0
sg9
I0
ss(I0
I0
I1
I1
I1
tp2052
(dp2053
g5
I0
sg6
I0
sg7
I0
sg8
I0
sg9
I0
ss(I0
I2
I2
I0
I0
tp2054
(dp2055
g5
I0
sg6
I0
sg7
I0
sg8
I0
sg9
I0
ss(I1
I0
I1
I2
I0
tp2056
(dp2057
g5
I0
sg6
I0
sg7
I0
sg8
I0
sg9
I0
ss(I1
I1
I1
I2
I1
tp2058
(dp2059
g5
I0
sg6
I0
sg7
I0
sg8
I0
sg9
I0
ss(I2
I1
I0
I0
I0
tp2060
(dp2061
g5
I0
sg6
I0
sg7
I0
sg8
I0
sg9
I0
ss(I1
I0
I0
I1
I0
tp2062
(dp2063
g5
I0
sg6
I0
sg7
I0
sg8
I0
sg9
I0
ss(I0
I0
I2
I1
I1
tp2064
(dp2065
g5
I0
sg6
I0
sg7
I0
sg8
I0
sg9
I0
ss(I1
I1
I2
I2
I0
tp2066
(dp2067
g5
I0
sg6
I0
sg7
I0
sg8
I0
sg9
I0
ss(I2
I2
I2
I2
I0
tp2068
(dp2069
g5
I0
sg6
I0
sg7
I0
sg8
I0
sg9
I0
ss(I1
I2
I0
I2
I1
tp2070
(dp2071
g5
F8.598681902293364
sg6
F0.2670953224378414
sg7
F-27.056614293444902
sg8
F5.261946386297854
sg9
I0
ss(I1
I2
I1
I0
I1
tp2072
(dp2073
g5
I0
sg6
I0
sg7
I0
sg8
I0
sg9
I0
ss(I0
I1
I1
I0
I0
tp2074
(dp2075
g5
I0
sg6
I0
sg7
I0
sg8
I0
sg9
I0
ss(I1
I2
I2
I1
I1
tp2076
(dp2077
g5
I0
sg6
I0
sg7
I0
sg8
I0
sg9
I0
ss(I1
I2
I0
I0
I1
tp2078
(dp2079
g5
F-2.684667837014309
sg6
F1.7357827390665435
sg7
F-32.32219031815883
sg8
F7.524520267668046
sg9
I0
ss(I0
I0
I1
I1
I0
tp2080
(dp2081
g5
I0
sg6
I0
sg7
I0
sg8
I0
sg9
I0
ss(I0
I1
I2
I1
I0
tp2082
(dp2083
g5
I0
sg6
I0
sg7
I0
sg8
I0
sg9
I0
ss(I2
I0
I1
I0
I0
tp2084
(dp2085
g5
I0
sg6
I0
sg7
I0
sg8
I0
sg9
I0
ss(I1
I1
I1
I1
I0
tp2086
(dp2087
g5
I0
sg6
I0
sg7
I0
sg8
I0
sg9
I0
ss(I2
I1
I2
I2
I0
tp2088
(dp2089
g5
I0
sg6
I0
sg7
I0
sg8
I0
sg9
I0
ss(I0
I0
I0
I1
I0
tp2090
(dp2091
g5
I0
sg6
I0
sg7
I0
sg8
I0
sg9
I0
ss(I2
I1
I2
I1
I1
tp2092
(dp2093
g5
I0
sg6
I0
sg7
I0
sg8
I0
sg9
I0
ss(I2
I0
I2
I1
I0
tp2094
(dp2095
g5
I0
sg6
I0
sg7
I0
sg8
I0
sg9
I0
ss(I1
I1
I0
I2
I0
tp2096
(dp2097
g5
I0
sg6
I0
sg7
I0
sg8
I0
sg9
I0
ss(I2
I1
I0
I2
I0
tp2098
(dp2099
g5
I0
sg6
I0
sg7
I0
sg8
I0
sg9
I0
ss(I2
I1
I1
I0
I1
tp2100
(dp2101
g5
I0
sg6
I0
sg7
I0
sg8
I0
sg9
I0
ss(I1
I1
I2
I0
I0
tp2102
(dp2103
g5
I0
sg6
I0
sg7
I0
sg8
I0
sg9
I0
ss(I0
I0
I2
I2
I0
tp2104
(dp2105
g5
I0
sg6
I0
sg7
I0
sg8
I0
sg9
I0
ss(I0
I2
I0
I0
I0
tp2106
(dp2107
g5
I0
sg6
I0
sg7
I0
sg8
I0
sg9
I0
ss(I1
I1
I2
I2
I1
tp2108
(dp2109
g5
I0
sg6
I0
sg7
I0
sg8
I0
sg9
I0
ss(I0
I1
I2
I2
I1
tp2110
(dp2111
g5
I0
sg6
I0
sg7
I0
sg8
I0
sg9
I0
ss(I1
I2
I0
I2
I0
tp2112
(dp2113
g5
I0
sg6
I0
sg7
I0
sg8
I0
sg9
I0
ss(I1
I2
I1
I0
I0
tp2114
(dp2115
g5
I0
sg6
I0
sg7
I0
sg8
I0
sg9
I0
ss(I2
I0
I0
I0
I1
tp2116
(dp2117
g5
F-0.954045458656618
sg6
F10.756194651566021
sg7
F-29.257806895028775
sg8
F0.9644141670998947
sg9
I0
ss(I2
I1
I0
I2
I1
tp2118
(dp2119
g5
F4.612334317625016
sg6
F2.80949154637144
sg7
F-14.174683457066884
sg8
I0
sg9
I0
ss(I1
I2
I2
I1
I0
tp2120
(dp2121
g5
I0
sg6
I0
sg7
I0
sg8
I0
sg9
I0
ss(I0
I2
I2
I1
I0
tp2122
(dp2123
g5
I0
sg6
I0
sg7
I0
sg8
I0
sg9
I0
ss(I2
I0
I1
I0
I1
tp2124
(dp2125
g5
I0
sg6
I0
sg7
I0
sg8
I0
sg9
I0
ss(I2
I1
I2
I1
I0
tp2126
(dp2127
g5
I0
sg6
I0
sg7
I0
sg8
I0
sg9
I0
ss(I1
I0
I2
I2
I0
tp2128
(dp2129
g5
I0
sg6
I0
sg7
I0
sg8
I0
sg9
I0
ss(I2
I0
I2
I1
I1
tp2130
(dp2131
g5
I0
sg6
I0
sg7
I0
sg8
I0
sg9
I0
ss(I2
I2
I1
I2
I0
tp2132
(dp2133
g5
I0
sg6
I0
sg7
I0
sg8
I0
sg9
I0
ss(I2
I1
I1
I0
I0
tp2134
(dp2135
g5
I0
sg6
I0
sg7
I0
sg8
I0
sg9
I0
ss(I2
I2
I0
I1
I0
tp2136
(dp2137
g5
I0
sg6
I0
sg7
I0
sg8
I0
sg9
I0
ss(I1
I1
I2
I0
I1
tp2138
(dp2139
g5
I0
sg6
I0
sg7
I0
sg8
I0
sg9
I0
ss(I2
I1
I0
I0
I1
tp2140
(dp2141
g5
F-2.574052069236244
sg6
F9.077857242375874
sg7
F-32.8889278564714
sg8
F1.6116647148807783
sg9
I0
ss(I0
I1
I2
I0
I1
tp2142
(dp2143
g5
I0
sg6
I0
sg7
I0
sg8
I0
sg9
I0
ss(I0
I1
I1
I1
I0
tp2144
(dp2145
g5
I0
sg6
I0
sg7
I0
sg8
I0
sg9
I0
ss(I0
I1
I0
I0
I0
tp2146
(dp2147
g5
I0
sg6
I0
sg7
I0
sg8
I0
sg9
I0
ss(I0
I2
I0
I0
I1
tp2148
(dp2149
g5
F-1.7735113806107945
sg6
F-1.8337176206997448
sg7
F-33.14980562961466
sg8
F8.205412862165591
sg9
I0
ss(I0
I1
I2
I0
I0
tp2150
(dp2151
g5
I0
sg6
I0
sg7
I0
sg8
I0
sg9
I0
ss(I1
I1
I1
I0
I0
tp2152
(dp2153
g5
I0
sg6
I0
sg7
I0
sg8
I0
sg9
I0
ss(I1
I0
I2
I1
I1
tp2154
(dp2155
g5
I0
sg6
I0
sg7
I0
sg8
I0
sg9
I0
ss(I2
I0
I0
I0
I0
tp2156
(dp2157
g5
I0
sg6
I0
sg7
I0
sg8
I0
sg9
I0
ss(I1
I1
I2
I1
I0
tp2158
(dp2159
g5
I0
sg6
I0
sg7
I0
sg8
I0
sg9
I0
ss(I1
I0
I2
I0
I0
tp2160
(dp2161
g5
I0
sg6
I0
sg7
I0
sg8
I0
sg9
I0
ss(I1
I0
I1
I0
I1
tp2162
(dp2163
g5
I0
sg6
I0
sg7
I0
sg8
I0
sg9
I0
ss(I2
I1
I2
I2
I1
tp2164
(dp2165
g5
I0
sg6
I0
sg7
I0
sg8
I0
sg9
I0
ss(I2
I2
I0
I2
I1
tp2166
(dp2167
g5
I0
sg6
I0
sg7
I0
sg8
I0
sg9
I0
ss(I0
I2
I2
I1
I1
tp2168
(dp2169
g5
I0
sg6
I0
sg7
I0
sg8
I0
sg9
I0
ss(I0
I2
I0
I2
I0
tp2170
(dp2171
g5
I0
sg6
I0
sg7
I0
sg8
I0
sg9
I0
ss(I2
I2
I1
I1
I1
tp2172
(dp2173
g5
I0
sg6
I0
sg7
I0
sg8
I0
sg9
I0
ss(I1
I0
I2
I2
I1
tp2174
(dp2175
g5
I0
sg6
I0
sg7
I0
sg8
I0
sg9
I0
ss(I2
I1
I2
I0
I0
tp2176
(dp2177
g5
I0
sg6
I0
sg7
I0
sg8
I0
sg9
I0
ss(I0
I2
I2
I2
I1
tp2178
(dp2179
g5
I0
sg6
I0
sg7
I0
sg8
I0
sg9
I0
ss(I2
I2
I0
I1
I1
tp2180
(dp2181
g5
F3.2612849623858073
sg6
F7.895329950866543
sg7
F-25.32660492396963
sg8
F3.2997651874087692
sg9
I0
ss(I2
I0
I2
I2
I1
tp2182
(dp2183
g5
I0
sg6
I0
sg7
I0
sg8
I0
sg9
I0
ss(I0
I1
I0
I1
I1
tp2184
(dp2185
g5
F3.4883630990680183
sg6
F-1.6860986709985661
sg7
F-32.61868304472153
sg8
F3.7000154995336345
sg9
I0
ss(I1
I2
I1
I1
I0
tp2186
(dp2187
g5
I0
sg6
I0
sg7
I0
sg8
I0
sg9
I0
ss(I0
I1
I0
I2
I0
tp2188
(dp2189
g5
I0
sg6
I0
sg7
I0
sg8
I0
sg9
I0
ss(I0
I0
I2
I2
I1
tp2190
(dp2191
g5
I0
sg6
I0
sg7
I0
sg8
I0
sg9
I0
ss(I0
I1
I1
I2
I1
tp2192
(dp2193
g5
I0
sg6
I0
sg7
I0
sg8
I0
sg9
I0
ss(I1
I1
I0
I0
I1
tp2194
(dp2195
g5
F2.172675797168372
sg6
F2.4075633781893213
sg7
F-30.663384473538855
sg8
F4.951946564891989
sg9
I0
ss(I0
I1
I1
I1
I1
tp2196
(dp2197
g5
I0
sg6
I0
sg7
I0
sg8
I0
sg9
I0
ss(I1
I2
I2
I0
I0
tp2198
(dp2199
g5
I0
sg6
I0
sg7
I0
sg8
I0
sg9
I0
ss(I0
I0
I2
I0
I0
tp2200
(dp2201
g5
I0
sg6
I0
sg7
I0
sg8
I0
sg9
I0
ss(I0
I2
I2
I2
I0
tp2202
(dp2203
g5
I0
sg6
I0
sg7
I0
sg8
I0
sg9
I0
ss(I0
I1
I0
I2
I1
tp2204
(dp2205
g5
F8.17698205188587
sg6
F-0.713309056344043
sg7
F-33.34396262590076
sg8
F3.551901643014129
sg9
I0
ss(I1
I1
I1
I0
I1
tp2206
(dp2207
g5
I0
sg6
I0
sg7
I0
sg8
I0
sg9
I0
ss(I0
I0
I2
I0
I1
tp2208
(dp2209
g5
I0
sg6
I0
sg7
I0
sg8
I0
sg9
I0
ss(I1
I0
I2
I1
I0
tp2210
(dp2211
g5
I0
sg6
I0
sg7
I0
sg8
I0
sg9
I0
ss(I2
I0
I0
I2
I0
tp2212
(dp2213
g5
I0
sg6
I0
sg7
I0
sg8
I0
sg9
I0
ss(I1
I1
I2
I1
I1
tp2214
(dp2215
g5
I0
sg6
I0
sg7
I0
sg8
I0
sg9
I0
ss(I2
I1
I1
I1
I0
tp2216
(dp2217
g5
I0
sg6
I0
sg7
I0
sg8
I0
sg9
I0
ss(I1
I0
I1
I0
I0
tp2218
(dp2219
g5
I0
sg6
I0
sg7
I0
sg8
I0
sg9
I0
ss(I2
I2
I2
I0
I0
tp2220
(dp2221
g5
I0
sg6
I0
sg7
I0
sg8
I0
sg9
I0
ss(I0
I2
I0
I2
I1
tp2222
(dp2223
g5
F7.4279100801058116
sg6
F-5.551255646906518
sg7
F-25.853143624053555
sg8
F6.554584306314005
sg9
I0
ss(I0
I0
I0
I0
I1
tp2224
(dp2225
g5
F0.6563340216334184
sg6
F2.5743532875715607
sg7
F-28.963222804230394
sg8
F0.7950341043357595
sg9
I0
ss(I2
I2
I1
I1
I0
tp2226
(dp2227
g5
I0
sg6
I0
sg7
I0
sg8
I0
sg9
I0
ss(I0
I0
I1
I2
I1
tp2228
(dp2229
g5
I0
sg6
I0
sg7
I0
sg8
I0
sg9
I0
ss(I1
I2
I0
I1
I1
tp2230
(dp2231
g5
F0.3694562705427422
sg6
F0.15688287340601903
sg7
F-37.190126472216235
sg8
F5.267774463334104
sg9
I0
ss(I0
I0
I0
I2
I0
tp2232
(dp2233
g5
I0
sg6
I0
sg7
I0
sg8
I0
sg9
I0
ss(I2
I0
I2
I2
I0
tp2234
(dp2235
g5
I0
sg6
I0
sg7
I0
sg8
I0
sg9
I0
ss(I0
I1
I0
I1
I0
tp2236
(dp2237
g5
I0
sg6
I0
sg7
I0
sg8
I0
sg9
I0
ss(I1
I2
I1
I2
I1
tp2238
(dp2239
g5
I0
sg6
I0
sg7
I0
sg8
I0
sg9
I0
ss(I1
I2
I1
I1
I1
tp2240
(dp2241
g5
I0
sg6
I0
sg7
I0
sg8
I0
sg9
I0
ss(I0
I2
I1
I0
I0
tp2242
(dp2243
g5
I0
sg6
I0
sg7
I0
sg8
I0
sg9
I0
ss(I0
I1
I1
I2
I0
tp2244
(dp2245
g5
I0
sg6
I0
sg7
I0
sg8
I0
sg9
I0
ss(I2
I0
I0
I1
I0
tp2246
(dp2247
g5
I0
sg6
I0
sg7
I0
sg8
I0
sg9
I0
ss(I1
I1
I0
I0
I0
tp2248
(dp2249
g5
I0
sg6
I0
sg7
I0
sg8
I0
sg9
I0
ss(I1
I2
I2
I0
I1
tp2250
(dp2251
g5
I0
sg6
I0
sg7
I0
sg8
I0
sg9
I0
ss(I2
I1
I1
I2
I1
tp2252
(dp2253
g5
I0
sg6
I0
sg7
I0
sg8
I0
sg9
I0
ss(I2
I0
I1
I2
I0
tp2254
(dp2255
g5
I0
sg6
I0
sg7
I0
sg8
I0
sg9
I0
ss(I0
I2
I1
I1
I0
tp2256
(dp2257
g5
I0
sg6
I0
sg7
I0
sg8
I0
sg9
I0
ss(I2
I1
I0
I1
I1
tp2258
(dp2259
g5
F1.7151535436217396
sg6
F8.205071216349456
sg7
F-33.964897363950676
sg8
F3.0127696304276608
sg9
I0
ss(I0
I0
I0
I0
I0
tp2260
(dp2261
g5
I0
sg6
I0
sg7
I0
sg8
I0
sg9
I0
ss(I2
I2
I2
I0
I1
tp2262
(dp2263
g5
I0
sg6
I0
sg7
I0
sg8
I0
sg9
I0
ss(I2
I1
I2
I0
I1
tp2264
(dp2265
g5
I0
sg6
I0
sg7
I0
sg8
I0
sg9
I0
ss(I0
I2
I1
I2
I0
tp2266
(dp2267
g5
I0
sg6
I0
sg7
I0
sg8
I0
sg9
I0
ss(I2
I1
I1
I1
I1
tp2268
(dp2269
g5
I0
sg6
I0
sg7
I0
sg8
I0
sg9
I0
ss(I0
I0
I1
I0
I1
tp2270
(dp2271
g5
I0
sg6
I0
sg7
I0
sg8
I0
sg9
I0
ss(I0
I2
I1
I0
I1
tp2272
(dp2273
g5
I0
sg6
I0
sg7
I0
sg8
I0
sg9
I0
ss(I2
I0
I2
I0
I0
tp2274
(dp2275
g5
I0
sg6
I0
sg7
I0
sg8
I0
sg9
I0
ss(I0
I0
I0
I1
I1
tp2276
(dp2277
g5
F4.018092594811676
sg6
F0.33167356181244545
sg7
F-31.365803910304187
sg8
F-0.5255471177717627
sg9
I0
ss(I1
I2
I0
I1
I0
tp2278
(dp2279
g5
I0
sg6
I0
sg7
I0
sg8
I0
sg9
I0
ss(I2
I2
I2
I2
I1
tp2280
(dp2281
g5
I0
sg6
I0
sg7
I0
sg8
I0
sg9
I0
ss(I1
I0
I2
I0
I1
tp2282
(dp2283
g5
I0
sg6
I0
sg7
I0
sg8
I0
sg9
I0
ssa(dp2284
(I0
I2
I0
I1
I0
tp2285
(dp2286
g5
I0
sg6
I0
sg7
I0
sg8
I0
sg9
I0
ss(I2
I0
I1
I1
I1
tp2287
(dp2288
g5
I0
sg6
I0
sg7
I0
sg8
I0
sg9
I0
ss(I1
I2
I1
I2
I0
tp2289
(dp2290
g5
I0
sg6
I0
sg7
I0
sg8
I0
sg9
I0
ss(I2
I0
I0
I2
I1
tp2291
(dp2292
g5
I0
sg6
I0
sg7
I0
sg8
I0
sg9
I0
ss(I1
I0
I0
I2
I0
tp2293
(dp2294
g5
I0
sg6
I0
sg7
I0
sg8
I0
sg9
I0
ss(I2
I0
I0
I1
I1
tp2295
(dp2296
g5
I0
sg6
I0
sg7
I0
sg8
I0
sg9
I0
ss(I0
I0
I0
I2
I1
tp2297
(dp2298
g5
I0
sg6
I0
sg7
I0
sg8
I0
sg9
I0
ss(I2
I1
I1
I2
I0
tp2299
(dp2300
g5
I0
sg6
I0
sg7
I0
sg8
I0
sg9
I0
ss(I1
I0
I1
I1
I0
tp2301
(dp2302
g5
I0
sg6
I0
sg7
I0
sg8
I0
sg9
I0
ss(I2
I0
I1
I2
I1
tp2303
(dp2304
g5
I0
sg6
I0
sg7
I0
sg8
I0
sg9
I0
ss(I2
I2
I2
I1
I0
tp2305
(dp2306
g5
I0
sg6
I0
sg7
I0
sg8
I0
sg9
I0
ss(I2
I1
I0
I1
I0
tp2307
(dp2308
g5
I0
sg6
I0
sg7
I0
sg8
I0
sg9
I0
ss(I2
I2
I1
I0
I0
tp2309
(dp2310
g5
I0
sg6
I0
sg7
I0
sg8
I0
sg9
I0
ss(I0
I1
I2
I2
I0
tp2311
(dp2312
g5
I0
sg6
I0
sg7
I0
sg8
I0
sg9
I0
ss(I2
I2
I0
I0
I1
tp2313
(dp2314
g5
I0
sg6
F1652.2270398011822
sg7
F1245.3435510353047
sg8
F1847.0419170638038
sg9
F1163.0294661162832
ss(I2
I2
I0
I2
I0
tp2315
(dp2316
g5
I0
sg6
I0
sg7
I0
sg8
I0
sg9
I0
ss(I1
I0
I0
I0
I1
tp2317
(dp2318
g5
I0
sg6
F1921.1318590768076
sg7
F1843.30677473625
sg8
F1891.5455314154267
sg9
F1900.1896531922039
ss(I0
I2
I1
I1
I1
tp2319
(dp2320
g5
I0
sg6
I0
sg7
I0
sg8
I0
sg9
I0
ss(I2
I0
I2
I0
I1
tp2321
(dp2322
g5
I0
sg6
F1736.8387451844296
sg7
F1513.7049911800711
sg8
F1782.6966960975567
sg9
F1791.2467821947462
ss(I1
I1
I0
I1
I0
tp2323
(dp2324
g5
I0
sg6
I0
sg7
I0
sg8
I0
sg9
I0
ss(I0
I2
I2
I0
I1
tp2325
(dp2326
g5
I0
sg6
F1879.2079174826913
sg7
F1853.4107434394368
sg8
F1899.4703793664955
sg9
F1891.2266244050563
ss(I2
I2
I1
I2
I1
tp2327
(dp2328
g5
I0
sg6
I0
sg7
I0
sg8
I0
sg9
I0
ss(I1
I0
I1
I2
I1
tp2329
(dp2330
g5
I0
sg6
I0
sg7
I0
sg8
I0
sg9
I0
ss(I0
I2
I0
I1
I1
tp2331
(dp2332
g5
I0
sg6
I0
sg7
I0
sg8
I0
sg9
I0
ss(I1
I1
I1
I2
I0
tp2333
(dp2334
g5
I0
sg6
I0
sg7
I0
sg8
I0
sg9
I0
ss(I1
I0
I0
I1
I1
tp2335
(dp2336
g5
I0
sg6
I0
sg7
I0
sg8
I0
sg9
I0
ss(I0
I2
I1
I2
I1
tp2337
(dp2338
g5
I0
sg6
I0
sg7
I0
sg8
I0
sg9
I0
ss(I0
I0
I2
I1
I0
tp2339
(dp2340
g5
I0
sg6
I0
sg7
I0
sg8
I0
sg9
I0
ss(I1
I0
I0
I2
I1
tp2341
(dp2342
g5
I0
sg6
I0
sg7
I0
sg8
I0
sg9
I0
ss(I2
I0
I1
I1
I0
tp2343
(dp2344
g5
I0
sg6
I0
sg7
I0
sg8
I0
sg9
I0
ss(I2
I2
I0
I0
I0
tp2345
(dp2346
g5
I0
sg6
I0
sg7
I0
sg8
I0
sg9
I0
ss(I0
I0
I1
I0
I0
tp2347
(dp2348
g5
I0
sg6
I0
sg7
I0
sg8
I0
sg9
I0
ss(I1
I0
I1
I1
I1
tp2349
(dp2350
g5
I0
sg6
I0
sg7
I0
sg8
I0
sg9
I0
ss(I2
I2
I2
I1
I1
tp2351
(dp2352
g5
I0
sg6
I0
sg7
I0
sg8
I0
sg9
I0
ss(I2
I2
I1
I0
I1
tp2353
(dp2354
g5
I0
sg6
F1698.019569591511
sg7
F1429.4115615076796
sg8
F1723.1836499563658
sg9
F1465.4040551993724
ss(I1
I2
I2
I2
I1
tp2355
(dp2356
g5
I0
sg6
I0
sg7
I0
sg8
I0
sg9
I0
ss(I0
I1
I1
I0
I1
tp2357
(dp2358
g5
I0
sg6
F1913.986946454842
sg7
F1884.064821391852
sg8
F1919.3534102717576
sg9
F1920.5052887669308
ss(I1
I2
I2
I2
I0
tp2359
(dp2360
g5
I0
sg6
I0
sg7
I0
sg8
I0
sg9
I0
ss(I0
I1
I2
I1
I1
tp2361
(dp2362
g5
I0
sg6
I0
sg7
I0
sg8
I0
sg9
I0
ss(I1
I1
I1
I1
I1
tp2363
(dp2364
g5
I0
sg6
I0
sg7
I0
sg8
I0
sg9
I0
ss(I0
I1
I0
I0
I1
tp2365
(dp2366
g5
I0
sg6
F1901.8250426116635
sg7
F1878.868001347491
sg8
F1921.4805495005266
sg9
F1914.1621869106598
ss(I1
I0
I0
I0
I0
tp2367
(dp2368
g5
I0
sg6
I0
sg7
I0
sg8
I0
sg9
I0
ss(I1
I1
I0
I2
I1
tp2369
(dp2370
g5
I0
sg6
I0
sg7
I0
sg8
I0
sg9
I0
ss(I0
I0
I1
I2
I0
tp2371
(dp2372
g5
I0
sg6
I0
sg7
I0
sg8
I0
sg9
I0
ss(I1
I1
I0
I1
I1
tp2373
(dp2374
g5
I0
sg6
I0
sg7
I0
sg8
I0
sg9
I0
ss(I1
I2
I0
I0
I0
tp2375
(dp2376
g5
I0
sg6
I0
sg7
I0
sg8
I0
sg9
I0
ss(I0
I0
I1
I1
I1
tp2377
(dp2378
g5
I0
sg6
I0
sg7
I0
sg8
I0
sg9
I0
ss(I0
I2
I2
I0
I0
tp2379
(dp2380
g5
I0
sg6
I0
sg7
I0
sg8
I0
sg9
I0
ss(I1
I0
I1
I2
I0
tp2381
(dp2382
g5
I0
sg6
I0
sg7
I0
sg8
I0
sg9
I0
ss(I1
I1
I1
I2
I1
tp2383
(dp2384
g5
I0
sg6
I0
sg7
I0
sg8
I0
sg9
I0
ss(I2
I1
I0
I0
I0
tp2385
(dp2386
g5
I0
sg6
I0
sg7
I0
sg8
I0
sg9
I0
ss(I1
I0
I0
I1
I0
tp2387
(dp2388
g5
I0
sg6
I0
sg7
I0
sg8
I0
sg9
I0
ss(I0
I0
I2
I1
I1
tp2389
(dp2390
g5
I0
sg6
I0
sg7
I0
sg8
I0
sg9
I0
ss(I1
I1
I2
I2
I0
tp2391
(dp2392
g5
I0
sg6
I0
sg7
I0
sg8
I0
sg9
I0
ss(I2
I2
I2
I2
I0
tp2393
(dp2394
g5
I0
sg6
I0
sg7
I0
sg8
I0
sg9
I0
ss(I1
I2
I0
I2
I1
tp2395
(dp2396
g5
I0
sg6
I0
sg7
I0
sg8
I0
sg9
I0
ss(I1
I2
I1
I0
I1
tp2397
(dp2398
g5
I0
sg6
F1870.1675266295663
sg7
F1854.53130110158
sg8
F1895.772051225233
sg9
F1895.9685458208596
ss(I0
I1
I1
I0
I0
tp2399
(dp2400
g5
I0
sg6
I0
sg7
I0
sg8
I0
sg9
I0
ss(I1
I2
I2
I1
I1
tp2401
(dp2402
g5
I0
sg6
I0
sg7
I0
sg8
I0
sg9
I0
ss(I1
I2
I0
I0
I1
tp2403
(dp2404
g5
I0
sg6
F1866.6250469773452
sg7
F1802.7834202636486
sg8
F1909.0653390386374
sg9
F1809.2267782337844
ss(I0
I0
I1
I1
I0
tp2405
(dp2406
g5
I0
sg6
I0
sg7
I0
sg8
I0
sg9
I0
ss(I0
I1
I2
I1
I0
tp2407
(dp2408
g5
I0
sg6
I0
sg7
I0
sg8
I0
sg9
I0
ss(I2
I0
I1
I0
I0
tp2409
(dp2410
g5
I0
sg6
I0
sg7
I0
sg8
I0
sg9
I0
ss(I1
I1
I1
I1
I0
tp2411
(dp2412
g5
I0
sg6
I0
sg7
I0
sg8
I0
sg9
I0
ss(I2
I1
I2
I2
I0
tp2413
(dp2414
g5
I0
sg6
I0
sg7
I0
sg8
I0
sg9
I0
ss(I0
I0
I0
I1
I0
tp2415
(dp2416
g5
I0
sg6
I0
sg7
I0
sg8
I0
sg9
I0
ss(I2
I1
I2
I1
I1
tp2417
(dp2418
g5
I0
sg6
I0
sg7
I0
sg8
I0
sg9
I0
ss(I2
I0
I2
I1
I0
tp2419
(dp2420
g5
I0
sg6
I0
sg7
I0
sg8
I0
sg9
I0
ss(I1
I1
I0
I2
I0
tp2421
(dp2422
g5
I0
sg6
I0
sg7
I0
sg8
I0
sg9
I0
ss(I2
I1
I0
I2
I0
tp2423
(dp2424
g5
I0
sg6
I0
sg7
I0
sg8
I0
sg9
I0
ss(I2
I1
I1
I0
I1
tp2425
(dp2426
g5
I0
sg6
F1905.4756197063994
sg7
F1831.6997602304446
sg8
F1893.1291868106
sg9
F1881.8673916567604
ss(I1
I1
I2
I0
I0
tp2427
(dp2428
g5
I0
sg6
I0
sg7
I0
sg8
I0
sg9
I0
ss(I0
I0
I2
I2
I0
tp2429
(dp2430
g5
I0
sg6
I0
sg7
I0
sg8
I0
sg9
I0
ss(I0
I2
I0
I0
I0
tp2431
(dp2432
g5
I0
sg6
I0
sg7
I0
sg8
I0
sg9
I0
ss(I1
I1
I2
I2
I1
tp2433
(dp2434
g5
I0
sg6
I0
sg7
I0
sg8
I0
sg9
I0
ss(I0
I1
I2
I2
I1
tp2435
(dp2436
g5
I0
sg6
I0
sg7
I0
sg8
I0
sg9
I0
ss(I1
I2
I0
I2
I0
tp2437
(dp2438
g5
I0
sg6
I0
sg7
I0
sg8
I0
sg9
I0
ss(I1
I2
I1
I0
I0
tp2439
(dp2440
g5
I0
sg6
I0
sg7
I0
sg8
I0
sg9
I0
ss(I2
I0
I0
I0
I1
tp2441
(dp2442
g5
I0
sg6
F1884.8601081143872
sg7
F1380.497640917783
sg8
F1563.463224686729
sg9
F1680.0905824886215
ss(I2
I1
I0
I2
I1
tp2443
(dp2444
g5
I0
sg6
I0
sg7
I0
sg8
I0
sg9
I0
ss(I1
I2
I2
I1
I0
tp2445
(dp2446
g5
I0
sg6
I0
sg7
I0
sg8
I0
sg9
I0
ss(I0
I2
I2
I1
I0
tp2447
(dp2448
g5
I0
sg6
I0
sg7
I0
sg8
I0
sg9
I0
ss(I2
I0
I1
I0
I1
tp2449
(dp2450
g5
I0
sg6
F1802.8267739455796
sg7
F1816.9065460839038
sg8
F1766.5610681544717
sg9
F1838.1092219872053
ss(I2
I1
I2
I1
I0
tp2451
(dp2452
g5
I0
sg6
I0
sg7
I0
sg8
I0
sg9
I0
ss(I1
I0
I2
I2
I0
tp2453
(dp2454
g5
I0
sg6
I0
sg7
I0
sg8
I0
sg9
I0
ss(I2
I0
I2
I1
I1
tp2455
(dp2456
g5
I0
sg6
I0
sg7
I0
sg8
I0
sg9
I0
ss(I2
I2
I1
I2
I0
tp2457
(dp2458
g5
I0
sg6
I0
sg7
I0
sg8
I0
sg9
I0
ss(I2
I1
I1
I0
I0
tp2459
(dp2460
g5
I0
sg6
I0
sg7
I0
sg8
I0
sg9
I0
ss(I2
I2
I0
I1
I0
tp2461
(dp2462
g5
I0
sg6
I0
sg7
I0
sg8
I0
sg9
I0
ss(I1
I1
I2
I0
I1
tp2463
(dp2464
g5
I0
sg6
F1917.6327167872867
sg7
F1880.4181298207416
sg8
F1914.6502659324497
sg9
F1907.0051587996104
ss(I2
I1
I0
I0
I1
tp2465
(dp2466
g5
I0
sg6
F1919.513782658771
sg7
F1851.7201878389674
sg8
F1835.7434201311287
sg9
F1882.6833776238823
ss(I0
I1
I2
I0
I1
tp2467
(dp2468
g5
I0
sg6
F1912.7914316690499
sg7
F1881.577219301896
sg8
F1918.2620720321124
sg9
F1923.3088254561776
ss(I0
I1
I1
I1
I0
tp2469
(dp2470
g5
I0
sg6
I0
sg7
I0
sg8
I0
sg9
I0
ss(I0
I1
I0
I0
I0
tp2471
(dp2472
g5
I0
sg6
I0
sg7
I0
sg8
I0
sg9
I0
ss(I0
I2
I0
I0
I1
tp2473
(dp2474
g5
I0
sg6
F1887.7348181909779
sg7
F1850.2118239236934
sg8
F1913.4183449562147
sg9
F1889.7775330133468
ss(I0
I1
I2
I0
I0
tp2475
(dp2476
g5
I0
sg6
I0
sg7
I0
sg8
I0
sg9
I0
ss(I1
I1
I1
I0
I0
tp2477
(dp2478
g5
I0
sg6
I0
sg7
I0
sg8
I0
sg9
I0
ss(I1
I0
I2
I1
I1
tp2479
(dp2480
g5
I0
sg6
I0
sg7
I0
sg8
I0
sg9
I0
ss(I2
I0
I0
I0
I0
tp2481
(dp2482
g5
I0
sg6
I0
sg7
I0
sg8
I0
sg9
I0
ss(I1
I1
I2
I1
I0
tp2483
(dp2484
g5
I0
sg6
I0
sg7
I0
sg8
I0
sg9
I0
ss(I1
I0
I2
I0
I0
tp2485
(dp2486
g5
I0
sg6
I0
sg7
I0
sg8
I0
sg9
I0
ss(I1
I0
I1
I0
I1
tp2487
(dp2488
g5
I0
sg6
F1915.6834727569267
sg7
F1870.0234099603654
sg8
F1901.226810057652
sg9
F1907.84275930467
ss(I2
I1
I2
I2
I1
tp2489
(dp2490
g5
I0
sg6
I0
sg7
I0
sg8
I0
sg9
I0
ss(I2
I2
I0
I2
I1
tp2491
(dp2492
g5
I0
sg6
I0
sg7
I0
sg8
I0
sg9
I0
ss(I0
I2
I2
I1
I1
tp2493
(dp2494
g5
I0
sg6
I0
sg7
I0
sg8
I0
sg9
I0
ss(I0
I2
I0
I2
I0
tp2495
(dp2496
g5
I0
sg6
I0
sg7
I0
sg8
I0
sg9
I0
ss(I2
I2
I1
I1
I1
tp2497
(dp2498
g5
I0
sg6
I0
sg7
I0
sg8
I0
sg9
I0
ss(I1
I0
I2
I2
I1
tp2499
(dp2500
g5
I0
sg6
I0
sg7
I0
sg8
I0
sg9
I0
ss(I2
I1
I2
I0
I0
tp2501
(dp2502
g5
I0
sg6
I0
sg7
I0
sg8
I0
sg9
I0
ss(I0
I2
I2
I2
I1
tp2503
(dp2504
g5
I0
sg6
I0
sg7
I0
sg8
I0
sg9
I0
ss(I2
I2
I0
I1
I1
tp2505
(dp2506
g5
I0
sg6
I0
sg7
I0
sg8
I0
sg9
I0
ss(I2
I0
I2
I2
I1
tp2507
(dp2508
g5
I0
sg6
I0
sg7
I0
sg8
I0
sg9
I0
ss(I0
I1
I0
I1
I1
tp2509
(dp2510
g5
I0
sg6
I0
sg7
I0
sg8
I0
sg9
I0
ss(I1
I2
I1
I1
I0
tp2511
(dp2512
g5
I0
sg6
I0
sg7
I0
sg8
I0
sg9
I0
ss(I0
I1
I0
I2
I0
tp2513
(dp2514
g5
I0
sg6
I0
sg7
I0
sg8
I0
sg9
I0
ss(I0
I0
I2
I2
I1
tp2515
(dp2516
g5
I0
sg6
I0
sg7
I0
sg8
I0
sg9
I0
ss(I0
I1
I1
I2
I1
tp2517
(dp2518
g5
I0
sg6
I0
sg7
I0
sg8
I0
sg9
I0
ss(I1
I1
I0
I0
I1
tp2519
(dp2520
g5
I0
sg6
F1915.535009773143
sg7
F1877.923853910428
sg8
F1920.0354550410073
sg9
F1903.6779294739968
ss(I0
I1
I1
I1
I1
tp2521
(dp2522
g5
I0
sg6
I0
sg7
I0
sg8
I0
sg9
I0
ss(I1
I2
I2
I0
I0
tp2523
(dp2524
g5
I0
sg6
I0
sg7
I0
sg8
I0
sg9
I0
ss(I0
I0
I2
I0
I0
tp2525
(dp2526
g5
I0
sg6
I0
sg7
I0
sg8
I0
sg9
I0
ss(I0
I2
I2
I2
I0
tp2527
(dp2528
g5
I0
sg6
I0
sg7
I0
sg8
I0
sg9
I0
ss(I0
I1
I0
I2
I1
tp2529
(dp2530
g5
I0
sg6
I0
sg7
I0
sg8
I0
sg9
I0
ss(I1
I1
I1
I0
I1
tp2531
(dp2532
g5
I0
sg6
F1919.503193091732
sg7
F1881.0202972939046
sg8
F1916.380544855659
sg9
F1917.879568958644
ss(I0
I0
I2
I0
I1
tp2533
(dp2534
g5
I0
sg6
F1909.2616435232708
sg7
F1880.9696885153812
sg8
F1910.7510761758253
sg9
F1921.4539258591792
ss(I1
I0
I2
I1
I0
tp2535
(dp2536
g5
I0
sg6
I0
sg7
I0
sg8
I0
sg9
I0
ss(I2
I0
I0
I2
I0
tp2537
(dp2538
g5
I0
sg6
I0
sg7
I0
sg8
I0
sg9
I0
ss(I1
I1
I2
I1
I1
tp2539
(dp2540
g5
I0
sg6
I0
sg7
I0
sg8
I0
sg9
I0
ss(I2
I1
I1
I1
I0
tp2541
(dp2542
g5
I0
sg6
I0
sg7
I0
sg8
I0
sg9
I0
ss(I1
I0
I1
I0
I0
tp2543
(dp2544
g5
I0
sg6
I0
sg7
I0
sg8
I0
sg9
I0
ss(I2
I2
I2
I0
I0
tp2545
(dp2546
g5
I0
sg6
I0
sg7
I0
sg8
I0
sg9
I0
ss(I0
I2
I0
I2
I1
tp2547
(dp2548
g5
I0
sg6
I0
sg7
I0
sg8
I0
sg9
I0
ss(I0
I0
I0
I0
I1
tp2549
(dp2550
g5
I0
sg6
F1916.8932884014666
sg7
F1879.4764070438516
sg8
F1916.0950727228906
sg9
F1905.4977280800877
ss(I2
I2
I1
I1
I0
tp2551
(dp2552
g5
I0
sg6
I0
sg7
I0
sg8
I0
sg9
I0
ss(I0
I0
I1
I2
I1
tp2553
(dp2554
g5
I0
sg6
I0
sg7
I0
sg8
I0
sg9
I0
ss(I1
I2
I0
I1
I1
tp2555
(dp2556
g5
I0
sg6
I0
sg7
I0
sg8
I0
sg9
I0
ss(I0
I0
I0
I2
I0
tp2557
(dp2558
g5
I0
sg6
I0
sg7
I0
sg8
I0
sg9
I0
ss(I2
I0
I2
I2
I0
tp2559
(dp2560
g5
I0
sg6
I0
sg7
I0
sg8
I0
sg9
I0
ss(I0
I1
I0
I1
I0
tp2561
(dp2562
g5
I0
sg6
I0
sg7
I0
sg8
I0
sg9
I0
ss(I1
I2
I1
I2
I1
tp2563
(dp2564
g5
I0
sg6
I0
sg7
I0
sg8
I0
sg9
I0
ss(I1
I2
I1
I1
I1
tp2565
(dp2566
g5
I0
sg6
I0
sg7
I0
sg8
I0
sg9
I0
ss(I0
I2
I1
I0
I0
tp2567
(dp2568
g5
I0
sg6
I0
sg7
I0
sg8
I0
sg9
I0
ss(I0
I1
I1
I2
I0
tp2569
(dp2570
g5
I0
sg6
I0
sg7
I0
sg8
I0
sg9
I0
ss(I2
I0
I0
I1
I0
tp2571
(dp2572
g5
I0
sg6
I0
sg7
I0
sg8
I0
sg9
I0
ss(I1
I1
I0
I0
I0
tp2573
(dp2574
g5
I0
sg6
I0
sg7
I0
sg8
I0
sg9
I0
ss(I1
I2
I2
I0
I1
tp2575
(dp2576
g5
I0
sg6
F1812.4447184340129
sg7
F1838.1412543741915
sg8
F1872.7750346757048
sg9
F1873.5558873257114
ss(I2
I1
I1
I2
I1
tp2577
(dp2578
g5
I0
sg6
I0
sg7
I0
sg8
I0
sg9
I0
ss(I2
I0
I1
I2
I0
tp2579
(dp2580
g5
I0
sg6
I0
sg7
I0
sg8
I0
sg9
I0
ss(I0
I2
I1
I1
I0
tp2581
(dp2582
g5
I0
sg6
I0
sg7
I0
sg8
I0
sg9
I0
ss(I2
I1
I0
I1
I1
tp2583
(dp2584
g5
I0
sg6
I0
sg7
I0
sg8
I0
sg9
I0
ss(I0
I0
I0
I0
I0
tp2585
(dp2586
g5
I0
sg6
I0
sg7
I0
sg8
I0
sg9
I0
ss(I2
I2
I2
I0
I1
tp2587
(dp2588
g5
I0
sg6
F1660.7146158059877
sg7
F1579.2933671744913
sg8
F1361.8551147649741
sg9
F1633.5267702079555
ss(I2
I1
I2
I0
I1
tp2589
(dp2590
g5
I0
sg6
F1889.579989995743
sg7
F1833.3413315577905
sg8
F1881.3693057256337
sg9
F1909.2535619743833
ss(I0
I2
I1
I2
I0
tp2591
(dp2592
g5
I0
sg6
I0
sg7
I0
sg8
I0
sg9
I0
ss(I2
I1
I1
I1
I1
tp2593
(dp2594
g5
I0
sg6
I0
sg7
I0
sg8
I0
sg9
I0
ss(I0
I0
I1
I0
I1
tp2595
(dp2596
g5
I0
sg6
F1911.8238530501474
sg7
F1884.7486956590622
sg8
F1907.8921466357071
sg9
F1917.957431828691
ss(I0
I2
I1
I0
I1
tp2597
(dp2598
g5
I0
sg6
F1891.6502877989556
sg7
F1861.7006074158312
sg8
F1911.6816286174708
sg9
F1901.600679244062
ss(I2
I0
I2
I0
I0
tp2599
(dp2600
g5
I0
sg6
I0
sg7
I0
sg8
I0
sg9
I0
ss(I0
I0
I0
I1
I1
tp2601
(dp2602
g5
I0
sg6
I0
sg7
I0
sg8
I0
sg9
I0
ss(I1
I2
I0
I1
I0
tp2603
(dp2604
g5
I0
sg6
I0
sg7
I0
sg8
I0
sg9
I0
ss(I2
I2
I2
I2
I1
tp2605
(dp2606
g5
I0
sg6
I0
sg7
I0
sg8
I0
sg9
I0
ss(I1
I0
I2
I0
I1
tp2607
(dp2608
g5
I0
sg6
F1908.5249190664833
sg7
F1873.079563827856
sg8
F1904.7706564203604
sg9
F1905.4450924665957
ssa(dp2609
(I0
I2
I0
I1
I0
tp2610
(dp2611
g5
I0
sg6
I0
sg7
I0
sg8
I0
sg9
I0
ss(I2
I0
I1
I1
I1
tp2612
(dp2613
g5
I0
sg6
I0
sg7
I0
sg8
I0
sg9
I0
ss(I1
I2
I1
I2
I0
tp2614
(dp2615
g5
I0
sg6
I0
sg7
I0
sg8
I0
sg9
I0
ss(I2
I0
I0
I2
I1
tp2616
(dp2617
g5
I0
sg6
I0
sg7
I0
sg8
I0
sg9
I0
ss(I1
I0
I0
I2
I0
tp2618
(dp2619
g5
I0
sg6
I0
sg7
I0
sg8
I0
sg9
I0
ss(I2
I0
I0
I1
I1
tp2620
(dp2621
g5
I0
sg6
I0
sg7
I0
sg8
I0
sg9
I0
ss(I0
I0
I0
I2
I1
tp2622
(dp2623
g5
I0
sg6
I0
sg7
I0
sg8
I0
sg9
I0
ss(I2
I1
I1
I2
I0
tp2624
(dp2625
g5
I0
sg6
I0
sg7
I0
sg8
I0
sg9
I0
ss(I1
I0
I1
I1
I0
tp2626
(dp2627
g5
I0
sg6
I0
sg7
I0
sg8
I0
sg9
I0
ss(I2
I0
I1
I2
I1
tp2628
(dp2629
g5
I0
sg6
I0
sg7
I0
sg8
I0
sg9
I0
ss(I2
I2
I2
I1
I0
tp2630
(dp2631
g5
I0
sg6
I0
sg7
I0
sg8
I0
sg9
I0
ss(I2
I1
I0
I1
I0
tp2632
(dp2633
g5
I0
sg6
I0
sg7
I0
sg8
I0
sg9
I0
ss(I2
I2
I1
I0
I0
tp2634
(dp2635
g5
I0
sg6
I0
sg7
I0
sg8
I0
sg9
I0
ss(I0
I1
I2
I2
I0
tp2636
(dp2637
g5
I0
sg6
I0
sg7
I0
sg8
I0
sg9
I0
ss(I2
I2
I0
I0
I1
tp2638
(dp2639
g5
I0
sg6
F4.367630004944387
sg7
F-21.96875
sg8
F4.087969495510609
sg9
F-5.878282105539903
ss(I2
I2
I0
I2
I0
tp2640
(dp2641
g5
I0
sg6
I0
sg7
I0
sg8
I0
sg9
I0
ss(I1
I0
I0
I0
I1
tp2642
(dp2643
g5
I0
sg6
F4.031653029400594
sg7
F-31.998365494609516
sg8
F-1.901752741601564
sg9
F-1.2416725175501537
ss(I0
I2
I1
I1
I1
tp2644
(dp2645
g5
I0
sg6
I0
sg7
I0
sg8
I0
sg9
I0
ss(I2
I0
I2
I0
I1
tp2646
(dp2647
g5
I0
sg6
F5.906314316539147
sg7
F-36.34197820784167
sg8
F-7.577913322785189
sg9
F4.027812673991779
ss(I1
I1
I0
I1
I0
tp2648
(dp2649
g5
I0
sg6
I0
sg7
I0
sg8
I0
sg9
I0
ss(I0
I2
I2
I0
I1
tp2650
(dp2651
g5
I0
sg6
F-5.977776365356492
sg7
F-35.03872382968366
sg8
F4.0346128835995465
sg9
F4.125171747797642
ss(I2
I2
I1
I2
I1
tp2652
(dp2653
g5
I0
sg6
I0
sg7
I0
sg8
I0
sg9
I0
ss(I1
I0
I1
I2
I1
tp2654
(dp2655
g5
I0
sg6
I0
sg7
I0
sg8
I0
sg9
I0
ss(I0
I2
I0
I1
I1
tp2656
(dp2657
g5
I0
sg6
I0
sg7
I0
sg8
I0
sg9
I0
ss(I1
I1
I1
I2
I0
tp2658
(dp2659
g5
I0
sg6
I0
sg7
I0
sg8
I0
sg9
I0
ss(I1
I0
I0
I1
I1
tp2660
(dp2661
g5
I0
sg6
I0
sg7
I0
sg8
I0
sg9
I0
ss(I0
I2
I1
I2
I1
tp2662
(dp2663
g5
I0
sg6
I0
sg7
I0
sg8
I0
sg9
I0
ss(I0
I0
I2
I1
I0
tp2664
(dp2665
g5
I0
sg6
I0
sg7
I0
sg8
I0
sg9
I0
ss(I1
I0
I0
I2
I1
tp2666
(dp2667
g5
I0
sg6
I0
sg7
I0
sg8
I0
sg9
I0
ss(I2
I0
I1
I1
I0
tp2668
(dp2669
g5
I0
sg6
I0
sg7
I0
sg8
I0
sg9
I0
ss(I2
I2
I0
I0
I0
tp2670
(dp2671
g5
I0
sg6
I0
sg7
I0
sg8
I0
sg9
I0
ss(I0
I0
I1
I0
I0
tp2672
(dp2673
g5
I0
sg6
I0
sg7
I0
sg8
I0
sg9
I0
ss(I1
I0
I1
I1
I1
tp2674
(dp2675
g5
I0
sg6
I0
sg7
I0
sg8
I0
sg9
I0
ss(I2
I2
I2
I1
I1
tp2676
(dp2677
g5
I0
sg6
I0
sg7
I0
sg8
I0
sg9
I0
ss(I2
I2
I1
I0
I1
tp2678
(dp2679
g5
I0
sg6
F0.5
sg7
F-10.0
sg8
F0.875
sg9
I0
ss(I1
I2
I2
I2
I1
tp2680
(dp2681
g5
I0
sg6
I0
sg7
I0
sg8
I0
sg9
I0
ss(I0
I1
I1
I0
I1
tp2682
(dp2683
g5
I0
sg6
F-3.5407877451950407
sg7
F-32.63384405184469
sg8
F2.20182417127335
sg9
F4.132349832101099
ss(I1
I2
I2
I2
I0
tp2684
(dp2685
g5
I0
sg6
I0
sg7
I0
sg8
I0
sg9
I0
ss(I0
I1
I2
I1
I1
tp2686
(dp2687
g5
I0
sg6
I0
sg7
I0
sg8
I0
sg9
I0
ss(I1
I1
I1
I1
I1
tp2688
(dp2689
g5
I0
sg6
I0
sg7
I0
sg8
I0
sg9
I0
ss(I0
I1
I0
I0
I1
tp2690
(dp2691
g5
I0
sg6
F-0.7381711503518015
sg7
F-31.982163304365887
sg8
F4.010254720423028
sg9
F-1.9742513582132686
ss(I1
I0
I0
I0
I0
tp2692
(dp2693
g5
I0
sg6
I0
sg7
I0
sg8
I0
sg9
I0
ss(I1
I1
I0
I2
I1
tp2694
(dp2695
g5
I0
sg6
I0
sg7
I0
sg8
I0
sg9
I0
ss(I0
I0
I1
I2
I0
tp2696
(dp2697
g5
I0
sg6
I0
sg7
I0
sg8
I0
sg9
I0
ss(I1
I1
I0
I1
I1
tp2698
(dp2699
g5
I0
sg6
I0
sg7
I0
sg8
I0
sg9
I0
ss(I1
I2
I0
I0
I0
tp2700
(dp2701
g5
I0
sg6
I0
sg7
I0
sg8
I0
sg9
I0
ss(I0
I0
I1
I1
I1
tp2702
(dp2703
g5
I0
sg6
I0
sg7
I0
sg8
I0
sg9
I0
ss(I0
I2
I2
I0
I0
tp2704
(dp2705
g5
I0
sg6
I0
sg7
I0
sg8
I0
sg9
I0
ss(I1
I0
I1
I2
I0
tp2706
(dp2707
g5
I0
sg6
I0
sg7
I0
sg8
I0
sg9
I0
ss(I1
I1
I1
I2
I1
tp2708
(dp2709
g5
I0
sg6
I0
sg7
I0
sg8
I0
sg9
I0
ss(I2
I1
I0
I0
I0
tp2710
(dp2711
g5
I0
sg6
I0
sg7
I0
sg8
I0
sg9
I0
ss(I1
I0
I0
I1
I0
tp2712
(dp2713
g5
I0
sg6
I0
sg7
I0
sg8
I0
sg9
I0
ss(I0
I0
I2
I1
I1
tp2714
(dp2715
g5
I0
sg6
I0
sg7
I0
sg8
I0
sg9
I0
ss(I1
I1
I2
I2
I0
tp2716
(dp2717
g5
I0
sg6
I0
sg7
I0
sg8
I0
sg9
I0
ss(I2
I2
I2
I2
I0
tp2718
(dp2719
g5
I0
sg6
I0
sg7
I0
sg8
I0
sg9
I0
ss(I1
I2
I0
I2
I1
tp2720
(dp2721
g5
I0
sg6
I0
sg7
I0
sg8
I0
sg9
I0
ss(I1
I2
I1
I0
I1
tp2722
(dp2723
g5
I0
sg6
F-1.7986772137052864
sg7
F-37.7887815266888
sg8
F4.500528869700644
sg9
F-1.487760267519922
ss(I0
I1
I1
I0
I0
tp2724
(dp2725
g5
I0
sg6
I0
sg7
I0
sg8
I0
sg9
I0
ss(I1
I2
I2
I1
I1
tp2726
(dp2727
g5
I0
sg6
I0
sg7
I0
sg8
I0
sg9
I0
ss(I1
I2
I0
I0
I1
tp2728
(dp2729
g5
I0
sg6
F0.009530437008186758
sg7
F-35.99762528303948
sg8
F7.19006786100994
sg9
F-5.870089430754692
ss(I0
I0
I1
I1
I0
tp2730
(dp2731
g5
I0
sg6
I0
sg7
I0
sg8
I0
sg9
I0
ss(I0
I1
I2
I1
I0
tp2732
(dp2733
g5
I0
sg6
I0
sg7
I0
sg8
I0
sg9
I0
ss(I2
I0
I1
I0
I0
tp2734
(dp2735
g5
I0
sg6
I0
sg7
I0
sg8
I0
sg9
I0
ss(I1
I1
I1
I1
I0
tp2736
(dp2737
g5
I0
sg6
I0
sg7
I0
sg8
I0
sg9
I0
ss(I2
I1
I2
I2
I0
tp2738
(dp2739
g5
I0
sg6
I0
sg7
I0
sg8
I0
sg9
I0
ss(I0
I0
I0
I1
I0
tp2740
(dp2741
g5
I0
sg6
I0
sg7
I0
sg8
I0
sg9
I0
ss(I2
I1
I2
I1
I1
tp2742
(dp2743
g5
I0
sg6
I0
sg7
I0
sg8
I0
sg9
I0
ss(I2
I0
I2
I1
I0
tp2744
(dp2745
g5
I0
sg6
I0
sg7
I0
sg8
I0
sg9
I0
ss(I1
I1
I0
I2
I0
tp2746
(dp2747
g5
I0
sg6
I0
sg7
I0
sg8
I0
sg9
I0
ss(I2
I1
I0
I2
I0
tp2748
(dp2749
g5
I0
sg6
I0
sg7
I0
sg8
I0
sg9
I0
ss(I2
I1
I1
I0
I1
tp2750
(dp2751
g5
I0
sg6
F4.401116287770179
sg7
F-37.712423914131875
sg8
F-1.8723167878291904
sg9
F-0.4252274460389609
ss(I1
I1
I2
I0
I0
tp2752
(dp2753
g5
I0
sg6
I0
sg7
I0
sg8
I0
sg9
I0
ss(I0
I0
I2
I2
I0
tp2754
(dp2755
g5
I0
sg6
I0
sg7
I0
sg8
I0
sg9
I0
ss(I0
I2
I0
I0
I0
tp2756
(dp2757
g5
I0
sg6
I0
sg7
I0
sg8
I0
sg9
I0
ss(I1
I1
I2
I2
I1
tp2758
(dp2759
g5
I0
sg6
I0
sg7
I0
sg8
I0
sg9
I0
ss(I0
I1
I2
I2
I1
tp2760
(dp2761
g5
I0
sg6
I0
sg7
I0
sg8
I0
sg9
I0
ss(I1
I2
I0
I2
I0
tp2762
(dp2763
g5
I0
sg6
I0
sg7
I0
sg8
I0
sg9
I0
ss(I1
I2
I1
I0
I0
tp2764
(dp2765
g5
I0
sg6
I0
sg7
I0
sg8
I0
sg9
I0
ss(I2
I0
I0
I0
I1
tp2766
(dp2767
g5
I0
sg6
F8.001791423533241
sg7
F-32.9913687611176
sg8
F-3.553557373437388
sg9
F-3.9066708755295165
ss(I2
I1
I0
I2
I1
tp2768
(dp2769
g5
I0
sg6
I0
sg7
I0
sg8
I0
sg9
I0
ss(I1
I2
I2
I1
I0
tp2770
(dp2771
g5
I0
sg6
I0
sg7
I0
sg8
I0
sg9
I0
ss(I0
I2
I2
I1
I0
tp2772
(dp2773
g5
I0
sg6
I0
sg7
I0
sg8
I0
sg9
I0
ss(I2
I0
I1
I0
I1
tp2774
(dp2775
g5
I0
sg6
F6.069843386535268
sg7
F-32.92958377654145
sg8
F-4.838897633618768
sg9
F1.0264913597120038
ss(I2
I1
I2
I1
I0
tp2776
(dp2777
g5
I0
sg6
I0
sg7
I0
sg8
I0
sg9
I0
ss(I1
I0
I2
I2
I0
tp2778
(dp2779
g5
I0
sg6
I0
sg7
I0
sg8
I0
sg9
I0
ss(I2
I0
I2
I1
I1
tp2780
(dp2781
g5
I0
sg6
I0
sg7
I0
sg8
I0
sg9
I0
ss(I2
I2
I1
I2
I0
tp2782
(dp2783
g5
I0
sg6
I0
sg7
I0
sg8
I0
sg9
I0
ss(I2
I1
I1
I0
I0
tp2784
(dp2785
g5
I0
sg6
I0
sg7
I0
sg8
I0
sg9
I0
ss(I2
I2
I0
I1
I0
tp2786
(dp2787
g5
I0
sg6
I0
sg7
I0
sg8
I0
sg9
I0
ss(I1
I1
I2
I0
I1
tp2788
(dp2789
g5
I0
sg6
F-1.8534056810838986
sg7
F-37.43057855624798
sg8
F-1.4228338954198545
sg9
F4.490158163224808
ss(I2
I1
I0
I0
I1
tp2790
(dp2791
g5
I0
sg6
F6.000777511328862
sg7
F-35.99856366995253
sg8
F0.2682802313146705
sg9
F-5.959900263991494
ss(I0
I1
I2
I0
I1
tp2792
(dp2793
g5
I0
sg6
F-4.562062020626778
sg7
F-35.91517810940588
sg8
F1.552531698900152
sg9
F6.003235181640122
ss(I0
I1
I1
I1
I0
tp2794
(dp2795
g5
I0
sg6
I0
sg7
I0
sg8
I0
sg9
I0
ss(I0
I1
I0
I0
I0
tp2796
(dp2797
g5
I0
sg6
I0
sg7
I0
sg8
I0
sg9
I0
ss(I0
I2
I0
I0
I1
tp2798
(dp2799
g5
I0
sg6
F-3.9964710244649755
sg7
F-33.999948706311535
sg8
F8.042560083332038
sg9
F-2.491318939057019
ss(I0
I1
I2
I0
I0
tp2800
(dp2801
g5
I0
sg6
I0
sg7
I0
sg8
I0
sg9
I0
ss(I1
I1
I1
I0
I0
tp2802
(dp2803
g5
I0
sg6
I0
sg7
I0
sg8
I0
sg9
I0
ss(I1
I0
I2
I1
I1
tp2804
(dp2805
g5
I0
sg6
I0
sg7
I0
sg8
I0
sg9
I0
ss(I2
I0
I0
I0
I0
tp2806
(dp2807
g5
I0
sg6
I0
sg7
I0
sg8
I0
sg9
I0
ss(I1
I1
I2
I1
I0
tp2808
(dp2809
g5
I0
sg6
I0
sg7
I0
sg8
I0
sg9
I0
ss(I1
I0
I2
I0
I0
tp2810
(dp2811
g5
I0
sg6
I0
sg7
I0
sg8
I0
sg9
I0
ss(I1
I0
I1
I0
I1
tp2812
(dp2813
g5
I0
sg6
F3.5158848682572765
sg7
F-33.78927408560583
sg8
F-2.611846331157399
sg9
F2.621173488829394
ss(I2
I1
I2
I2
I1
tp2814
(dp2815
g5
I0
sg6
I0
sg7
I0
sg8
I0
sg9
I0
ss(I2
I2
I0
I2
I1
tp2816
(dp2817
g5
I0
sg6
I0
sg7
I0
sg8
I0
sg9
I0
ss(I0
I2
I2
I1
I1
tp2818
(dp2819
g5
I0
sg6
I0
sg7
I0
sg8
I0
sg9
I0
ss(I0
I2
I0
I2
I0
tp2820
(dp2821
g5
I0
sg6
I0
sg7
I0
sg8
I0
sg9
I0
ss(I2
I2
I1
I1
I1
tp2822
(dp2823
g5
I0
sg6
I0
sg7
I0
sg8
I0
sg9
I0
ss(I1
I0
I2
I2
I1
tp2824
(dp2825
g5
I0
sg6
I0
sg7
I0
sg8
I0
sg9
I0
ss(I2
I1
I2
I0
I0
tp2826
(dp2827
g5
I0
sg6
I0
sg7
I0
sg8
I0
sg9
I0
ss(I0
I2
I2
I2
I1
tp2828
(dp2829
g5
I0
sg6
I0
sg7
I0
sg8
I0
sg9
I0
ss(I2
I2
I0
I1
I1
tp2830
(dp2831
g5
I0
sg6
I0
sg7
I0
sg8
I0
sg9
I0
ss(I2
I0
I2
I2
I1
tp2832
(dp2833
g5
I0
sg6
I0
sg7
I0
sg8
I0
sg9
I0
ss(I0
I1
I0
I1
I1
tp2834
(dp2835
g5
I0
sg6
I0
sg7
I0
sg8
I0
sg9
I0
ss(I1
I2
I1
I1
I0
tp2836
(dp2837
g5
I0
sg6
I0
sg7
I0
sg8
I0
sg9
I0
ss(I0
I1
I0
I2
I0
tp2838
(dp2839
g5
I0
sg6
I0
sg7
I0
sg8
I0
sg9
I0
ss(I0
I0
I2
I2
I1
tp2840
(dp2841
g5
I0
sg6
I0
sg7
I0
sg8
I0
sg9
I0
ss(I0
I1
I1
I2
I1
tp2842
(dp2843
g5
I0
sg6
I0
sg7
I0
sg8
I0
sg9
I0
ss(I1
I1
I0
I0
I1
tp2844
(dp2845
g5
I0
sg6
F2.042241441624922
sg7
F-33.99571970461692
sg8
F3.041775838146409
sg9
F-3.9970847600240726
ss(I0
I1
I1
I1
I1
tp2846
(dp2847
g5
I0
sg6
I0
sg7
I0
sg8
I0
sg9
I0
ss(I1
I2
I2
I0
I0
tp2848
(dp2849
g5
I0
sg6
I0
sg7
I0
sg8
I0
sg9
I0
ss(I0
I0
I2
I0
I0
tp2850
(dp2851
g5
I0
sg6
I0
sg7
I0
sg8
I0
sg9
I0
ss(I0
I2
I2
I2
I0
tp2852
(dp2853
g5
I0
sg6
I0
sg7
I0
sg8
I0
sg9
I0
ss(I0
I1
I0
I2
I1
tp2854
(dp2855
g5
I0
sg6
I0
sg7
I0
sg8
I0
sg9
I0
ss(I1
I1
I1
I0
I1
tp2856
(dp2857
g5
I0
sg6
F1.1377526481241718
sg7
F-35.48653706914655
sg8
F0.020419407156429533
sg9
F0.6442892299454586
ss(I0
I0
I2
I0
I1
tp2858
(dp2859
g5
I0
sg6
F-3.5173472657740454
sg7
F-33.96939899353599
sg8
F-2.7709853857303375
sg9
F9.129618270313753
ss(I1
I0
I2
I1
I0
tp2860
(dp2861
g5
I0
sg6
I0
sg7
I0
sg8
I0
sg9
I0
ss(I2
I0
I0
I2
I0
tp2862
(dp2863
g5
I0
sg6
I0
sg7
I0
sg8
I0
sg9
I0
ss(I1
I1
I2
I1
I1
tp2864
(dp2865
g5
I0
sg6
I0
sg7
I0
sg8
I0
sg9
I0
ss(I2
I1
I1
I1
I0
tp2866
(dp2867
g5
I0
sg6
I0
sg7
I0
sg8
I0
sg9
I0
ss(I1
I0
I1
I0
I0
tp2868
(dp2869
g5
I0
sg6
I0
sg7
I0
sg8
I0
sg9
I0
ss(I2
I2
I2
I0
I0
tp2870
(dp2871
g5
I0
sg6
I0
sg7
I0
sg8
I0
sg9
I0
ss(I0
I2
I0
I2
I1
tp2872
(dp2873
g5
I0
sg6
I0
sg7
I0
sg8
I0
sg9
I0
ss(I0
I0
I0
I0
I1
tp2874
(dp2875
g5
I0
sg6
F0.695408066962216
sg7
F-28.9854845910942
sg8
F0.6351692742502224
sg9
F0.6866418824422376
ss(I2
I2
I1
I1
I0
tp2876
(dp2877
g5
I0
sg6
I0
sg7
I0
sg8
I0
sg9
I0
ss(I0
I0
I1
I2
I1
tp2878
(dp2879
g5
I0
sg6
I0
sg7
I0
sg8
I0
sg9
I0
ss(I1
I2
I0
I1
I1
tp2880
(dp2881
g5
I0
sg6
I0
sg7
I0
sg8
I0
sg9
I0
ss(I0
I0
I0
I2
I0
tp2882
(dp2883
g5
I0
sg6
I0
sg7
I0
sg8
I0
sg9
I0
ss(I2
I0
I2
I2
I0
tp2884
(dp2885
g5
I0
sg6
I0
sg7
I0
sg8
I0
sg9
I0
ss(I0
I1
I0
I1
I0
tp2886
(dp2887
g5
I0
sg6
I0
sg7
I0
sg8
I0
sg9
I0
ss(I1
I2
I1
I2
I1
tp2888
(dp2889
g5
I0
sg6
I0
sg7
I0
sg8
I0
sg9
I0
ss(I1
I2
I1
I1
I1
tp2890
(dp2891
g5
I0
sg6
I0
sg7
I0
sg8
I0
sg9
I0
ss(I0
I2
I1
I0
I0
tp2892
(dp2893
g5
I0
sg6
I0
sg7
I0
sg8
I0
sg9
I0
ss(I0
I1
I1
I2
I0
tp2894
(dp2895
g5
I0
sg6
I0
sg7
I0
sg8
I0
sg9
I0
ss(I2
I0
I0
I1
I0
tp2896
(dp2897
g5
I0
sg6
I0
sg7
I0
sg8
I0
sg9
I0
ss(I1
I1
I0
I0
I0
tp2898
(dp2899
g5
I0
sg6
I0
sg7
I0
sg8
I0
sg9
I0
ss(I1
I2
I2
I0
I1
tp2900
(dp2901
g5
I0
sg6
F-2.217019256080201
sg7
F-16.749999549438627
sg8
F5.56064339782608
sg9
F2.3821109265477607
ss(I2
I1
I1
I2
I1
tp2902
(dp2903
g5
I0
sg6
I0
sg7
I0
sg8
I0
sg9
I0
ss(I2
I0
I1
I2
I0
tp2904
(dp2905
g5
I0
sg6
I0
sg7
I0
sg8
I0
sg9
I0
ss(I0
I2
I1
I1
I0
tp2906
(dp2907
g5
I0
sg6
I0
sg7
I0
sg8
I0
sg9
I0
ss(I2
I1
I0
I1
I1
tp2908
(dp2909
g5
I0
sg6
I0
sg7
I0
sg8
I0
sg9
I0
ss(I0
I0
I0
I0
I0
tp2910
(dp2911
g5
I0
sg6
I0
sg7
I0
sg8
I0
sg9
I0
ss(I2
I2
I2
I0
I1
tp2912
(dp2913
g5
I0
sg6
F0.05933051747267889
sg7
I0
sg8
F0.0
sg9
I0
ss(I2
I1
I2
I0
I1
tp2914
(dp2915
g5
I0
sg6
F2.569324656911808
sg7
F-34.66064453125
sg8
F2.4041123953360977
sg9
F1.917409757518059
ss(I0
I2
I1
I2
I0
tp2916
(dp2917
g5
I0
sg6
I0
sg7
I0
sg8
I0
sg9
I0
ss(I2
I1
I1
I1
I1
tp2918
(dp2919
g5
I0
sg6
I0
sg7
I0
sg8
I0
sg9
I0
ss(I0
I0
I1
I0
I1
tp2920
(dp2921
g5
I0
sg6
F-0.0017031960777753041
sg7
F-31.673859149283707
sg8
F-1.6743323641303107
sg9
F4.033174715135136
ss(I0
I2
I1
I0
I1
tp2922
(dp2923
g5
I0
sg6
F-4.477138412778165
sg7
F-34.2719741812944
sg8
F6.674677195752313
sg9
F0.7904448269047797
ss(I2
I0
I2
I0
I0
tp2924
(dp2925
g5
I0
sg6
I0
sg7
I0
sg8
I0
sg9
I0
ss(I0
I0
I0
I1
I1
tp2926
(dp2927
g5
I0
sg6
I0
sg7
I0
sg8
I0
sg9
I0
ss(I1
I2
I0
I1
I0
tp2928
(dp2929
g5
I0
sg6
I0
sg7
I0
sg8
I0
sg9
I0
ss(I2
I2
I2
I2
I1
tp2930
(dp2931
g5
I0
sg6
I0
sg7
I0
sg8
I0
sg9
I0
ss(I1
I0
I2
I0
I1
tp2932
(dp2933
g5
I0
sg6
F1.5436220579231272
sg7
F-35.70206761909903
sg8
F-5.4733316514778885
sg9
F6.023988367767174
ssaa.