(lp0
(lp1
(dp2
(I0
I2
I0
I1
I0
tp3
(dp4
S'RRRG'
p5
I0
sS'GRRR'
p6
I0
sS'RRRR'
p7
I0
sS'RGRR'
p8
I0
sS'RRGR'
p9
I0
ss(I2
I0
I1
I1
I1
tp10
(dp11
g5
I0
sg6
I0
sg7
I0
sg8
I0
sg9
I0
ss(I1
I2
I1
I2
I0
tp12
(dp13
g5
I0
sg6
I0
sg7
I0
sg8
I0
sg9
I0
ss(I2
I2
I2
I0
I0
tp14
(dp15
g5
I0
sg6
I0
sg7
I0
sg8
I0
sg9
I0
ss(I2
I0
I2
I0
I1
tp16
(dp17
g5
I0
sg6
I0
sg7
I0
sg8
I0
sg9
I0
ss(I1
I0
I0
I2
I0
tp18
(dp19
g5
I0
sg6
I0
sg7
I0
sg8
I0
sg9
I0
ss(I2
I0
I0
I1
I1
tp20
(dp21
g5
F0.04258101941572917
sg6
F6.445132814635213
sg7
F-35.83501907115199
sg8
F-5.862138457521162
sg9
I0
ss(I2
I1
I1
I1
I0
tp22
(dp23
g5
I0
sg6
I0
sg7
I0
sg8
I0
sg9
I0
ss(I0
I2
I1
I2
I1
tp24
(dp25
g5
I0
sg6
I0
sg7
I0
sg8
I0
sg9
I0
ss(I2
I1
I1
I2
I0
tp26
(dp27
g5
I0
sg6
I0
sg7
I0
sg8
I0
sg9
I0
ss(I1
I0
I1
I1
I0
tp28
(dp29
g5
I0
sg6
I0
sg7
I0
sg8
I0
sg9
I0
ss(I2
I0
I1
I2
I1
tp30
(dp31
g5
I0
sg6
I0
sg7
I0
sg8
I0
sg9
I0
ss(I2
I2
I2
I1
I0
tp32
(dp33
g5
I0
sg6
I0
sg7
I0
sg8
I0
sg9
I0
ss(I2
I1
I0
I1
I0
tp34
(dp35
g5
I0
sg6
I0
sg7
I0
sg8
I0
sg9
I0
ss(I2
I2
I1
I0
I0
tp36
(dp37
g5
I0
sg6
I0
sg7
I0
sg8
I0
sg9
I0
ss(I0
I1
I2
I2
I0
tp38
(dp39
g5
I0
sg6
I0
sg7
I0
sg8
I0
sg9
I0
ss(I2
I2
I2
I2
I1
tp40
(dp41
g5
I0
sg6
I0
sg7
I0
sg8
I0
sg9
I0
ss(I1
I0
I2
I2
I1
tp42
(dp43
g5
I0
sg6
I0
sg7
I0
sg8
I0
sg9
I0
ss(I0
I2
I1
I1
I1
tp44
(dp45
g5
I0
sg6
I0
sg7
I0
sg8
I0
sg9
I0
ss(I2
I0
I0
I2
I1
tp46
(dp47
g5
F4.042616731479674
sg6
F4.1209374477006655
sg7
F-37.90687039314105
sg8
F-7.745396879462232
sg9
I0
ss(I2
I1
I1
I1
I1
tp48
(dp49
g5
I0
sg6
I0
sg7
I0
sg8
I0
sg9
I0
ss(I1
I1
I0
I1
I0
tp50
(dp51
g5
I0
sg6
I0
sg7
I0
sg8
I0
sg9
I0
ss(I0
I2
I2
I0
I1
tp52
(dp53
g5
I0
sg6
I0
sg7
I0
sg8
I0
sg9
I0
ss(I2
I2
I1
I2
I1
tp54
(dp55
g5
I0
sg6
I0
sg7
I0
sg8
I0
sg9
I0
ss(I1
I0
I1
I2
I1
tp56
(dp57
g5
I0
sg6
I0
sg7
I0
sg8
I0
sg9
I0
ss(I0
I2
I0
I1
I1
tp58
(dp59
g5
F0.023443144409445893
sg6
F-5.862668983293252
sg7
F-35.93316499972012
sg8
F6.015228333369228
sg9
I0
ss(I1
I1
I1
I2
I0
tp60
(dp61
g5
I0
sg6
I0
sg7
I0
sg8
I0
sg9
I0
ss(I1
I0
I0
I1
I1
tp62
(dp63
g5
F2.0036212870952035
sg6
F2.8357894207550896
sg7
F-33.277426954394876
sg8
F-3.995369313719684
sg9
I0
ss(I2
I0
I2
I0
I0
tp64
(dp65
g5
I0
sg6
I0
sg7
I0
sg8
I0
sg9
I0
ss(I0
I0
I2
I1
I0
tp66
(dp67
g5
I0
sg6
I0
sg7
I0
sg8
I0
sg9
I0
ss(I1
I0
I0
I2
I1
tp68
(dp69
g5
F6.002872454193569
sg6
F0.00246247667219913
sg7
F-35.39824432942321
sg8
F-5.859792082208212
sg9
I0
ss(I2
I2
I0
I0
I1
tp70
(dp71
g5
F-7.746589183807373
sg6
F4.033141916264736
sg7
F-37.03313752824255
sg8
F3.59954833984375
sg9
I0
ss(I1
I0
I1
I1
I1
tp72
(dp73
g5
I0
sg6
I0
sg7
I0
sg8
I0
sg9
I0
ss(I2
I2
I2
I1
I1
tp74
(dp75
g5
I0
sg6
I0
sg7
I0
sg8
I0
sg9
I0
ss(I2
I2
I1
I0
I1
tp76
(dp77
g5
I0
sg6
I0
sg7
I0
sg8
I0
sg9
I0
ss(I0
I0
I2
I0
I1
tp78
(dp79
g5
I0
sg6
I0
sg7
I0
sg8
I0
sg9
I0
ss(I1
I2
I2
I2
I1
tp80
(dp81
g5
I0
sg6
I0
sg7
I0
sg8
I0
sg9
I0
ss(I0
I1
I1
I0
I1
tp82
(dp83
g5
I0
sg6
I0
sg7
I0
sg8
I0
sg9
I0
ss(I1
I2
I0
I0
I0
tp84
(dp85
g5
I0
sg6
I0
sg7
I0
sg8
I0
sg9
I0
ss(I0
I1
I2
I1
I1
tp86
(dp87
g5
I0
sg6
I0
sg7
I0
sg8
I0
sg9
I0
ss(I1
I1
I1
I1
I1
tp88
(dp89
g5
I0
sg6
I0
sg7
I0
sg8
I0
sg9
I0
ss(I0
I1
I2
I2
I1
tp90
(dp91
g5
I0
sg6
I0
sg7
I0
sg8
I0
sg9
I0
ss(I1
I0
I2
I2
I0
tp92
(dp93
g5
I0
sg6
I0
sg7
I0
sg8
I0
sg9
I0
ss(I1
I1
I0
I2
I1
tp94
(dp95
g5
F4.021280821519351
sg6
F-1.1964859560282095
sg7
F-37.98603835835416
sg8
F-1.999897449139702
sg9
I0
ss(I1
I1
I0
I1
I1
tp96
(dp97
g5
F0.0048973498735931115
sg6
F0.026960662362809792
sg7
F-35.891172551044974
sg8
F0.0023221885871989945
sg9
I0
ss(I2
I0
I2
I1
I1
tp98
(dp99
g5
I0
sg6
I0
sg7
I0
sg8
I0
sg9
I0
ss(I0
I2
I2
I0
I0
tp100
(dp101
g5
I0
sg6
I0
sg7
I0
sg8
I0
sg9
I0
ss(I1
I0
I1
I2
I0
tp102
(dp103
g5
I0
sg6
I0
sg7
I0
sg8
I0
sg9
I0
ss(I1
I1
I1
I2
I1
tp104
(dp105
g5
I0
sg6
I0
sg7
I0
sg8
I0
sg9
I0
ss(I2
I0
I0
I1
I0
tp106
(dp107
g5
I0
sg6
I0
sg7
I0
sg8
I0
sg9
I0
ss(I0
I0
I2
I2
I1
tp108
(dp109
g5
I0
sg6
I0
sg7
I0
sg8
I0
sg9
I0
ss(I1
I0
I0
I1
I0
tp110
(dp111
g5
I0
sg6
I0
sg7
I0
sg8
I0
sg9
I0
ss(I0
I0
I2
I1
I1
tp112
(dp113
g5
I0
sg6
I0
sg7
I0
sg8
I0
sg9
I0
ss(I1
I1
I0
I0
I0
tp114
(dp115
g5
I0
sg6
I0
sg7
I0
sg8
I0
sg9
I0
ss(I2
I1
I2
I0
I0
tp116
(dp117
g5
I0
sg6
I0
sg7
I0
sg8
I0
sg9
I0
ss(I2
I2
I2
I2
I0
tp118
(dp119
g5
I0
sg6
I0
sg7
I0
sg8
I0
sg9
I0
ss(I1
I2
I2
I0
I1
tp120
(dp121
g5
I0
sg6
I0
sg7
I0
sg8
I0
sg9
I0
ss(I0
I0
I1
I0
I0
tp122
(dp123
g5
I0
sg6
I0
sg7
I0
sg8
I0
sg9
I0
ss(I1
I2
I1
I0
I1
tp124
(dp125
g5
I0
sg6
I0
sg7
I0
sg8
I0
sg9
I0
ss(I0
I1
I1
I0
I0
tp126
(dp127
g5
I0
sg6
I0
sg7
I0
sg8
I0
sg9
I0
ss(I1
I2
I2
I1
I1
tp128
(dp129
g5
I0
sg6
I0
sg7
I0
sg8
I0
sg9
I0
ss(I2
I1
I1
I0
I0
tp130
(dp131
g5
I0
sg6
I0
sg7
I0
sg8
I0
sg9
I0
ss(I1
I2
I0
I0
I1
tp132
(dp133
g5
F-5.634418088292525
sg6
F1.6418055191408643
sg7
F-31.027412174665628
sg8
F6.000009517287547
sg9
I0
ss(I1
I2
I2
I2
I0
tp134
(dp135
g5
I0
sg6
I0
sg7
I0
sg8
I0
sg9
I0
ss(I0
I1
I2
I1
I0
tp136
(dp137
g5
I0
sg6
I0
sg7
I0
sg8
I0
sg9
I0
ss(I2
I0
I1
I0
I0
tp138
(dp139
g5
I0
sg6
I0
sg7
I0
sg8
I0
sg9
I0
ss(I1
I1
I1
I1
I0
tp140
(dp141
g5
I0
sg6
I0
sg7
I0
sg8
I0
sg9
I0
ss(I2
I1
I2
I2
I0
tp142
(dp143
g5
I0
sg6
I0
sg7
I0
sg8
I0
sg9
I0
ss(I2
I1
I2
I1
I1
tp144
(dp145
g5
I0
sg6
I0
sg7
I0
sg8
I0
sg9
I0
ss(I2
I0
I2
I1
I0
tp146
(dp147
g5
I0
sg6
I0
sg7
I0
sg8
I0
sg9
I0
ss(I1
I1
I0
I2
I0
tp148
(dp149
g5
I0
sg6
I0
sg7
I0
sg8
I0
sg9
I0
ss(I2
I1
I2
I0
I1
tp150
(dp151
g5
I0
sg6
I0
sg7
I0
sg8
I0
sg9
I0
ss(I2
I1
I1
I0
I1
tp152
(dp153
g5
I0
sg6
I0
sg7
I0
sg8
I0
sg9
I0
ss(I1
I1
I2
I0
I0
tp154
(dp155
g5
I0
sg6
I0
sg7
I0
sg8
I0
sg9
I0
ss(I0
I0
I1
I0
I1
tp156
(dp157
g5
I0
sg6
I0
sg7
I0
sg8
I0
sg9
I0
ss(I0
I0
I2
I2
I0
tp158
(dp159
g5
I0
sg6
I0
sg7
I0
sg8
I0
sg9
I0
ss(I1
I1
I0
I0
I1
tp160
(dp161
g5
F-3.057408341191807
sg6
F3.0878257703905803
sg7
F-33.59832394162758
sg8
F2.9883872575008326
sg9
I0
ss(I0
I1
I0
I0
I1
tp162
(dp163
g5
F-1.0063936835544354
sg6
F-1.1188635817851398
sg7
F-30.152174630015157
sg8
F4.490891444874081
sg9
I0
ss(I1
I2
I2
I0
I0
tp164
(dp165
g5
I0
sg6
I0
sg7
I0
sg8
I0
sg9
I0
ss(I2
I1
I0
I0
I0
tp166
(dp167
g5
I0
sg6
I0
sg7
I0
sg8
I0
sg9
I0
ss(I2
I1
I2
I2
I1
tp168
(dp169
g5
I0
sg6
I0
sg7
I0
sg8
I0
sg9
I0
ss(I1
I2
I1
I0
I0
tp170
(dp171
g5
I0
sg6
I0
sg7
I0
sg8
I0
sg9
I0
ss(I2
I0
I0
I0
I1
tp172
(dp173
g5
F-1.7564317085824064
sg6
F8.021259026702502
sg7
F-26.743093598158087
sg8
F-1.8348897117493614
sg9
I0
ss(I1
I2
I2
I1
I0
tp174
(dp175
g5
I0
sg6
I0
sg7
I0
sg8
I0
sg9
I0
ss(I0
I2
I2
I1
I0
tp176
(dp177
g5
I0
sg6
I0
sg7
I0
sg8
I0
sg9
I0
ss(I2
I0
I1
I0
I1
tp178
(dp179
g5
I0
sg6
I0
sg7
I0
sg8
I0
sg9
I0
ss(I2
I1
I2
I1
I0
tp180
(dp181
g5
I0
sg6
I0
sg7
I0
sg8
I0
sg9
I0
ss(I1
I0
I0
I0
I0
tp182
(dp183
g5
I0
sg6
I0
sg7
I0
sg8
I0
sg9
I0
ss(I0
I0
I0
I2
I0
tp184
(dp185
g5
I0
sg6
I0
sg7
I0
sg8
I0
sg9
I0
ss(I2
I2
I1
I2
I0
tp186
(dp187
g5
I0
sg6
I0
sg7
I0
sg8
I0
sg9
I0
ss(I0
I2
I1
I1
I0
tp188
(dp189
g5
I0
sg6
I0
sg7
I0
sg8
I0
sg9
I0
ss(I2
I2
I0
I1
I0
tp190
(dp191
g5
I0
sg6
I0
sg7
I0
sg8
I0
sg9
I0
ss(I1
I1
I2
I0
I1
tp192
(dp193
g5
I0
sg6
I0
sg7
I0
sg8
I0
sg9
I0
ss(I2
I1
I0
I0
I1
tp194
(dp195
g5
F-5.631092007531672
sg6
F6.07629429683902
sg7
F-34.1363578212482
sg8
F1.652706970304731
sg9
I0
ss(I0
I1
I0
I2
I1
tp196
(dp197
g5
F6.331005545728908
sg6
F-5.9976767106819
sg7
F-35.16553825420786
sg8
F5.044407848056185e-05
sg9
I0
ss(I0
I1
I1
I1
I0
tp198
(dp199
g5
I0
sg6
I0
sg7
I0
sg8
I0
sg9
I0
ss(I0
I1
I0
I0
I0
tp200
(dp201
g5
I0
sg6
I0
sg7
I0
sg8
I0
sg9
I0
ss(I0
I2
I0
I0
I1
tp202
(dp203
g5
F-3.59954833984375
sg6
F-1.7264415013675598
sg7
F-27.94873046875
sg8
F8.436216004187177
sg9
I0
ss(I0
I1
I2
I0
I0
tp204
(dp205
g5
I0
sg6
I0
sg7
I0
sg8
I0
sg9
I0
ss(I1
I1
I1
I0
I0
tp206
(dp207
g5
I0
sg6
I0
sg7
I0
sg8
I0
sg9
I0
ss(I1
I0
I2
I1
I1
tp208
(dp209
g5
I0
sg6
I0
sg7
I0
sg8
I0
sg9
I0
ss(I2
I0
I0
I0
I0
tp210
(dp211
g5
I0
sg6
I0
sg7
I0
sg8
I0
sg9
I0
ss(I1
I1
I2
I1
I0
tp212
(dp213
g5
I0
sg6
I0
sg7
I0
sg8
I0
sg9
I0
ss(I1
I0
I2
I0
I0
tp214
(dp215
g5
I0
sg6
I0
sg7
I0
sg8
I0
sg9
I0
ss(I1
I0
I1
I0
I1
tp216
(dp217
g5
I0
sg6
I0
sg7
I0
sg8
I0
sg9
I0
ss(I0
I2
I2
I1
I1
tp218
(dp219
g5
I0
sg6
I0
sg7
I0
sg8
I0
sg9
I0
ss(I2
I2
I0
I2
I1
tp220
(dp221
g5
F1.8755254307146514e-08
sg6
F0.024475558057128737
sg7
F-41.99952374829175
sg8
F0.48982415516986577
sg9
I0
ss(I0
I2
I0
I2
I0
tp222
(dp223
g5
I0
sg6
I0
sg7
I0
sg8
I0
sg9
I0
ss(I2
I2
I1
I1
I1
tp224
(dp225
g5
I0
sg6
I0
sg7
I0
sg8
I0
sg9
I0
ss(I1
I0
I0
I0
I1
tp226
(dp227
g5
F-0.08574411505475943
sg6
F5.077574196977066
sg7
F-30.137152094651142
sg8
F-1.252242466777783
sg9
I0
ss(I2
I1
I0
I2
I0
tp228
(dp229
g5
I0
sg6
I0
sg7
I0
sg8
I0
sg9
I0
ss(I0
I2
I2
I2
I0
tp230
(dp231
g5
I0
sg6
I0
sg7
I0
sg8
I0
sg9
I0
ss(I0
I2
I2
I2
I1
tp232
(dp233
g5
I0
sg6
I0
sg7
I0
sg8
I0
sg9
I0
ss(I2
I2
I0
I1
I1
tp234
(dp235
g5
F-3.9703420286625057
sg6
F2.000782881205678
sg7
F-39.9587234872474
sg8
F2.000001195998659
sg9
I0
ss(I2
I0
I2
I2
I1
tp236
(dp237
g5
I0
sg6
I0
sg7
I0
sg8
I0
sg9
I0
ss(I0
I1
I0
I1
I1
tp238
(dp239
g5
F2.0713401511428793
sg6
F-3.814300633434632
sg7
F-33.97911089980886
sg8
F2.002182692434319
sg9
I0
ss(I1
I2
I1
I1
I0
tp240
(dp241
g5
I0
sg6
I0
sg7
I0
sg8
I0
sg9
I0
ss(I0
I1
I0
I2
I0
tp242
(dp243
g5
I0
sg6
I0
sg7
I0
sg8
I0
sg9
I0
ss(I0
I1
I1
I2
I1
tp244
(dp245
g5
I0
sg6
I0
sg7
I0
sg8
I0
sg9
I0
ss(I1
I1
I2
I2
I1
tp246
(dp247
g5
I0
sg6
I0
sg7
I0
sg8
I0
sg9
I0
ss(I0
I1
I1
I1
I1
tp248
(dp249
g5
I0
sg6
I0
sg7
I0
sg8
I0
sg9
I0
ss(I1
I2
I0
I2
I0
tp250
(dp251
g5
I0
sg6
I0
sg7
I0
sg8
I0
sg9
I0
ss(I0
I0
I2
I0
I0
tp252
(dp253
g5
I0
sg6
I0
sg7
I0
sg8
I0
sg9
I0
ss(I0
I2
I0
I0
I0
tp254
(dp255
g5
I0
sg6
I0
sg7
I0
sg8
I0
sg9
I0
ss(I0
I1
I2
I0
I1
tp256
(dp257
g5
I0
sg6
I0
sg7
I0
sg8
I0
sg9
I0
ss(I1
I1
I1
I0
I1
tp258
(dp259
g5
I0
sg6
I0
sg7
I0
sg8
I0
sg9
I0
ss(I0
I0
I0
I2
I1
tp260
(dp261
g5
F8.26858820051506
sg6
F-3.999591921660921
sg7
F-32.82202624398231
sg8
F-3.9795892775938513
sg9
I0
ss(I1
I0
I2
I1
I0
tp262
(dp263
g5
I0
sg6
I0
sg7
I0
sg8
I0
sg9
I0
ss(I1
I1
I2
I1
I1
tp264
(dp265
g5
I0
sg6
I0
sg7
I0
sg8
I0
sg9
I0
ss(I0
I0
I1
I1
I1
tp266
(dp267
g5
I0
sg6
I0
sg7
I0
sg8
I0
sg9
I0
ss(I1
I0
I1
I0
I0
tp268
(dp269
g5
I0
sg6
I0
sg7
I0
sg8
I0
sg9
I0
ss(I0
I0
I1
I2
I1
tp270
(dp271
g5
I0
sg6
I0
sg7
I0
sg8
I0
sg9
I0
ss(I2
I0
I2
I2
I0
tp272
(dp273
g5
I0
sg6
I0
sg7
I0
sg8
I0
sg9
I0
ss(I0
I2
I0
I2
I1
tp274
(dp275
g5
F4.00000004516419
sg6
F-6.966920655076638
sg7
F-37.950812298255904
sg8
F4.333326623099746
sg9
I0
ss(I0
I0
I0
I0
I1
tp276
(dp277
g5
F1.9592965129938955
sg6
F1.7776951679732707
sg7
F-27.540183146113975
sg8
F1.792706053705272
sg9
I0
ss(I2
I2
I1
I1
I0
tp278
(dp279
g5
I0
sg6
I0
sg7
I0
sg8
I0
sg9
I0
ss(I0
I0
I0
I0
I0
tp280
(dp281
g5
I0
sg6
I0
sg7
I0
sg8
I0
sg9
I0
ss(I2
I2
I0
I2
I0
tp282
(dp283
g5
I0
sg6
I0
sg7
I0
sg8
I0
sg9
I0
ss(I1
I2
I0
I1
I1
tp284
(dp285
g5
F-1.9999341504207488
sg6
F-1.9999977224617254
sg7
F-37.911357698007464
sg8
F4.775825875086992
sg9
I0
ss(I2
I0
I1
I1
I0
tp286
(dp287
g5
I0
sg6
I0
sg7
I0
sg8
I0
sg9
I0
ss(I0
I1
I0
I1
I0
tp288
(dp289
g5
I0
sg6
I0
sg7
I0
sg8
I0
sg9
I0
ss(I1
I2
I1
I2
I1
tp290
(dp291
g5
I0
sg6
I0
sg7
I0
sg8
I0
sg9
I0
ss(I1
I2
I1
I1
I1
tp292
(dp293
g5
I0
sg6
I0
sg7
I0
sg8
I0
sg9
I0
ss(I0
I2
I1
I0
I0
tp294
(dp295
g5
I0
sg6
I0
sg7
I0
sg8
I0
sg9
I0
ss(I0
I1
I1
I2
I0
tp296
(dp297
g5
I0
sg6
I0
sg7
I0
sg8
I0
sg9
I0
ss(I0
I0
I0
I1
I0
tp298
(dp299
g5
I0
sg6
I0
sg7
I0
sg8
I0
sg9
I0
ss(I1
I1
I2
I2
I0
tp300
(dp301
g5
I0
sg6
I0
sg7
I0
sg8
I0
sg9
I0
ss(I1
I2
I0
I2
I1
tp302
(dp303
g5
F2.008460637907363
sg6
F-3.9990442276101668
sg7
F-39.44731880764708
sg8
F2.0010863055980916
sg9
I0
ss(I2
I1
I1
I2
I1
tp304
(dp305
g5
I0
sg6
I0
sg7
I0
sg8
I0
sg9
I0
ss(I2
I0
I1
I2
I0
tp306
(dp307
g5
I0
sg6
I0
sg7
I0
sg8
I0
sg9
I0
ss(I2
I1
I0
I1
I1
tp308
(dp309
g5
F-1.99998427002694
sg6
F4.000019304722158
sg7
F-37.5253027565339
sg8
F-1.991499827030749
sg9
I0
ss(I1
I2
I0
I1
I0
tp310
(dp311
g5
I0
sg6
I0
sg7
I0
sg8
I0
sg9
I0
ss(I2
I2
I2
I0
I1
tp312
(dp313
g5
I0
sg6
I0
sg7
I0
sg8
I0
sg9
I0
ss(I2
I1
I0
I2
I1
tp314
(dp315
g5
F2.169975391961892
sg6
F2.0020797472743985
sg7
F-39.995307179984806
sg8
F-3.994059263096848
sg9
I0
ss(I0
I2
I1
I2
I0
tp316
(dp317
g5
I0
sg6
I0
sg7
I0
sg8
I0
sg9
I0
ss(I0
I0
I1
I1
I0
tp318
(dp319
g5
I0
sg6
I0
sg7
I0
sg8
I0
sg9
I0
ss(I2
I2
I0
I0
I0
tp320
(dp321
g5
I0
sg6
I0
sg7
I0
sg8
I0
sg9
I0
ss(I0
I2
I1
I0
I1
tp322
(dp323
g5
I0
sg6
I0
sg7
I0
sg8
I0
sg9
I0
ss(I2
I0
I0
I2
I0
tp324
(dp325
g5
I0
sg6
I0
sg7
I0
sg8
I0
sg9
I0
ss(I0
I0
I0
I1
I1
tp326
(dp327
g5
F4.080111677745766
sg6
F-1.8319341540542977
sg7
F-31.064009305455006
sg8
F-1.9736808923086124
sg9
I0
ss(I0
I0
I1
I2
I0
tp328
(dp329
g5
I0
sg6
I0
sg7
I0
sg8
I0
sg9
I0
ss(I1
I0
I2
I0
I1
tp330
(dp331
g5
I0
sg6
I0
sg7
I0
sg8
I0
sg9
I0
ssa(dp332
(I0
I2
I0
I1
I0
tp333
(dp334
g5
I0
sg6
I0
sg7
I0
sg8
I0
sg9
I0
ss(I2
I0
I1
I1
I1
tp335
(dp336
g5
F-0.8542330506438653
sg6
F5.159327129473639
sg7
F-36.53889285337703
sg8
I0
sg9
F-1.5079244290784932
ss(I1
I2
I1
I2
I0
tp337
(dp338
g5
I0
sg6
I0
sg7
I0
sg8
I0
sg9
I0
ss(I2
I2
I2
I0
I0
tp339
(dp340
g5
I0
sg6
I0
sg7
I0
sg8
I0
sg9
I0
ss(I2
I0
I2
I0
I1
tp341
(dp342
g5
F-7.977390270786873
sg6
F4.1955220865221685
sg7
F-37.73580664404205
sg8
I0
sg9
F4.556523598475521
ss(I1
I0
I0
I2
I0
tp343
(dp344
g5
I0
sg6
I0
sg7
I0
sg8
I0
sg9
I0
ss(I2
I0
I0
I1
I1
tp345
(dp346
g5
F0.37467446890129075
sg6
F6.061173299726422
sg7
F-34.49173438444453
sg8
I0
sg9
F-3.786076596448004
ss(I2
I1
I1
I1
I0
tp347
(dp348
g5
I0
sg6
I0
sg7
I0
sg8
I0
sg9
I0
ss(I0
I2
I1
I2
I1
tp349
(dp350
g5
I0
sg6
I0
sg7
I0
sg8
I0
sg9
I0
ss(I2
I1
I1
I2
I0
tp351
(dp352
g5
I0
sg6
I0
sg7
I0
sg8
I0
sg9
I0
ss(I1
I0
I1
I1
I0
tp353
(dp354
g5
I0
sg6
I0
sg7
I0
sg8
I0
sg9
I0
ss(I2
I0
I1
I2
I1
tp355
(dp356
g5
F2.0214184012985292
sg6
F2.0070774717035484
sg7
F-39.97713088461201
sg8
I0
sg9
F-3.988662630175308
ss(I2
I2
I2
I1
I0
tp357
(dp358
g5
I0
sg6
I0
sg7
I0
sg8
I0
sg9
I0
ss(I2
I1
I0
I1
I0
tp359
(dp360
g5
I0
sg6
I0
sg7
I0
sg8
I0
sg9
I0
ss(I2
I2
I1
I0
I0
tp361
(dp362
g5
I0
sg6
I0
sg7
I0
sg8
I0
sg9
I0
ss(I0
I1
I2
I2
I0
tp363
(dp364
g5
I0
sg6
I0
sg7
I0
sg8
I0
sg9
I0
ss(I2
I2
I2
I2
I1
tp365
(dp366
g5
I0
sg6
I0
sg7
I0
sg8
I0
sg9
I0
ss(I1
I0
I2
I2
I1
tp367
(dp368
g5
F2.0842873508906634
sg6
F-3.9799592376022552
sg7
F-39.998508006519934
sg8
I0
sg9
F2.197886546900158
ss(I0
I2
I1
I1
I1
tp369
(dp370
g5
I0
sg6
I0
sg7
I0
sg8
I0
sg9
I0
ss(I2
I0
I0
I2
I1
tp371
(dp372
g5
F4.0017180277848405
sg6
F4.060424759834126
sg7
F-37.99076181788274
sg8
I0
sg9
F-6.83211122053698
ss(I2
I1
I1
I1
I1
tp373
(dp374
g5
I0
sg6
I0
sg7
I0
sg8
I0
sg9
I0
ss(I1
I1
I0
I1
I0
tp375
(dp376
g5
I0
sg6
I0
sg7
I0
sg8
I0
sg9
I0
ss(I0
I2
I2
I0
I1
tp377
(dp378
g5
I0
sg6
I0
sg7
I0
sg8
I0
sg9
I0
ss(I2
I2
I1
I2
I1
tp379
(dp380
g5
I0
sg6
I0
sg7
I0
sg8
I0
sg9
I0
ss(I1
I0
I1
I2
I1
tp381
(dp382
g5
F4.742766647697728
sg6
F-1.6109953485385908
sg7
F-37.81977033151965
sg8
I0
sg9
F-1.9106489045333315
ss(I0
I2
I0
I1
I1
tp383
(dp384
g5
I0
sg6
I0
sg7
I0
sg8
I0
sg9
I0
ss(I1
I1
I1
I2
I0
tp385
(dp386
g5
I0
sg6
I0
sg7
I0
sg8
I0
sg9
I0
ss(I1
I0
I0
I1
I1
tp387
(dp388
g5
F2.245250240364647
sg6
F2.1567162582259756
sg7
F-33.96783231003063
sg8
I0
sg9
F-3.7591241649951552
ss(I2
I0
I2
I0
I0
tp389
(dp390
g5
I0
sg6
I0
sg7
I0
sg8
I0
sg9
I0
ss(I0
I0
I2
I1
I0
tp391
(dp392
g5
I0
sg6
I0
sg7
I0
sg8
I0
sg9
I0
ss(I1
I0
I0
I2
I1
tp393
(dp394
g5
F6.033473339869654
sg6
F0.023715649526547686
sg7
F-34.1154338023587
sg8
I0
sg9
F-5.575685525924128
ss(I2
I2
I0
I0
I1
tp395
(dp396
g5
I0
sg6
I0
sg7
I0
sg8
I0
sg9
I0
ss(I1
I0
I1
I1
I1
tp397
(dp398
g5
F0.08238320162086585
sg6
F0.08010607065004233
sg7
F-35.12154962154686
sg8
I0
sg9
F0.012487890007227925
ss(I2
I2
I2
I1
I1
tp399
(dp400
g5
I0
sg6
I0
sg7
I0
sg8
I0
sg9
I0
ss(I2
I2
I1
I0
I1
tp401
(dp402
g5
I0
sg6
I0
sg7
I0
sg8
I0
sg9
I0
ss(I0
I0
I2
I0
I1
tp403
(dp404
g5
F-3.997323198654157
sg6
F-3.953498977692024
sg7
F-33.230798895239715
sg8
I0
sg9
F8.124496038360538
ss(I1
I2
I2
I2
I1
tp405
(dp406
g5
I0
sg6
I0
sg7
I0
sg8
I0
sg9
I0
ss(I0
I1
I1
I0
I1
tp407
(dp408
g5
I0
sg6
I0
sg7
I0
sg8
I0
sg9
I0
ss(I1
I2
I0
I0
I0
tp409
(dp410
g5
I0
sg6
I0
sg7
I0
sg8
I0
sg9
I0
ss(I0
I1
I2
I1
I1
tp411
(dp412
g5
I0
sg6
I0
sg7
I0
sg8
I0
sg9
I0
ss(I1
I1
I1
I1
I1
tp413
(dp414
g5
I0
sg6
I0
sg7
I0
sg8
I0
sg9
I0
ss(I0
I1
I2
I2
I1
tp415
(dp416
g5
I0
sg6
I0
sg7
I0
sg8
I0
sg9
I0
ss(I1
I0
I2
I2
I0
tp417
(dp418
g5
I0
sg6
I0
sg7
I0
sg8
I0
sg9
I0
ss(I1
I1
I0
I2
I1
tp419
(dp420
g5
I0
sg6
I0
sg7
I0
sg8
I0
sg9
I0
ss(I1
I1
I0
I1
I1
tp421
(dp422
g5
I0
sg6
I0
sg7
I0
sg8
I0
sg9
I0
ss(I2
I0
I2
I1
I1
tp423
(dp424
g5
F-3.983417911323672
sg6
F2.086172331197934
sg7
F-39.97926976188451
sg8
I0
sg9
F2.1162669015851363
ss(I0
I2
I2
I0
I0
tp425
(dp426
g5
I0
sg6
I0
sg7
I0
sg8
I0
sg9
I0
ss(I1
I0
I1
I2
I0
tp427
(dp428
g5
I0
sg6
I0
sg7
I0
sg8
I0
sg9
I0
ss(I1
I1
I1
I2
I1
tp429
(dp430
g5
I0
sg6
I0
sg7
I0
sg8
I0
sg9
I0
ss(I2
I0
I0
I1
I0
tp431
(dp432
g5
I0
sg6
I0
sg7
I0
sg8
I0
sg9
I0
ss(I0
I0
I2
I2
I1
tp433
(dp434
g5
F4.688320840675032
sg6
F-7.932244127349156
sg7
F-37.420645938393186
sg8
I0
sg9
F4.0200410156292135
ss(I1
I0
I0
I1
I0
tp435
(dp436
g5
I0
sg6
I0
sg7
I0
sg8
I0
sg9
I0
ss(I0
I0
I2
I1
I1
tp437
(dp438
g5
F0.26701070486047773
sg6
F-5.962891147598148
sg7
F-35.737614519764094
sg8
I0
sg9
F6.05419197738002
ss(I1
I1
I0
I0
I0
tp439
(dp440
g5
I0
sg6
I0
sg7
I0
sg8
I0
sg9
I0
ss(I2
I1
I2
I0
I0
tp441
(dp442
g5
I0
sg6
I0
sg7
I0
sg8
I0
sg9
I0
ss(I2
I2
I2
I2
I0
tp443
(dp444
g5
I0
sg6
I0
sg7
I0
sg8
I0
sg9
I0
ss(I1
I2
I2
I0
I1
tp445
(dp446
g5
I0
sg6
I0
sg7
I0
sg8
I0
sg9
I0
ss(I0
I0
I1
I0
I0
tp447
(dp448
g5
I0
sg6
I0
sg7
I0
sg8
I0
sg9
I0
ss(I1
I2
I1
I0
I1
tp449
(dp450
g5
I0
sg6
I0
sg7
I0
sg8
I0
sg9
I0
ss(I0
I1
I1
I0
I0
tp451
(dp452
g5
I0
sg6
I0
sg7
I0
sg8
I0
sg9
I0
ss(I1
I2
I2
I1
I1
tp453
(dp454
g5
I0
sg6
I0
sg7
I0
sg8
I0
sg9
I0
ss(I2
I1
I1
I0
I0
tp455
(dp456
g5
I0
sg6
I0
sg7
I0
sg8
I0
sg9
I0
ss(I1
I2
I0
I0
I1
tp457
(dp458
g5
I0
sg6
I0
sg7
I0
sg8
I0
sg9
I0
ss(I1
I2
I2
I2
I0
tp459
(dp460
g5
I0
sg6
I0
sg7
I0
sg8
I0
sg9
I0
ss(I0
I1
I2
I1
I0
tp461
(dp462
g5
I0
sg6
I0
sg7
I0
sg8
I0
sg9
I0
ss(I2
I0
I1
I0
I0
tp463
(dp464
g5
I0
sg6
I0
sg7
I0
sg8
I0
sg9
I0
ss(I1
I1
I1
I1
I0
tp465
(dp466
g5
I0
sg6
I0
sg7
I0
sg8
I0
sg9
I0
ss(I2
I1
I2
I2
I0
tp467
(dp468
g5
I0
sg6
I0
sg7
I0
sg8
I0
sg9
I0
ss(I2
I1
I2
I1
I1
tp469
(dp470
g5
I0
sg6
I0
sg7
I0
sg8
I0
sg9
I0
ss(I2
I0
I2
I1
I0
tp471
(dp472
g5
I0
sg6
I0
sg7
I0
sg8
I0
sg9
I0
ss(I1
I1
I0
I2
I0
tp473
(dp474
g5
I0
sg6
I0
sg7
I0
sg8
I0
sg9
I0
ss(I2
I1
I2
I0
I1
tp475
(dp476
g5
I0
sg6
I0
sg7
I0
sg8
I0
sg9
I0
ss(I2
I1
I1
I0
I1
tp477
(dp478
g5
I0
sg6
I0
sg7
I0
sg8
I0
sg9
I0
ss(I1
I1
I2
I0
I0
tp479
(dp480
g5
I0
sg6
I0
sg7
I0
sg8
I0
sg9
I0
ss(I0
I0
I1
I0
I1
tp481
(dp482
g5
F-1.90652185219933
sg6
F-1.719035162833989
sg7
F-31.476038117720137
sg8
I0
sg9
F5.400723478491301
ss(I0
I0
I2
I2
I0
tp483
(dp484
g5
I0
sg6
I0
sg7
I0
sg8
I0
sg9
I0
ss(I1
I1
I0
I0
I1
tp485
(dp486
g5
I0
sg6
I0
sg7
I0
sg8
I0
sg9
I0
ss(I0
I1
I0
I0
I1
tp487
(dp488
g5
I0
sg6
I0
sg7
I0
sg8
I0
sg9
I0
ss(I1
I2
I2
I0
I0
tp489
(dp490
g5
I0
sg6
I0
sg7
I0
sg8
I0
sg9
I0
ss(I2
I1
I0
I0
I0
tp491
(dp492
g5
I0
sg6
I0
sg7
I0
sg8
I0
sg9
I0
ss(I2
I1
I2
I2
I1
tp493
(dp494
g5
I0
sg6
I0
sg7
I0
sg8
I0
sg9
I0
ss(I1
I2
I1
I0
I0
tp495
(dp496
g5
I0
sg6
I0
sg7
I0
sg8
I0
sg9
I0
ss(I2
I0
I0
I0
I1
tp497
(dp498
g5
F-2.358062864368325
sg6
F8.44917628177139
sg7
F-29.912863338720904
sg8
I0
sg9
F-3.78350519822728
ss(I1
I2
I2
I1
I0
tp499
(dp500
g5
I0
sg6
I0
sg7
I0
sg8
I0
sg9
I0
ss(I0
I2
I2
I1
I0
tp501
(dp502
g5
I0
sg6
I0
sg7
I0
sg8
I0
sg9
I0
ss(I2
I0
I1
I0
I1
tp503
(dp504
g5
F-5.968548014932747
sg6
F6.254198578080558
sg7
F-34.21229669168105
sg8
I0
sg9
F0.021092815285272463
ss(I2
I1
I2
I1
I0
tp505
(dp506
g5
I0
sg6
I0
sg7
I0
sg8
I0
sg9
I0
ss(I1
I0
I0
I0
I0
tp507
(dp508
g5
I0
sg6
I0
sg7
I0
sg8
I0
sg9
I0
ss(I0
I0
I0
I2
I0
tp509
(dp510
g5
I0
sg6
I0
sg7
I0
sg8
I0
sg9
I0
ss(I2
I2
I1
I2
I0
tp511
(dp512
g5
I0
sg6
I0
sg7
I0
sg8
I0
sg9
I0
ss(I0
I2
I1
I1
I0
tp513
(dp514
g5
I0
sg6
I0
sg7
I0
sg8
I0
sg9
I0
ss(I2
I2
I0
I1
I0
tp515
(dp516
g5
I0
sg6
I0
sg7
I0
sg8
I0
sg9
I0
ss(I1
I1
I2
I0
I1
tp517
(dp518
g5
I0
sg6
I0
sg7
I0
sg8
I0
sg9
I0
ss(I2
I1
I0
I0
I1
tp519
(dp520
g5
I0
sg6
I0
sg7
I0
sg8
I0
sg9
I0
ss(I0
I1
I0
I2
I1
tp521
(dp522
g5
I0
sg6
I0
sg7
I0
sg8
I0
sg9
I0
ss(I0
I1
I1
I1
I0
tp523
(dp524
g5
I0
sg6
I0
sg7
I0
sg8
I0
sg9
I0
ss(I0
I1
I0
I0
I0
tp525
(dp526
g5
I0
sg6
I0
sg7
I0
sg8
I0
sg9
I0
ss(I0
I2
I0
I0
I1
tp527
(dp528
g5
I0
sg6
I0
sg7
I0
sg8
I0
sg9
I0
ss(I0
I1
I2
I0
I0
tp529
(dp530
g5
I0
sg6
I0
sg7
I0
sg8
I0
sg9
I0
ss(I1
I1
I1
I0
I0
tp531
(dp532
g5
I0
sg6
I0
sg7
I0
sg8
I0
sg9
I0
ss(I1
I0
I2
I1
I1
tp533
(dp534
g5
F-1.6917693390017035
sg6
F-1.9571346088336712
sg7
F-37.96311598938077
sg8
I0
sg9
F4.045140137839576
ss(I2
I0
I0
I0
I0
tp535
(dp536
g5
I0
sg6
I0
sg7
I0
sg8
I0
sg9
I0
ss(I1
I1
I2
I1
I0
tp537
(dp538
g5
I0
sg6
I0
sg7
I0
sg8
I0
sg9
I0
ss(I1
I0
I2
I0
I0
tp539
(dp540
g5
I0
sg6
I0
sg7
I0
sg8
I0
sg9
I0
ss(I1
I0
I1
I0
I1
tp541
(dp542
g5
F-3.9615303202648917
sg6
F2.0028879712458982
sg7
F-32.865924022853065
sg8
I0
sg9
F2.0648613531021396
ss(I0
I2
I2
I1
I1
tp543
(dp544
g5
I0
sg6
I0
sg7
I0
sg8
I0
sg9
I0
ss(I2
I2
I0
I2
I1
tp545
(dp546
g5
I0
sg6
I0
sg7
I0
sg8
I0
sg9
I0
ss(I0
I2
I0
I2
I0
tp547
(dp548
g5
I0
sg6
I0
sg7
I0
sg8
I0
sg9
I0
ss(I2
I2
I1
I1
I1
tp549
(dp550
g5
I0
sg6
I0
sg7
I0
sg8
I0
sg9
I0
ss(I1
I0
I0
I0
I1
tp551
(dp552
g5
F-1.0502371120266434
sg6
F4.005770426069684
sg7
F-31.212466779390596
sg8
I0
sg9
F-1.647826062681233
ss(I2
I1
I0
I2
I0
tp553
(dp554
g5
I0
sg6
I0
sg7
I0
sg8
I0
sg9
I0
ss(I0
I2
I2
I2
I0
tp555
(dp556
g5
I0
sg6
I0
sg7
I0
sg8
I0
sg9
I0
ss(I0
I2
I2
I2
I1
tp557
(dp558
g5
I0
sg6
I0
sg7
I0
sg8
I0
sg9
I0
ss(I2
I2
I0
I1
I1
tp559
(dp560
g5
I0
sg6
I0
sg7
I0
sg8
I0
sg9
I0
ss(I2
I0
I2
I2
I1
tp561
(dp562
g5
F2.9550101269913104e-06
sg6
F9.905887986927772e-08
sg7
F-41.98799650279108
sg8
I0
sg9
F1.5716219436214266e-05
ss(I0
I1
I0
I1
I1
tp563
(dp564
g5
I0
sg6
I0
sg7
I0
sg8
I0
sg9
I0
ss(I1
I2
I1
I1
I0
tp565
(dp566
g5
I0
sg6
I0
sg7
I0
sg8
I0
sg9
I0
ss(I0
I1
I0
I2
I0
tp567
(dp568
g5
I0
sg6
I0
sg7
I0
sg8
I0
sg9
I0
ss(I0
I1
I1
I2
I1
tp569
(dp570
g5
I0
sg6
I0
sg7
I0
sg8
I0
sg9
I0
ss(I1
I1
I2
I2
I1
tp571
(dp572
g5
I0
sg6
I0
sg7
I0
sg8
I0
sg9
I0
ss(I0
I1
I1
I1
I1
tp573
(dp574
g5
I0
sg6
I0
sg7
I0
sg8
I0
sg9
I0
ss(I1
I2
I0
I2
I0
tp575
(dp576
g5
I0
sg6
I0
sg7
I0
sg8
I0
sg9
I0
ss(I0
I0
I2
I0
I0
tp577
(dp578
g5
I0
sg6
I0
sg7
I0
sg8
I0
sg9
I0
ss(I0
I2
I0
I0
I0
tp579
(dp580
g5
I0
sg6
I0
sg7
I0
sg8
I0
sg9
I0
ss(I0
I1
I2
I0
I1
tp581
(dp582
g5
I0
sg6
I0
sg7
I0
sg8
I0
sg9
I0
ss(I1
I1
I1
I0
I1
tp583
(dp584
g5
I0
sg6
I0
sg7
I0
sg8
I0
sg9
I0
ss(I0
I0
I0
I2
I1
tp585
(dp586
g5
F8.170168834640327
sg6
F-3.103109359893563
sg7
F-32.390461132928635
sg8
I0
sg9
F-3.766307912726879
ss(I1
I0
I2
I1
I0
tp587
(dp588
g5
I0
sg6
I0
sg7
I0
sg8
I0
sg9
I0
ss(I1
I1
I2
I1
I1
tp589
(dp590
g5
I0
sg6
I0
sg7
I0
sg8
I0
sg9
I0
ss(I0
I0
I1
I1
I1
tp591
(dp592
g5
F3.1573138410162196
sg6
F-3.510127023692015
sg7
F-33.90305958727169
sg8
I0
sg9
F2.044389700198758
ss(I1
I0
I1
I0
I0
tp593
(dp594
g5
I0
sg6
I0
sg7
I0
sg8
I0
sg9
I0
ss(I0
I0
I1
I2
I1
tp595
(dp596
g5
F6.156559145176252
sg6
F-3.6202991516136445
sg7
F-35.06668314150513
sg8
I0
sg9
F0.8567195605972578
ss(I2
I0
I2
I2
I0
tp597
(dp598
g5
I0
sg6
I0
sg7
I0
sg8
I0
sg9
I0
ss(I0
I2
I0
I2
I1
tp599
(dp600
g5
I0
sg6
I0
sg7
I0
sg8
I0
sg9
I0
ss(I0
I0
I0
I0
I1
tp601
(dp602
g5
F0.7173816897557717
sg6
F0.732886284329023
sg7
F-29.057372970082007
sg8
I0
sg9
F1.8276807386932525
ss(I2
I2
I1
I1
I0
tp603
(dp604
g5
I0
sg6
I0
sg7
I0
sg8
I0
sg9
I0
ss(I0
I0
I0
I0
I0
tp605
(dp606
g5
I0
sg6
I0
sg7
I0
sg8
I0
sg9
I0
ss(I2
I2
I0
I2
I0
tp607
(dp608
g5
I0
sg6
I0
sg7
I0
sg8
I0
sg9
I0
ss(I1
I2
I0
I1
I1
tp609
(dp610
g5
I0
sg6
I0
sg7
I0
sg8
I0
sg9
I0
ss(I2
I0
I1
I1
I0
tp611
(dp612
g5
I0
sg6
I0
sg7
I0
sg8
I0
sg9
I0
ss(I0
I1
I0
I1
I0
tp613
(dp614
g5
I0
sg6
I0
sg7
I0
sg8
I0
sg9
I0
ss(I1
I2
I1
I2
I1
tp615
(dp616
g5
I0
sg6
I0
sg7
I0
sg8
I0
sg9
I0
ss(I1
I2
I1
I1
I1
tp617
(dp618
g5
I0
sg6
I0
sg7
I0
sg8
I0
sg9
I0
ss(I0
I2
I1
I0
I0
tp619
(dp620
g5
I0
sg6
I0
sg7
I0
sg8
I0
sg9
I0
ss(I0
I1
I1
I2
I0
tp621
(dp622
g5
I0
sg6
I0
sg7
I0
sg8
I0
sg9
I0
ss(I0
I0
I0
I1
I0
tp623
(dp624
g5
I0
sg6
I0
sg7
I0
sg8
I0
sg9
I0
ss(I1
I1
I2
I2
I0
tp625
(dp626
g5
I0
sg6
I0
sg7
I0
sg8
I0
sg9
I0
ss(I1
I2
I0
I2
I1
tp627
(dp628
g5
I0
sg6
I0
sg7
I0
sg8
I0
sg9
I0
ss(I2
I1
I1
I2
I1
tp629
(dp630
g5
I0
sg6
I0
sg7
I0
sg8
I0
sg9
I0
ss(I2
I0
I1
I2
I0
tp631
(dp632
g5
I0
sg6
I0
sg7
I0
sg8
I0
sg9
I0
ss(I2
I1
I0
I1
I1
tp633
(dp634
g5
I0
sg6
I0
sg7
I0
sg8
I0
sg9
I0
ss(I1
I2
I0
I1
I0
tp635
(dp636
g5
I0
sg6
I0
sg7
I0
sg8
I0
sg9
I0
ss(I2
I2
I2
I0
I1
tp637
(dp638
g5
I0
sg6
I0
sg7
I0
sg8
I0
sg9
I0
ss(I2
I1
I0
I2
I1
tp639
(dp640
g5
I0
sg6
I0
sg7
I0
sg8
I0
sg9
I0
ss(I0
I2
I1
I2
I0
tp641
(dp642
g5
I0
sg6
I0
sg7
I0
sg8
I0
sg9
I0
ss(I0
I0
I1
I1
I0
tp643
(dp644
g5
I0
sg6
I0
sg7
I0
sg8
I0
sg9
I0
ss(I2
I2
I0
I0
I0
tp645
(dp646
g5
I0
sg6
I0
sg7
I0
sg8
I0
sg9
I0
ss(I0
I2
I1
I0
I1
tp647
(dp648
g5
I0
sg6
I0
sg7
I0
sg8
I0
sg9
I0
ss(I2
I0
I0
I2
I0
tp649
(dp650
g5
I0
sg6
I0
sg7
I0
sg8
I0
sg9
I0
ss(I0
I0
I0
I1
I1
tp651
(dp652
g5
F4.9254575975975055
sg6
F-1.7924790931379078
sg7
F-31.74508366754091
sg8
I0
sg9
F-1.8159423597925164
ss(I0
I0
I1
I2
I0
tp653
(dp654
g5
I0
sg6
I0
sg7
I0
sg8
I0
sg9
I0
ss(I1
I0
I2
I0
I1
tp655
(dp656
g5
F-5.954253979903114
sg6
F0.08411766563706433
sg7
F-35.18645152196376
sg8
I0
sg9
F6.834456763758642
ssa(dp657
(I0
I2
I0
I1
I0
tp658
(dp659
g5
I0
sg6
I0
sg7
I0
sg8
I0
sg9
I0
ss(I2
I0
I1
I1
I1
tp660
(dp661
g5
I0
sg6
I0
sg7
I0
sg8
I0
sg9
I0
ss(I1
I2
I1
I2
I0
tp662
(dp663
g5
I0
sg6
I0
sg7
I0
sg8
I0
sg9
I0
ss(I2
I2
I2
I0
I0
tp664
(dp665
g5
I0
sg6
I0
sg7
I0
sg8
I0
sg9
I0
ss(I2
I0
I2
I0
I1
tp666
(dp667
g5
I0
sg6
I0
sg7
I0
sg8
I0
sg9
I0
ss(I1
I0
I0
I2
I0
tp668
(dp669
g5
I0
sg6
I0
sg7
I0
sg8
I0
sg9
I0
ss(I2
I0
I0
I1
I1
tp670
(dp671
g5
I0
sg6
I0
sg7
I0
sg8
I0
sg9
I0
ss(I2
I1
I1
I1
I0
tp672
(dp673
g5
I0
sg6
I0
sg7
I0
sg8
I0
sg9
I0
ss(I0
I2
I1
I2
I1
tp674
(dp675
g5
F360.2987711624074
sg6
I0
sg7
F309.5456402568328
sg8
F359.9443751245167
sg9
F352.670806594621
ss(I2
I1
I1
I2
I0
tp676
(dp677
g5
I0
sg6
I0
sg7
I0
sg8
I0
sg9
I0
ss(I1
I0
I1
I1
I0
tp678
(dp679
g5
I0
sg6
I0
sg7
I0
sg8
I0
sg9
I0
ss(I2
I0
I1
I2
I1
tp680
(dp681
g5
I0
sg6
I0
sg7
I0
sg8
I0
sg9
I0
ss(I2
I2
I2
I1
I0
tp682
(dp683
g5
I0
sg6
I0
sg7
I0
sg8
I0
sg9
I0
ss(I2
I1
I0
I1
I0
tp684
(dp685
g5
I0
sg6
I0
sg7
I0
sg8
I0
sg9
I0
ss(I2
I2
I1
I0
I0
tp686
(dp687
g5
I0
sg6
I0
sg7
I0
sg8
I0
sg9
I0
ss(I0
I1
I2
I2
I0
tp688
(dp689
g5
I0
sg6
I0
sg7
I0
sg8
I0
sg9
I0
ss(I2
I2
I2
I2
I1
tp690
(dp691
g5
I0
sg6
I0
sg7
I0
sg8
I0
sg9
I0
ss(I1
I0
I2
I2
I1
tp692
(dp693
g5
I0
sg6
I0
sg7
I0
sg8
I0
sg9
I0
ss(I0
I2
I1
I1
I1
tp694
(dp695
g5
F352.3922350612912
sg6
I0
sg7
F306.3202269959606
sg8
F357.15005858048283
sg9
F353.17215113496076
ss(I2
I0
I0
I2
I1
tp696
(dp697
g5
I0
sg6
I0
sg7
I0
sg8
I0
sg9
I0
ss(I2
I1
I1
I1
I1
tp698
(dp699
g5
I0
sg6
I0
sg7
I0
sg8
I0
sg9
I0
ss(I1
I1
I0
I1
I0
tp700
(dp701
g5
I0
sg6
I0
sg7
I0
sg8
I0
sg9
I0
ss(I0
I2
I2
I0
I1
tp702
(dp703
g5
F338.49722630331513
sg6
I0
sg7
F284.6683582602161
sg8
F346.26835561292904
sg9
F345.5131152175771
ss(I2
I2
I1
I2
I1
tp704
(dp705
g5
I0
sg6
I0
sg7
I0
sg8
I0
sg9
I0
ss(I1
I0
I1
I2
I1
tp706
(dp707
g5
I0
sg6
I0
sg7
I0
sg8
I0
sg9
I0
ss(I0
I2
I0
I1
I1
tp708
(dp709
g5
F354.208372816095
sg6
I0
sg7
F305.3530795067605
sg8
F358.45057723025326
sg9
F347.99567921407686
ss(I1
I1
I1
I2
I0
tp710
(dp711
g5
I0
sg6
I0
sg7
I0
sg8
I0
sg9
I0
ss(I1
I0
I0
I1
I1
tp712
(dp713
g5
I0
sg6
I0
sg7
I0
sg8
I0
sg9
I0
ss(I2
I0
I2
I0
I0
tp714
(dp715
g5
I0
sg6
I0
sg7
I0
sg8
I0
sg9
I0
ss(I0
I0
I2
I1
I0
tp716
(dp717
g5
I0
sg6
I0
sg7
I0
sg8
I0
sg9
I0
ss(I1
I0
I0
I2
I1
tp718
(dp719
g5
I0
sg6
I0
sg7
I0
sg8
I0
sg9
I0
ss(I2
I2
I0
I0
I1
tp720
(dp721
g5
I0
sg6
I0
sg7
I0
sg8
I0
sg9
I0
ss(I1
I0
I1
I1
I1
tp722
(dp723
g5
I0
sg6
I0
sg7
I0
sg8
I0
sg9
I0
ss(I2
I2
I2
I1
I1
tp724
(dp725
g5
I0
sg6
I0
sg7
I0
sg8
I0
sg9
I0
ss(I2
I2
I1
I0
I1
tp726
(dp727
g5
I0
sg6
I0
sg7
I0
sg8
I0
sg9
I0
ss(I0
I0
I2
I0
I1
tp728
(dp729
g5
F234.93755561744007
sg6
I0
sg7
F186.1365133047615
sg8
F210.5541522539987
sg9
F349.981902746553
ss(I1
I2
I2
I2
I1
tp730
(dp731
g5
I0
sg6
I0
sg7
I0
sg8
I0
sg9
I0
ss(I0
I1
I1
I0
I1
tp732
(dp733
g5
F347.1960326037284
sg6
I0
sg7
F314.3671897091092
sg8
F353.0482781131788
sg9
F355.7945949070112
ss(I1
I2
I0
I0
I0
tp734
(dp735
g5
I0
sg6
I0
sg7
I0
sg8
I0
sg9
I0
ss(I0
I1
I2
I1
I1
tp736
(dp737
g5
F351.2879391716804
sg6
I0
sg7
F285.8360224719378
sg8
F349.63687929697994
sg9
F358.26657362834203
ss(I1
I1
I1
I1
I1
tp738
(dp739
g5
I0
sg6
I0
sg7
I0
sg8
I0
sg9
I0
ss(I0
I1
I2
I2
I1
tp740
(dp741
g5
F358.1567218778586
sg6
I0
sg7
F311.9606809255458
sg8
F352.1379782782991
sg9
F358.5398367287211
ss(I1
I0
I2
I2
I0
tp742
(dp743
g5
I0
sg6
I0
sg7
I0
sg8
I0
sg9
I0
ss(I1
I1
I0
I2
I1
tp744
(dp745
g5
I0
sg6
I0
sg7
I0
sg8
I0
sg9
I0
ss(I1
I1
I0
I1
I1
tp746
(dp747
g5
I0
sg6
I0
sg7
I0
sg8
I0
sg9
I0
ss(I2
I0
I2
I1
I1
tp748
(dp749
g5
I0
sg6
I0
sg7
I0
sg8
I0
sg9
I0
ss(I0
I2
I2
I0
I0
tp750
(dp751
g5
I0
sg6
I0
sg7
I0
sg8
I0
sg9
I0
ss(I1
I0
I1
I2
I0
tp752
(dp753
g5
I0
sg6
I0
sg7
I0
sg8
I0
sg9
I0
ss(I1
I1
I1
I2
I1
tp754
(dp755
g5
I0
sg6
I0
sg7
I0
sg8
I0
sg9
I0
ss(I2
I0
I0
I1
I0
tp756
(dp757
g5
I0
sg6
I0
sg7
I0
sg8
I0
sg9
I0
ss(I0
I0
I2
I2
I1
tp758
(dp759
g5
F353.63464013786705
sg6
I0
sg7
F231.96147851850884
sg8
F293.3305664632152
sg9
F331.8688349063923
ss(I1
I0
I0
I1
I0
tp760
(dp761
g5
I0
sg6
I0
sg7
I0
sg8
I0
sg9
I0
ss(I0
I0
I2
I1
I1
tp762
(dp763
g5
F276.82890462744837
sg6
I0
sg7
F229.17813939939822
sg8
F272.8442190757586
sg9
F358.24848431531376
ss(I1
I1
I0
I0
I0
tp764
(dp765
g5
I0
sg6
I0
sg7
I0
sg8
I0
sg9
I0
ss(I2
I1
I2
I0
I0
tp766
(dp767
g5
I0
sg6
I0
sg7
I0
sg8
I0
sg9
I0
ss(I2
I2
I2
I2
I0
tp768
(dp769
g5
I0
sg6
I0
sg7
I0
sg8
I0
sg9
I0
ss(I1
I2
I2
I0
I1
tp770
(dp771
g5
I0
sg6
I0
sg7
I0
sg8
I0
sg9
I0
ss(I0
I0
I1
I0
I0
tp772
(dp773
g5
I0
sg6
I0
sg7
I0
sg8
I0
sg9
I0
ss(I1
I2
I1
I0
I1
tp774
(dp775
g5
I0
sg6
I0
sg7
I0
sg8
I0
sg9
I0
ss(I0
I1
I1
I0
I0
tp776
(dp777
g5
I0
sg6
I0
sg7
I0
sg8
I0
sg9
I0
ss(I1
I2
I2
I1
I1
tp778
(dp779
g5
I0
sg6
I0
sg7
I0
sg8
I0
sg9
I0
ss(I2
I1
I1
I0
I0
tp780
(dp781
g5
I0
sg6
I0
sg7
I0
sg8
I0
sg9
I0
ss(I1
I2
I0
I0
I1
tp782
(dp783
g5
I0
sg6
I0
sg7
I0
sg8
I0
sg9
I0
ss(I1
I2
I2
I2
I0
tp784
(dp785
g5
I0
sg6
I0
sg7
I0
sg8
I0
sg9
I0
ss(I0
I1
I2
I1
I0
tp786
(dp787
g5
I0
sg6
I0
sg7
I0
sg8
I0
sg9
I0
ss(I2
I0
I1
I0
I0
tp788
(dp789
g5
I0
sg6
I0
sg7
I0
sg8
I0
sg9
I0
ss(I1
I1
I1
I1
I0
tp790
(dp791
g5
I0
sg6
I0
sg7
I0
sg8
I0
sg9
I0
ss(I2
I1
I2
I2
I0
tp792
(dp793
g5
I0
sg6
I0
sg7
I0
sg8
I0
sg9
I0
ss(I2
I1
I2
I1
I1
tp794
(dp795
g5
I0
sg6
I0
sg7
I0
sg8
I0
sg9
I0
ss(I2
I0
I2
I1
I0
tp796
(dp797
g5
I0
sg6
I0
sg7
I0
sg8
I0
sg9
I0
ss(I1
I1
I0
I2
I0
tp798
(dp799
g5
I0
sg6
I0
sg7
I0
sg8
I0
sg9
I0
ss(I2
I1
I2
I0
I1
tp800
(dp801
g5
I0
sg6
I0
sg7
I0
sg8
I0
sg9
I0
ss(I2
I1
I1
I0
I1
tp802
(dp803
g5
I0
sg6
I0
sg7
I0
sg8
I0
sg9
I0
ss(I1
I1
I2
I0
I0
tp804
(dp805
g5
I0
sg6
I0
sg7
I0
sg8
I0
sg9
I0
ss(I0
I0
I1
I0
I1
tp806
(dp807
g5
F344.1354821165114
sg6
I0
sg7
F316.5897575543957
sg8
F341.13068508142004
sg9
F354.8320767263792
ss(I0
I0
I2
I2
I0
tp808
(dp809
g5
I0
sg6
I0
sg7
I0
sg8
I0
sg9
I0
ss(I1
I1
I0
I0
I1
tp810
(dp811
g5
I0
sg6
I0
sg7
I0
sg8
I0
sg9
I0
ss(I0
I1
I0
I0
I1
tp812
(dp813
g5
F344.91095534821716
sg6
I0
sg7
F314.84500370268825
sg8
F349.9096125765165
sg9
F349.17229157146164
ss(I1
I2
I2
I0
I0
tp814
(dp815
g5
I0
sg6
I0
sg7
I0
sg8
I0
sg9
I0
ss(I2
I1
I0
I0
I0
tp816
(dp817
g5
I0
sg6
I0
sg7
I0
sg8
I0
sg9
I0
ss(I2
I1
I2
I2
I1
tp818
(dp819
g5
I0
sg6
I0
sg7
I0
sg8
I0
sg9
I0
ss(I1
I2
I1
I0
I0
tp820
(dp821
g5
I0
sg6
I0
sg7
I0
sg8
I0
sg9
I0
ss(I2
I0
I0
I0
I1
tp822
(dp823
g5
I0
sg6
I0
sg7
I0
sg8
I0
sg9
I0
ss(I1
I2
I2
I1
I0
tp824
(dp825
g5
I0
sg6
I0
sg7
I0
sg8
I0
sg9
I0
ss(I0
I2
I2
I1
I0
tp826
(dp827
g5
I0
sg6
I0
sg7
I0
sg8
I0
sg9
I0
ss(I2
I0
I1
I0
I1
tp828
(dp829
g5
I0
sg6
I0
sg7
I0
sg8
I0
sg9
I0
ss(I2
I1
I2
I1
I0
tp830
(dp831
g5
I0
sg6
I0
sg7
I0
sg8
I0
sg9
I0
ss(I1
I0
I0
I0
I0
tp832
(dp833
g5
I0
sg6
I0
sg7
I0
sg8
I0
sg9
I0
ss(I0
I0
I0
I2
I0
tp834
(dp835
g5
I0
sg6
I0
sg7
I0
sg8
I0
sg9
I0
ss(I2
I2
I1
I2
I0
tp836
(dp837
g5
I0
sg6
I0
sg7
I0
sg8
I0
sg9
I0
ss(I0
I2
I1
I1
I0
tp838
(dp839
g5
I0
sg6
I0
sg7
I0
sg8
I0
sg9
I0
ss(I2
I2
I0
I1
I0
tp840
(dp841
g5
I0
sg6
I0
sg7
I0
sg8
I0
sg9
I0
ss(I1
I1
I2
I0
I1
tp842
(dp843
g5
I0
sg6
I0
sg7
I0
sg8
I0
sg9
I0
ss(I2
I1
I0
I0
I1
tp844
(dp845
g5
I0
sg6
I0
sg7
I0
sg8
I0
sg9
I0
ss(I0
I1
I0
I2
I1
tp846
(dp847
g5
F357.8569332437499
sg6
I0
sg7
F295.9099457622383
sg8
F352.74635477238814
sg9
F348.32655597905966
ss(I0
I1
I1
I1
I0
tp848
(dp849
g5
I0
sg6
I0
sg7
I0
sg8
I0
sg9
I0
ss(I0
I1
I0
I0
I0
tp850
(dp851
g5
I0
sg6
I0
sg7
I0
sg8
I0
sg9
I0
ss(I0
I2
I0
I0
I1
tp852
(dp853
g5
F344.6175608399533
sg6
I0
sg7
F311.2816132036556
sg8
F356.5132375870473
sg9
F345.4762186321412
ss(I0
I1
I2
I0
I0
tp854
(dp855
g5
I0
sg6
I0
sg7
I0
sg8
I0
sg9
I0
ss(I1
I1
I1
I0
I0
tp856
(dp857
g5
I0
sg6
I0
sg7
I0
sg8
I0
sg9
I0
ss(I1
I0
I2
I1
I1
tp858
(dp859
g5
I0
sg6
I0
sg7
I0
sg8
I0
sg9
I0
ss(I2
I0
I0
I0
I0
tp860
(dp861
g5
I0
sg6
I0
sg7
I0
sg8
I0
sg9
I0
ss(I1
I1
I2
I1
I0
tp862
(dp863
g5
I0
sg6
I0
sg7
I0
sg8
I0
sg9
I0
ss(I1
I0
I2
I0
I0
tp864
(dp865
g5
I0
sg6
I0
sg7
I0
sg8
I0
sg9
I0
ss(I1
I0
I1
I0
I1
tp866
(dp867
g5
I0
sg6
I0
sg7
I0
sg8
I0
sg9
I0
ss(I0
I2
I2
I1
I1
tp868
(dp869
g5
F350.8289913525306
sg6
I0
sg7
F302.5669508512105
sg8
F358.46531308662094
sg9
F358.43975487310394
ss(I2
I2
I0
I2
I1
tp870
(dp871
g5
I0
sg6
I0
sg7
I0
sg8
I0
sg9
I0
ss(I0
I2
I0
I2
I0
tp872
(dp873
g5
I0
sg6
I0
sg7
I0
sg8
I0
sg9
I0
ss(I2
I2
I1
I1
I1
tp874
(dp875
g5
I0
sg6
I0
sg7
I0
sg8
I0
sg9
I0
ss(I1
I0
I0
I0
I1
tp876
(dp877
g5
I0
sg6
I0
sg7
I0
sg8
I0
sg9
I0
ss(I2
I1
I0
I2
I0
tp878
(dp879
g5
I0
sg6
I0
sg7
I0
sg8
I0
sg9
I0
ss(I0
I2
I2
I2
I0
tp880
(dp881
g5
I0
sg6
I0
sg7
I0
sg8
I0
sg9
I0
ss(I0
I2
I2
I2
I1
tp882
(dp883
g5
F358.315571529467
sg6
I0
sg7
F308.33106973394376
sg8
F358.56108940385246
sg9
F358.5295034420699
ss(I2
I2
I0
I1
I1
tp884
(dp885
g5
I0
sg6
I0
sg7
I0
sg8
I0
sg9
I0
ss(I2
I0
I2
I2
I1
tp886
(dp887
g5
I0
sg6
I0
sg7
I0
sg8
I0
sg9
I0
ss(I0
I1
I0
I1
I1
tp888
(dp889
g5
F353.11737394037317
sg6
I0
sg7
F315.1405462480324
sg8
F353.8190332000325
sg9
F347.58880343354286
ss(I1
I2
I1
I1
I0
tp890
(dp891
g5
I0
sg6
I0
sg7
I0
sg8
I0
sg9
I0
ss(I0
I1
I0
I2
I0
tp892
(dp893
g5
I0
sg6
I0
sg7
I0
sg8
I0
sg9
I0
ss(I0
I1
I1
I2
I1
tp894
(dp895
g5
F360.72884714102713
sg6
I0
sg7
F312.246196246168
sg8
F353.088007234507
sg9
F354.47846533115404
ss(I1
I1
I2
I2
I1
tp896
(dp897
g5
I0
sg6
I0
sg7
I0
sg8
I0
sg9
I0
ss(I0
I1
I1
I1
I1
tp898
(dp899
g5
F354.6892388322095
sg6
I0
sg7
F311.1432989503574
sg8
F352.65980588746095
sg9
F352.97347715140546
ss(I1
I2
I0
I2
I0
tp900
(dp901
g5
I0
sg6
I0
sg7
I0
sg8
I0
sg9
I0
ss(I0
I0
I2
I0
I0
tp902
(dp903
g5
I0
sg6
I0
sg7
I0
sg8
I0
sg9
I0
ss(I0
I2
I0
I0
I0
tp904
(dp905
g5
I0
sg6
I0
sg7
I0
sg8
I0
sg9
I0
ss(I0
I1
I2
I0
I1
tp906
(dp907
g5
F341.30779683167964
sg6
I0
sg7
F283.12792255137055
sg8
F349.44190035335555
sg9
F354.23687699420543
ss(I1
I1
I1
I0
I1
tp908
(dp909
g5
I0
sg6
I0
sg7
I0
sg8
I0
sg9
I0
ss(I0
I0
I0
I2
I1
tp910
(dp911
g5
F356.728437895673
sg6
I0
sg7
F215.7240021903885
sg8
F234.98186112579253
sg9
F272.66802088572933
ss(I1
I0
I2
I1
I0
tp912
(dp913
g5
I0
sg6
I0
sg7
I0
sg8
I0
sg9
I0
ss(I1
I1
I2
I1
I1
tp914
(dp915
g5
I0
sg6
I0
sg7
I0
sg8
I0
sg9
I0
ss(I0
I0
I1
I1
I1
tp916
(dp917
g5
F355.20271296366275
sg6
I0
sg7
F301.73860197060424
sg8
F334.92809630158735
sg9
F331.5936167371925
ss(I1
I0
I1
I0
I0
tp918
(dp919
g5
I0
sg6
I0
sg7
I0
sg8
I0
sg9
I0
ss(I0
I0
I1
I2
I1
tp920
(dp921
g5
F359.9185534383504
sg6
I0
sg7
F289.0675979254925
sg8
F257.8333122262251
sg9
F277.8363657365513
ss(I2
I0
I2
I2
I0
tp922
(dp923
g5
I0
sg6
I0
sg7
I0
sg8
I0
sg9
I0
ss(I0
I2
I0
I2
I1
tp924
(dp925
g5
F359.35177345252373
sg6
I0
sg7
F296.85631737015086
sg8
F356.8154016430767
sg9
F346.24905362364024
ss(I0
I0
I0
I0
I1
tp926
(dp927
g5
F348.9215463696702
sg6
I0
sg7
F315.57186194411986
sg8
F344.8978520674882
sg9
F347.38577072997214
ss(I2
I2
I1
I1
I0
tp928
(dp929
g5
I0
sg6
I0
sg7
I0
sg8
I0
sg9
I0
ss(I0
I0
I0
I0
I0
tp930
(dp931
g5
I0
sg6
I0
sg7
I0
sg8
I0
sg9
I0
ss(I2
I2
I0
I2
I0
tp932
(dp933
g5
I0
sg6
I0
sg7
I0
sg8
I0
sg9
I0
ss(I1
I2
I0
I1
I1
tp934
(dp935
g5
I0
sg6
I0
sg7
I0
sg8
I0
sg9
I0
ss(I2
I0
I1
I1
I0
tp936
(dp937
g5
I0
sg6
I0
sg7
I0
sg8
I0
sg9
I0
ss(I0
I1
I0
I1
I0
tp938
(dp939
g5
I0
sg6
I0
sg7
I0
sg8
I0
sg9
I0
ss(I1
I2
I1
I2
I1
tp940
(dp941
g5
I0
sg6
I0
sg7
I0
sg8
I0
sg9
I0
ss(I1
I2
I1
I1
I1
tp942
(dp943
g5
I0
sg6
I0
sg7
I0
sg8
I0
sg9
I0
ss(I0
I2
I1
I0
I0
tp944
(dp945
g5
I0
sg6
I0
sg7
I0
sg8
I0
sg9
I0
ss(I0
I1
I1
I2
I0
tp946
(dp947
g5
I0
sg6
I0
sg7
I0
sg8
I0
sg9
I0
ss(I0
I0
I0
I1
I0
tp948
(dp949
g5
I0
sg6
I0
sg7
I0
sg8
I0
sg9
I0
ss(I1
I1
I2
I2
I0
tp950
(dp951
g5
I0
sg6
I0
sg7
I0
sg8
I0
sg9
I0
ss(I1
I2
I0
I2
I1
tp952
(dp953
g5
I0
sg6
I0
sg7
I0
sg8
I0
sg9
I0
ss(I2
I1
I1
I2
I1
tp954
(dp955
g5
I0
sg6
I0
sg7
I0
sg8
I0
sg9
I0
ss(I2
I0
I1
I2
I0
tp956
(dp957
g5
I0
sg6
I0
sg7
I0
sg8
I0
sg9
I0
ss(I2
I1
I0
I1
I1
tp958
(dp959
g5
I0
sg6
I0
sg7
I0
sg8
I0
sg9
I0
ss(I1
I2
I0
I1
I0
tp960
(dp961
g5
I0
sg6
I0
sg7
I0
sg8
I0
sg9
I0
ss(I2
I2
I2
I0
I1
tp962
(dp963
g5
I0
sg6
I0
sg7
I0
sg8
I0
sg9
I0
ss(I2
I1
I0
I2
I1
tp964
(dp965
g5
I0
sg6
I0
sg7
I0
sg8
I0
sg9
I0
ss(I0
I2
I1
I2
I0
tp966
(dp967
g5
I0
sg6
I0
sg7
I0
sg8
I0
sg9
I0
ss(I0
I0
I1
I1
I0
tp968
(dp969
g5
I0
sg6
I0
sg7
I0
sg8
I0
sg9
I0
ss(I2
I2
I0
I0
I0
tp970
(dp971
g5
I0
sg6
I0
sg7
I0
sg8
I0
sg9
I0
ss(I0
I2
I1
I0
I1
tp972
(dp973
g5
F345.91623530594757
sg6
I0
sg7
F307.66990864659783
sg8
F357.03380585399833
sg9
F352.5651910018752
ss(I2
I0
I0
I2
I0
tp974
(dp975
g5
I0
sg6
I0
sg7
I0
sg8
I0
sg9
I0
ss(I0
I0
I0
I1
I1
tp976
(dp977
g5
F356.8631305215764
sg6
I0
sg7
F300.7857622666574
sg8
F332.83670157226265
sg9
F330.7294784350005
ss(I0
I0
I1
I2
I0
tp978
(dp979
g5
I0
sg6
I0
sg7
I0
sg8
I0
sg9
I0
ss(I1
I0
I2
I0
I1
tp980
(dp981
g5
I0
sg6
I0
sg7
I0
sg8
I0
sg9
I0
ssaa(lp982
(dp983
(I0
I2
I0
I1
I0
tp984
(dp985
g5
I0
sg6
I0
sg7
I0
sg8
I0
sg9
I0
ss(I2
I0
I1
I1
I1
tp986
(dp987
g5
I0
sg6
I0
sg7
I0
sg8
I0
sg9
I0
ss(I1
I2
I1
I2
I0
tp988
(dp989
g5
I0
sg6
I0
sg7
I0
sg8
I0
sg9
I0
ss(I2
I2
I2
I0
I0
tp990
(dp991
g5
I0
sg6
I0
sg7
I0
sg8
I0
sg9
I0
ss(I2
I0
I2
I0
I1
tp992
(dp993
g5
I0
sg6
I0
sg7
I0
sg8
I0
sg9
I0
ss(I1
I0
I0
I2
I0
tp994
(dp995
g5
I0
sg6
I0
sg7
I0
sg8
I0
sg9
I0
ss(I2
I0
I0
I1
I1
tp996
(dp997
g5
I0
sg6
I0
sg7
I0
sg8
I0
sg9
I0
ss(I2
I1
I1
I1
I0
tp998
(dp999
g5
I0
sg6
I0
sg7
I0
sg8
I0
sg9
I0
ss(I0
I2
I1
I2
I1
tp1000
(dp1001
g5
F2.008186532764964
sg6
I0
sg7
F-39.999999464090365
sg8
F2.000000109771425
sg9
F-3.999365882709321
ss(I2
I1
I1
I2
I0
tp1002
(dp1003
g5
I0
sg6
I0
sg7
I0
sg8
I0
sg9
I0
ss(I1
I0
I1
I1
I0
tp1004
(dp1005
g5
I0
sg6
I0
sg7
I0
sg8
I0
sg9
I0
ss(I2
I0
I1
I2
I1
tp1006
(dp1007
g5
I0
sg6
I0
sg7
I0
sg8
I0
sg9
I0
ss(I2
I2
I2
I1
I0
tp1008
(dp1009
g5
I0
sg6
I0
sg7
I0
sg8
I0
sg9
I0
ss(I2
I1
I0
I1
I0
tp1010
(dp1011
g5
I0
sg6
I0
sg7
I0
sg8
I0
sg9
I0
ss(I2
I2
I1
I0
I0
tp1012
(dp1013
g5
I0
sg6
I0
sg7
I0
sg8
I0
sg9
I0
ss(I0
I1
I2
I2
I0
tp1014
(dp1015
g5
I0
sg6
I0
sg7
I0
sg8
I0
sg9
I0
ss(I2
I2
I2
I2
I1
tp1016
(dp1017
g5
I0
sg6
I0
sg7
I0
sg8
I0
sg9
I0
ss(I1
I0
I2
I2
I1
tp1018
(dp1019
g5
I0
sg6
I0
sg7
I0
sg8
I0
sg9
I0
ss(I0
I2
I1
I1
I1
tp1020
(dp1021
g5
F-1.9986250568936885
sg6
I0
sg7
F-37.99408945993666
sg8
F4.194158996713689
sg9
F-1.9942850245250572
ss(I2
I0
I0
I2
I1
tp1022
(dp1023
g5
I0
sg6
I0
sg7
I0
sg8
I0
sg9
I0
ss(I2
I1
I1
I1
I1
tp1024
(dp1025
g5
I0
sg6
I0
sg7
I0
sg8
I0
sg9
I0
ss(I1
I1
I0
I1
I0
tp1026
(dp1027
g5
I0
sg6
I0
sg7
I0
sg8
I0
sg9
I0
ss(I0
I2
I2
I0
I1
tp1028
(dp1029
g5
F-7.952822388766728
sg6
I0
sg7
F-37.66663490766226
sg8
F4.000002265722503
sg9
F4.004283381891476
ss(I2
I2
I1
I2
I1
tp1030
(dp1031
g5
I0
sg6
I0
sg7
I0
sg8
I0
sg9
I0
ss(I1
I0
I1
I2
I1
tp1032
(dp1033
g5
I0
sg6
I0
sg7
I0
sg8
I0
sg9
I0
ss(I0
I2
I0
I1
I1
tp1034
(dp1035
g5
F1.9657182763383727
sg6
I0
sg7
F-34.398976486667316
sg8
F6.184587241698894
sg9
F-5.934903390626042
ss(I1
I1
I1
I2
I0
tp1036
(dp1037
g5
I0
sg6
I0
sg7
I0
sg8
I0
sg9
I0
ss(I1
I0
I0
I1
I1
tp1038
(dp1039
g5
I0
sg6
I0
sg7
I0
sg8
I0
sg9
I0
ss(I2
I0
I2
I0
I0
tp1040
(dp1041
g5
I0
sg6
I0
sg7
I0
sg8
I0
sg9
I0
ss(I0
I0
I2
I1
I0
tp1042
(dp1043
g5
I0
sg6
I0
sg7
I0
sg8
I0
sg9
I0
ss(I1
I0
I0
I2
I1
tp1044
(dp1045
g5
I0
sg6
I0
sg7
I0
sg8
I0
sg9
I0
ss(I2
I2
I0
I0
I1
tp1046
(dp1047
g5
I0
sg6
I0
sg7
I0
sg8
I0
sg9
I0
ss(I1
I0
I1
I1
I1
tp1048
(dp1049
g5
I0
sg6
I0
sg7
I0
sg8
I0
sg9
I0
ss(I2
I2
I2
I1
I1
tp1050
(dp1051
g5
I0
sg6
I0
sg7
I0
sg8
I0
sg9
I0
ss(I2
I2
I1
I0
I1
tp1052
(dp1053
g5
I0
sg6
I0
sg7
I0
sg8
I0
sg9
I0
ss(I0
I0
I2
I0
I1
tp1054
(dp1055
g5
F-1.9615558023669468
sg6
I0
sg7
F-33.131929151530265
sg8
F-3.232658006930149
sg9
F8.075664367049729
ss(I1
I2
I2
I2
I1
tp1056
(dp1057
g5
I0
sg6
I0
sg7
I0
sg8
I0
sg9
I0
ss(I0
I1
I1
I0
I1
tp1058
(dp1059
g5
F-3.798819621875116
sg6
I0
sg7
F-33.60287300640391
sg8
F2.1092145931027186
sg9
F2.0171436565340874
ss(I1
I2
I0
I0
I0
tp1060
(dp1061
g5
I0
sg6
I0
sg7
I0
sg8
I0
sg9
I0
ss(I0
I1
I2
I1
I1
tp1062
(dp1063
g5
F-0.42659309291702696
sg6
I0
sg7
F-37.888027652050546
sg8
F-1.934086472212359
sg9
F4.38825516238041
ss(I1
I1
I1
I1
I1
tp1064
(dp1065
g5
I0
sg6
I0
sg7
I0
sg8
I0
sg9
I0
ss(I0
I1
I2
I2
I1
tp1066
(dp1067
g5
F2.0002776152866875
sg6
I0
sg7
F-39.2872522894274
sg8
F-3.2129022764470383
sg9
F2.0010081901556767
ss(I1
I0
I2
I2
I0
tp1068
(dp1069
g5
I0
sg6
I0
sg7
I0
sg8
I0
sg9
I0
ss(I1
I1
I0
I2
I1
tp1070
(dp1071
g5
I0
sg6
I0
sg7
I0
sg8
I0
sg9
I0
ss(I1
I1
I0
I1
I1
tp1072
(dp1073
g5
I0
sg6
I0
sg7
I0
sg8
I0
sg9
I0
ss(I2
I0
I2
I1
I1
tp1074
(dp1075
g5
I0
sg6
I0
sg7
I0
sg8
I0
sg9
I0
ss(I0
I2
I2
I0
I0
tp1076
(dp1077
g5
I0
sg6
I0
sg7
I0
sg8
I0
sg9
I0
ss(I1
I0
I1
I2
I0
tp1078
(dp1079
g5
I0
sg6
I0
sg7
I0
sg8
I0
sg9
I0
ss(I1
I1
I1
I2
I1
tp1080
(dp1081
g5
I0
sg6
I0
sg7
I0
sg8
I0
sg9
I0
ss(I2
I0
I0
I1
I0
tp1082
(dp1083
g5
I0
sg6
I0
sg7
I0
sg8
I0
sg9
I0
ss(I0
I0
I2
I2
I1
tp1084
(dp1085
g5
F4.030316729063962
sg6
I0
sg7
F-37.987254981675335
sg8
F-7.863918356969585
sg9
F4.356307336353388
ss(I1
I0
I0
I1
I0
tp1086
(dp1087
g5
I0
sg6
I0
sg7
I0
sg8
I0
sg9
I0
ss(I0
I0
I2
I1
I1
tp1088
(dp1089
g5
F1.433928145900652
sg6
I0
sg7
F-34.4099305783567
sg8
F-4.0419254630824675
sg9
F6.03275771830806
ss(I1
I1
I0
I0
I0
tp1090
(dp1091
g5
I0
sg6
I0
sg7
I0
sg8
I0
sg9
I0
ss(I2
I1
I2
I0
I0
tp1092
(dp1093
g5
I0
sg6
I0
sg7
I0
sg8
I0
sg9
I0
ss(I2
I2
I2
I2
I0
tp1094
(dp1095
g5
I0
sg6
I0
sg7
I0
sg8
I0
sg9
I0
ss(I1
I2
I2
I0
I1
tp1096
(dp1097
g5
I0
sg6
I0
sg7
I0
sg8
I0
sg9
I0
ss(I0
I0
I1
I0
I0
tp1098
(dp1099
g5
I0
sg6
I0
sg7
I0
sg8
I0
sg9
I0
ss(I1
I2
I1
I0
I1
tp1100
(dp1101
g5
I0
sg6
I0
sg7
I0
sg8
I0
sg9
I0
ss(I0
I1
I1
I0
I0
tp1102
(dp1103
g5
I0
sg6
I0
sg7
I0
sg8
I0
sg9
I0
ss(I1
I2
I2
I1
I1
tp1104
(dp1105
g5
I0
sg6
I0
sg7
I0
sg8
I0
sg9
I0
ss(I2
I1
I1
I0
I0
tp1106
(dp1107
g5
I0
sg6
I0
sg7
I0
sg8
I0
sg9
I0
ss(I1
I2
I0
I0
I1
tp1108
(dp1109
g5
I0
sg6
I0
sg7
I0
sg8
I0
sg9
I0
ss(I1
I2
I2
I2
I0
tp1110
(dp1111
g5
I0
sg6
I0
sg7
I0
sg8
I0
sg9
I0
ss(I0
I1
I2
I1
I0
tp1112
(dp1113
g5
I0
sg6
I0
sg7
I0
sg8
I0
sg9
I0
ss(I2
I0
I1
I0
I0
tp1114
(dp1115
g5
I0
sg6
I0
sg7
I0
sg8
I0
sg9
I0
ss(I1
I1
I1
I1
I0
tp1116
(dp1117
g5
I0
sg6
I0
sg7
I0
sg8
I0
sg9
I0
ss(I2
I1
I2
I2
I0
tp1118
(dp1119
g5
I0
sg6
I0
sg7
I0
sg8
I0
sg9
I0
ss(I2
I1
I2
I1
I1
tp1120
(dp1121
g5
I0
sg6
I0
sg7
I0
sg8
I0
sg9
I0
ss(I2
I0
I2
I1
I0
tp1122
(dp1123
g5
I0
sg6
I0
sg7
I0
sg8
I0
sg9
I0
ss(I1
I1
I0
I2
I0
tp1124
(dp1125
g5
I0
sg6
I0
sg7
I0
sg8
I0
sg9
I0
ss(I2
I1
I2
I0
I1
tp1126
(dp1127
g5
I0
sg6
I0
sg7
I0
sg8
I0
sg9
I0
ss(I2
I1
I1
I0
I1
tp1128
(dp1129
g5
I0
sg6
I0
sg7
I0
sg8
I0
sg9
I0
ss(I1
I1
I2
I0
I0
tp1130
(dp1131
g5
I0
sg6
I0
sg7
I0
sg8
I0
sg9
I0
ss(I0
I0
I1
I0
I1
tp1132
(dp1133
g5
F-0.10605798841896896
sg6
I0
sg7
F-29.515082515759325
sg8
F-1.0136353780630627
sg9
F4.0318793150621595
ss(I0
I0
I2
I2
I0
tp1134
(dp1135
g5
I0
sg6
I0
sg7
I0
sg8
I0
sg9
I0
ss(I1
I1
I0
I0
I1
tp1136
(dp1137
g5
I0
sg6
I0
sg7
I0
sg8
I0
sg9
I0
ss(I0
I1
I0
I0
I1
tp1138
(dp1139
g5
F0.2370553429530411
sg6
I0
sg7
F-31.700423874442443
sg8
F4.14084805282222
sg9
F-1.6868201993711098
ss(I1
I2
I2
I0
I0
tp1140
(dp1141
g5
I0
sg6
I0
sg7
I0
sg8
I0
sg9
I0
ss(I2
I1
I0
I0
I0
tp1142
(dp1143
g5
I0
sg6
I0
sg7
I0
sg8
I0
sg9
I0
ss(I2
I1
I2
I2
I1
tp1144
(dp1145
g5
I0
sg6
I0
sg7
I0
sg8
I0
sg9
I0
ss(I1
I2
I1
I0
I0
tp1146
(dp1147
g5
I0
sg6
I0
sg7
I0
sg8
I0
sg9
I0
ss(I2
I0
I0
I0
I1
tp1148
(dp1149
g5
I0
sg6
I0
sg7
I0
sg8
I0
sg9
I0
ss(I1
I2
I2
I1
I0
tp1150
(dp1151
g5
I0
sg6
I0
sg7
I0
sg8
I0
sg9
I0
ss(I0
I2
I2
I1
I0
tp1152
(dp1153
g5
I0
sg6
I0
sg7
I0
sg8
I0
sg9
I0
ss(I2
I0
I1
I0
I1
tp1154
(dp1155
g5
I0
sg6
I0
sg7
I0
sg8
I0
sg9
I0
ss(I2
I1
I2
I1
I0
tp1156
(dp1157
g5
I0
sg6
I0
sg7
I0
sg8
I0
sg9
I0
ss(I1
I0
I0
I0
I0
tp1158
(dp1159
g5
I0
sg6
I0
sg7
I0
sg8
I0
sg9
I0
ss(I0
I0
I0
I2
I0
tp1160
(dp1161
g5
I0
sg6
I0
sg7
I0
sg8
I0
sg9
I0
ss(I2
I2
I1
I2
I0
tp1162
(dp1163
g5
I0
sg6
I0
sg7
I0
sg8
I0
sg9
I0
ss(I0
I2
I1
I1
I0
tp1164
(dp1165
g5
I0
sg6
I0
sg7
I0
sg8
I0
sg9
I0
ss(I2
I2
I0
I1
I0
tp1166
(dp1167
g5
I0
sg6
I0
sg7
I0
sg8
I0
sg9
I0
ss(I1
I1
I2
I0
I1
tp1168
(dp1169
g5
I0
sg6
I0
sg7
I0
sg8
I0
sg9
I0
ss(I2
I1
I0
I0
I1
tp1170
(dp1171
g5
I0
sg6
I0
sg7
I0
sg8
I0
sg9
I0
ss(I0
I1
I0
I2
I1
tp1172
(dp1173
g5
F6.090383729819198
sg6
I0
sg7
F-32.4833021809953
sg8
F0.25420494080323564
sg9
F-3.6282390128224207
ss(I0
I1
I1
I1
I0
tp1174
(dp1175
g5
I0
sg6
I0
sg7
I0
sg8
I0
sg9
I0
ss(I0
I1
I0
I0
I0
tp1176
(dp1177
g5
I0
sg6
I0
sg7
I0
sg8
I0
sg9
I0
ss(I0
I2
I0
I0
I1
tp1178
(dp1179
g5
F-3.5136247667016454
sg6
I0
sg7
F-33.410974257206064
sg8
F9.764763187815287
sg9
F-0.9941632051488771
ss(I0
I1
I2
I0
I0
tp1180
(dp1181
g5
I0
sg6
I0
sg7
I0
sg8
I0
sg9
I0
ss(I1
I1
I1
I0
I0
tp1182
(dp1183
g5
I0
sg6
I0
sg7
I0
sg8
I0
sg9
I0
ss(I1
I0
I2
I1
I1
tp1184
(dp1185
g5
I0
sg6
I0
sg7
I0
sg8
I0
sg9
I0
ss(I2
I0
I0
I0
I0
tp1186
(dp1187
g5
I0
sg6
I0
sg7
I0
sg8
I0
sg9
I0
ss(I1
I1
I2
I1
I0
tp1188
(dp1189
g5
I0
sg6
I0
sg7
I0
sg8
I0
sg9
I0
ss(I1
I0
I2
I0
I0
tp1190
(dp1191
g5
I0
sg6
I0
sg7
I0
sg8
I0
sg9
I0
ss(I1
I0
I1
I0
I1
tp1192
(dp1193
g5
I0
sg6
I0
sg7
I0
sg8
I0
sg9
I0
ss(I0
I2
I2
I1
I1
tp1194
(dp1195
g5
F-3.6611954925543606
sg6
I0
sg7
F-39.96153977517008
sg8
F2.000004251855443
sg9
F2.8041776291288145
ss(I2
I2
I0
I2
I1
tp1196
(dp1197
g5
I0
sg6
I0
sg7
I0
sg8
I0
sg9
I0
ss(I0
I2
I0
I2
I0
tp1198
(dp1199
g5
I0
sg6
I0
sg7
I0
sg8
I0
sg9
I0
ss(I2
I2
I1
I1
I1
tp1200
(dp1201
g5
I0
sg6
I0
sg7
I0
sg8
I0
sg9
I0
ss(I1
I0
I0
I0
I1
tp1202
(dp1203
g5
I0
sg6
I0
sg7
I0
sg8
I0
sg9
I0
ss(I2
I1
I0
I2
I0
tp1204
(dp1205
g5
I0
sg6
I0
sg7
I0
sg8
I0
sg9
I0
ss(I0
I2
I2
I2
I0
tp1206
(dp1207
g5
I0
sg6
I0
sg7
I0
sg8
I0
sg9
I0
ss(I0
I2
I2
I2
I1
tp1208
(dp1209
g5
F3.4031262589590034e-08
sg6
I0
sg7
F-41.96549590627902
sg8
F1.5200747829039294e-05
sg9
F2.2648829015061003e-06
ss(I2
I2
I0
I1
I1
tp1210
(dp1211
g5
I0
sg6
I0
sg7
I0
sg8
I0
sg9
I0
ss(I2
I0
I2
I2
I1
tp1212
(dp1213
g5
I0
sg6
I0
sg7
I0
sg8
I0
sg9
I0
ss(I0
I1
I0
I1
I1
tp1214
(dp1215
g5
F2.00695408302375
sg6
I0
sg7
F-33.20779244514566
sg8
F2.0244919624788515
sg9
F-3.2356439201888882
ss(I1
I2
I1
I1
I0
tp1216
(dp1217
g5
I0
sg6
I0
sg7
I0
sg8
I0
sg9
I0
ss(I0
I1
I0
I2
I0
tp1218
(dp1219
g5
I0
sg6
I0
sg7
I0
sg8
I0
sg9
I0
ss(I0
I1
I1
I2
I1
tp1220
(dp1221
g5
F4.015143350895474
sg6
I0
sg7
F-37.400029615509666
sg8
F-1.9999955820933495
sg9
F-1.7349040842641452
ss(I1
I1
I2
I2
I1
tp1222
(dp1223
g5
I0
sg6
I0
sg7
I0
sg8
I0
sg9
I0
ss(I0
I1
I1
I1
I1
tp1224
(dp1225
g5
F0.004818231156357936
sg6
I0
sg7
F-34.15717946819388
sg8
F0.032061451766665285
sg9
F2.697508741998501
ss(I1
I2
I0
I2
I0
tp1226
(dp1227
g5
I0
sg6
I0
sg7
I0
sg8
I0
sg9
I0
ss(I0
I0
I2
I0
I0
tp1228
(dp1229
g5
I0
sg6
I0
sg7
I0
sg8
I0
sg9
I0
ss(I0
I2
I0
I0
I0
tp1230
(dp1231
g5
I0
sg6
I0
sg7
I0
sg8
I0
sg9
I0
ss(I0
I1
I2
I0
I1
tp1232
(dp1233
g5
F-5.358531648777106
sg6
I0
sg7
F-33.809678746988624
sg8
F1.2402248662713373
sg9
F6.5381063355505145
ss(I1
I1
I1
I0
I1
tp1234
(dp1235
g5
I0
sg6
I0
sg7
I0
sg8
I0
sg9
I0
ss(I0
I0
I0
I2
I1
tp1236
(dp1237
g5
F8.247455756086755
sg6
I0
sg7
F-25.931640625
sg8
F-2.0559101593249682
sg9
F-2.7383873830075767
ss(I1
I0
I2
I1
I0
tp1238
(dp1239
g5
I0
sg6
I0
sg7
I0
sg8
I0
sg9
I0
ss(I1
I1
I2
I1
I1
tp1240
(dp1241
g5
I0
sg6
I0
sg7
I0
sg8
I0
sg9
I0
ss(I0
I0
I1
I1
I1
tp1242
(dp1243
g5
F2.070293576359075
sg6
I0
sg7
F-31.50943652984064
sg8
F-3.9071433800408903
sg9
F3.32697168657727
ss(I1
I0
I1
I0
I0
tp1244
(dp1245
g5
I0
sg6
I0
sg7
I0
sg8
I0
sg9
I0
ss(I0
I0
I1
I2
I1
tp1246
(dp1247
g5
F6.215264829457159
sg6
I0
sg7
F-35.980250428867514
sg8
F-5.998097491519472
sg9
F0.11523764074181514
ss(I2
I0
I2
I2
I0
tp1248
(dp1249
g5
I0
sg6
I0
sg7
I0
sg8
I0
sg9
I0
ss(I0
I2
I0
I2
I1
tp1250
(dp1251
g5
F3.959909616969526
sg6
I0
sg7
F-32.47576987065012
sg8
F4.058666231929746
sg9
F-3.036469779163599
ss(I0
I0
I0
I0
I1
tp1252
(dp1253
g5
F1.5735722019688632
sg6
I0
sg7
F-27.221136846714558
sg8
F0.4009802565519269
sg9
F2.059239546410547
ss(I2
I2
I1
I1
I0
tp1254
(dp1255
g5
I0
sg6
I0
sg7
I0
sg8
I0
sg9
I0
ss(I0
I0
I0
I0
I0
tp1256
(dp1257
g5
I0
sg6
I0
sg7
I0
sg8
I0
sg9
I0
ss(I2
I2
I0
I2
I0
tp1258
(dp1259
g5
I0
sg6
I0
sg7
I0
sg8
I0
sg9
I0
ss(I1
I2
I0
I1
I1
tp1260
(dp1261
g5
I0
sg6
I0
sg7
I0
sg8
I0
sg9
I0
ss(I2
I0
I1
I1
I0
tp1262
(dp1263
g5
I0
sg6
I0
sg7
I0
sg8
I0
sg9
I0
ss(I0
I1
I0
I1
I0
tp1264
(dp1265
g5
I0
sg6
I0
sg7
I0
sg8
I0
sg9
I0
ss(I1
I2
I1
I2
I1
tp1266
(dp1267
g5
I0
sg6
I0
sg7
I0
sg8
I0
sg9
I0
ss(I1
I2
I1
I1
I1
tp1268
(dp1269
g5
I0
sg6
I0
sg7
I0
sg8
I0
sg9
I0
ss(I0
I2
I1
I0
I0
tp1270
(dp1271
g5
I0
sg6
I0
sg7
I0
sg8
I0
sg9
I0
ss(I0
I1
I1
I2
I0
tp1272
(dp1273
g5
I0
sg6
I0
sg7
I0
sg8
I0
sg9
I0
ss(I0
I0
I0
I1
I0
tp1274
(dp1275
g5
I0
sg6
I0
sg7
I0
sg8
I0
sg9
I0
ss(I1
I1
I2
I2
I0
tp1276
(dp1277
g5
I0
sg6
I0
sg7
I0
sg8
I0
sg9
I0
ss(I1
I2
I0
I2
I1
tp1278
(dp1279
g5
I0
sg6
I0
sg7
I0
sg8
I0
sg9
I0
ss(I2
I1
I1
I2
I1
tp1280
(dp1281
g5
I0
sg6
I0
sg7
I0
sg8
I0
sg9
I0
ss(I2
I0
I1
I2
I0
tp1282
(dp1283
g5
I0
sg6
I0
sg7
I0
sg8
I0
sg9
I0
ss(I2
I1
I0
I1
I1
tp1284
(dp1285
g5
I0
sg6
I0
sg7
I0
sg8
I0
sg9
I0
ss(I1
I2
I0
I1
I0
tp1286
(dp1287
g5
I0
sg6
I0
sg7
I0
sg8
I0
sg9
I0
ss(I2
I2
I2
I0
I1
tp1288
(dp1289
g5
I0
sg6
I0
sg7
I0
sg8
I0
sg9
I0
ss(I2
I1
I0
I2
I1
tp1290
(dp1291
g5
I0
sg6
I0
sg7
I0
sg8
I0
sg9
I0
ss(I0
I2
I1
I2
I0
tp1292
(dp1293
g5
I0
sg6
I0
sg7
I0
sg8
I0
sg9
I0
ss(I0
I0
I1
I1
I0
tp1294
(dp1295
g5
I0
sg6
I0
sg7
I0
sg8
I0
sg9
I0
ss(I2
I2
I0
I0
I0
tp1296
(dp1297
g5
I0
sg6
I0
sg7
I0
sg8
I0
sg9
I0
ss(I0
I2
I1
I0
I1
tp1298
(dp1299
g5
F-5.715749978718183
sg6
I0
sg7
F-35.87304270307329
sg8
F6.435637632082455
sg9
F0.8808263648227715
ss(I2
I0
I0
I2
I0
tp1300
(dp1301
g5
I0
sg6
I0
sg7
I0
sg8
I0
sg9
I0
ss(I0
I0
I0
I1
I1
tp1302
(dp1303
g5
F4.782953758598403
sg6
I0
sg7
F-31.241039099280346
sg8
F-0.7758194560900163
sg9
F-1.6112829646016946
ss(I0
I0
I1
I2
I0
tp1304
(dp1305
g5
I0
sg6
I0
sg7
I0
sg8
I0
sg9
I0
ss(I1
I0
I2
I0
I1
tp1306
(dp1307
g5
I0
sg6
I0
sg7
I0
sg8
I0
sg9
I0
ssa(dp1308
(I0
I2
I0
I1
I0
tp1309
(dp1310
g5
I0
sg6
I0
sg7
I0
sg8
I0
sg9
I0
ss(I2
I0
I1
I1
I1
tp1311
(dp1312
g5
F-1.9341712666451532
sg6
F4.000795416923449
sg7
F-37.717361048522434
sg8
I0
sg9
F-1.9497353177059173
ss(I1
I2
I1
I2
I0
tp1313
(dp1314
g5
I0
sg6
I0
sg7
I0
sg8
I0
sg9
I0
ss(I2
I2
I2
I0
I0
tp1315
(dp1316
g5
I0
sg6
I0
sg7
I0
sg8
I0
sg9
I0
ss(I2
I0
I2
I0
I1
tp1317
(dp1318
g5
F-7.999438668664935
sg6
F4.00000918524424
sg7
F-37.97865806970576
sg8
I0
sg9
F4.130064466525656
ss(I1
I0
I0
I2
I0
tp1319
(dp1320
g5
I0
sg6
I0
sg7
I0
sg8
I0
sg9
I0
ss(I2
I0
I0
I1
I1
tp1321
(dp1322
g5
F0.042617876673081215
sg6
F6.2314709816787355
sg7
F-35.63258851250369
sg8
I0
sg9
F-5.9487239287040365
ss(I2
I1
I1
I1
I0
tp1323
(dp1324
g5
I0
sg6
I0
sg7
I0
sg8
I0
sg9
I0
ss(I0
I2
I1
I2
I1
tp1325
(dp1326
g5
I0
sg6
I0
sg7
I0
sg8
I0
sg9
I0
ss(I2
I1
I1
I2
I0
tp1327
(dp1328
g5
I0
sg6
I0
sg7
I0
sg8
I0
sg9
I0
ss(I1
I0
I1
I1
I0
tp1329
(dp1330
g5
I0
sg6
I0
sg7
I0
sg8
I0
sg9
I0
ss(I2
I0
I1
I2
I1
tp1331
(dp1332
g5
F2.0224037589554067
sg6
F2.0959486187448895
sg7
F-39.97405551685933
sg8
I0
sg9
F-3.785721161801431
ss(I2
I2
I2
I1
I0
tp1333
(dp1334
g5
I0
sg6
I0
sg7
I0
sg8
I0
sg9
I0
ss(I2
I1
I0
I1
I0
tp1335
(dp1336
g5
I0
sg6
I0
sg7
I0
sg8
I0
sg9
I0
ss(I2
I2
I1
I0
I0
tp1337
(dp1338
g5
I0
sg6
I0
sg7
I0
sg8
I0
sg9
I0
ss(I0
I1
I2
I2
I0
tp1339
(dp1340
g5
I0
sg6
I0
sg7
I0
sg8
I0
sg9
I0
ss(I2
I2
I2
I2
I1
tp1341
(dp1342
g5
I0
sg6
I0
sg7
I0
sg8
I0
sg9
I0
ss(I1
I0
I2
I2
I1
tp1343
(dp1344
g5
F2.0128958936450827
sg6
F-3.999998207068291
sg7
F-39.844818206781866
sg8
I0
sg9
F2.0392770162644536
ss(I0
I2
I1
I1
I1
tp1345
(dp1346
g5
I0
sg6
I0
sg7
I0
sg8
I0
sg9
I0
ss(I2
I0
I0
I2
I1
tp1347
(dp1348
g5
F4.0784142388871665
sg6
F4.096006311400206
sg7
F-37.10796649768187
sg8
I0
sg9
F-7.893250922227653
ss(I2
I1
I1
I1
I1
tp1349
(dp1350
g5
I0
sg6
I0
sg7
I0
sg8
I0
sg9
I0
ss(I1
I1
I0
I1
I0
tp1351
(dp1352
g5
I0
sg6
I0
sg7
I0
sg8
I0
sg9
I0
ss(I0
I2
I2
I0
I1
tp1353
(dp1354
g5
I0
sg6
I0
sg7
I0
sg8
I0
sg9
I0
ss(I2
I2
I1
I2
I1
tp1355
(dp1356
g5
I0
sg6
I0
sg7
I0
sg8
I0
sg9
I0
ss(I1
I0
I1
I2
I1
tp1357
(dp1358
g5
F4.1134150884682565
sg6
F-1.9920014317107166
sg7
F-37.42473814948709
sg8
I0
sg9
F-1.8323033605456815
ss(I0
I2
I0
I1
I1
tp1359
(dp1360
g5
I0
sg6
I0
sg7
I0
sg8
I0
sg9
I0
ss(I1
I1
I1
I2
I0
tp1361
(dp1362
g5
I0
sg6
I0
sg7
I0
sg8
I0
sg9
I0
ss(I1
I0
I0
I1
I1
tp1363
(dp1364
g5
F2.0418381484630492
sg6
F2.124832712865106
sg7
F-31.440460958611446
sg8
I0
sg9
F-3.9476942726238278
ss(I2
I0
I2
I0
I0
tp1365
(dp1366
g5
I0
sg6
I0
sg7
I0
sg8
I0
sg9
I0
ss(I0
I0
I2
I1
I0
tp1367
(dp1368
g5
I0
sg6
I0
sg7
I0
sg8
I0
sg9
I0
ss(I1
I0
I0
I2
I1
tp1369
(dp1370
g5
F6.0131598926858025
sg6
F0.0010421267232729931
sg7
F-35.94185833883549
sg8
I0
sg9
F-5.935803238161343
ss(I2
I2
I0
I0
I1
tp1371
(dp1372
g5
I0
sg6
I0
sg7
I0
sg8
I0
sg9
I0
ss(I1
I0
I1
I1
I1
tp1373
(dp1374
g5
F0.0026838305878163172
sg6
F0.028399884040946302
sg7
F-34.96028400341794
sg8
I0
sg9
F0.08442987786592349
ss(I2
I2
I2
I1
I1
tp1375
(dp1376
g5
I0
sg6
I0
sg7
I0
sg8
I0
sg9
I0
ss(I2
I2
I1
I0
I1
tp1377
(dp1378
g5
I0
sg6
I0
sg7
I0
sg8
I0
sg9
I0
ss(I0
I0
I2
I0
I1
tp1379
(dp1380
g5
F-3.761501700917407
sg6
F-3.3542778892549405
sg7
F-32.744322389033556
sg8
I0
sg9
F8.000891920062234
ss(I1
I2
I2
I2
I1
tp1381
(dp1382
g5
I0
sg6
I0
sg7
I0
sg8
I0
sg9
I0
ss(I0
I1
I1
I0
I1
tp1383
(dp1384
g5
I0
sg6
I0
sg7
I0
sg8
I0
sg9
I0
ss(I1
I2
I0
I0
I0
tp1385
(dp1386
g5
I0
sg6
I0
sg7
I0
sg8
I0
sg9
I0
ss(I0
I1
I2
I1
I1
tp1387
(dp1388
g5
I0
sg6
I0
sg7
I0
sg8
I0
sg9
I0
ss(I1
I1
I1
I1
I1
tp1389
(dp1390
g5
I0
sg6
I0
sg7
I0
sg8
I0
sg9
I0
ss(I0
I1
I2
I2
I1
tp1391
(dp1392
g5
I0
sg6
I0
sg7
I0
sg8
I0
sg9
I0
ss(I1
I0
I2
I2
I0
tp1393
(dp1394
g5
I0
sg6
I0
sg7
I0
sg8
I0
sg9
I0
ss(I1
I1
I0
I2
I1
tp1395
(dp1396
g5
I0
sg6
I0
sg7
I0
sg8
I0
sg9
I0
ss(I1
I1
I0
I1
I1
tp1397
(dp1398
g5
I0
sg6
I0
sg7
I0
sg8
I0
sg9
I0
ss(I2
I0
I2
I1
I1
tp1399
(dp1400
g5
F-3.999321647927444
sg6
F2.0005768593731768
sg7
F-39.999999773470336
sg8
I0
sg9
F2.0002122951944354
ss(I0
I2
I2
I0
I0
tp1401
(dp1402
g5
I0
sg6
I0
sg7
I0
sg8
I0
sg9
I0
ss(I1
I0
I1
I2
I0
tp1403
(dp1404
g5
I0
sg6
I0
sg7
I0
sg8
I0
sg9
I0
ss(I1
I1
I1
I2
I1
tp1405
(dp1406
g5
I0
sg6
I0
sg7
I0
sg8
I0
sg9
I0
ss(I2
I0
I0
I1
I0
tp1407
(dp1408
g5
I0
sg6
I0
sg7
I0
sg8
I0
sg9
I0
ss(I0
I0
I2
I2
I1
tp1409
(dp1410
g5
F4.000567247075038
sg6
F-7.999059991933812
sg7
F-36.984999576082394
sg8
I0
sg9
F4.02487388128443
ss(I1
I0
I0
I1
I0
tp1411
(dp1412
g5
I0
sg6
I0
sg7
I0
sg8
I0
sg9
I0
ss(I0
I0
I2
I1
I1
tp1413
(dp1414
g5
F0.5000886940023676
sg6
F-5.862064352414537
sg7
F-35.820023577028266
sg8
I0
sg9
F6.1799983607768025
ss(I1
I1
I0
I0
I0
tp1415
(dp1416
g5
I0
sg6
I0
sg7
I0
sg8
I0
sg9
I0
ss(I2
I1
I2
I0
I0
tp1417
(dp1418
g5
I0
sg6
I0
sg7
I0
sg8
I0
sg9
I0
ss(I2
I2
I2
I2
I0
tp1419
(dp1420
g5
I0
sg6
I0
sg7
I0
sg8
I0
sg9
I0
ss(I1
I2
I2
I0
I1
tp1421
(dp1422
g5
I0
sg6
I0
sg7
I0
sg8
I0
sg9
I0
ss(I0
I0
I1
I0
I0
tp1423
(dp1424
g5
I0
sg6
I0
sg7
I0
sg8
I0
sg9
I0
ss(I1
I2
I1
I0
I1
tp1425
(dp1426
g5
I0
sg6
I0
sg7
I0
sg8
I0
sg9
I0
ss(I0
I1
I1
I0
I0
tp1427
(dp1428
g5
I0
sg6
I0
sg7
I0
sg8
I0
sg9
I0
ss(I1
I2
I2
I1
I1
tp1429
(dp1430
g5
I0
sg6
I0
sg7
I0
sg8
I0
sg9
I0
ss(I2
I1
I1
I0
I0
tp1431
(dp1432
g5
I0
sg6
I0
sg7
I0
sg8
I0
sg9
I0
ss(I1
I2
I0
I0
I1
tp1433
(dp1434
g5
I0
sg6
I0
sg7
I0
sg8
I0
sg9
I0
ss(I1
I2
I2
I2
I0
tp1435
(dp1436
g5
I0
sg6
I0
sg7
I0
sg8
I0
sg9
I0
ss(I0
I1
I2
I1
I0
tp1437
(dp1438
g5
I0
sg6
I0
sg7
I0
sg8
I0
sg9
I0
ss(I2
I0
I1
I0
I0
tp1439
(dp1440
g5
I0
sg6
I0
sg7
I0
sg8
I0
sg9
I0
ss(I1
I1
I1
I1
I0
tp1441
(dp1442
g5
I0
sg6
I0
sg7
I0
sg8
I0
sg9
I0
ss(I2
I1
I2
I2
I0
tp1443
(dp1444
g5
I0
sg6
I0
sg7
I0
sg8
I0
sg9
I0
ss(I2
I1
I2
I1
I1
tp1445
(dp1446
g5
I0
sg6
I0
sg7
I0
sg8
I0
sg9
I0
ss(I2
I0
I2
I1
I0
tp1447
(dp1448
g5
I0
sg6
I0
sg7
I0
sg8
I0
sg9
I0
ss(I1
I1
I0
I2
I0
tp1449
(dp1450
g5
I0
sg6
I0
sg7
I0
sg8
I0
sg9
I0
ss(I2
I1
I2
I0
I1
tp1451
(dp1452
g5
I0
sg6
I0
sg7
I0
sg8
I0
sg9
I0
ss(I2
I1
I1
I0
I1
tp1453
(dp1454
g5
I0
sg6
I0
sg7
I0
sg8
I0
sg9
I0
ss(I1
I1
I2
I0
I0
tp1455
(dp1456
g5
I0
sg6
I0
sg7
I0
sg8
I0
sg9
I0
ss(I0
I0
I1
I0
I1
tp1457
(dp1458
g5
F-1.1140084229527805
sg6
F0.6215525365368746
sg7
F-28.00693500121806
sg8
I0
sg9
F4.1654750620836705
ss(I0
I0
I2
I2
I0
tp1459
(dp1460
g5
I0
sg6
I0
sg7
I0
sg8
I0
sg9
I0
ss(I1
I1
I0
I0
I1
tp1461
(dp1462
g5
I0
sg6
I0
sg7
I0
sg8
I0
sg9
I0
ss(I0
I1
I0
I0
I1
tp1463
(dp1464
g5
I0
sg6
I0
sg7
I0
sg8
I0
sg9
I0
ss(I1
I2
I2
I0
I0
tp1465
(dp1466
g5
I0
sg6
I0
sg7
I0
sg8
I0
sg9
I0
ss(I2
I1
I0
I0
I0
tp1467
(dp1468
g5
I0
sg6
I0
sg7
I0
sg8
I0
sg9
I0
ss(I2
I1
I2
I2
I1
tp1469
(dp1470
g5
I0
sg6
I0
sg7
I0
sg8
I0
sg9
I0
ss(I1
I2
I1
I0
I0
tp1471
(dp1472
g5
I0
sg6
I0
sg7
I0
sg8
I0
sg9
I0
ss(I2
I0
I0
I0
I1
tp1473
(dp1474
g5
F-3.4073780012659487
sg6
F8.085647230142484
sg7
F-33.04276498729322
sg8
I0
sg9
F-3.917211712763693
ss(I1
I2
I2
I1
I0
tp1475
(dp1476
g5
I0
sg6
I0
sg7
I0
sg8
I0
sg9
I0
ss(I0
I2
I2
I1
I0
tp1477
(dp1478
g5
I0
sg6
I0
sg7
I0
sg8
I0
sg9
I0
ss(I2
I0
I1
I0
I1
tp1479
(dp1480
g5
F-5.814620546238479
sg6
F6.0058950221916945
sg7
F-35.99041689260465
sg8
I0
sg9
F0.026166662081165998
ss(I2
I1
I2
I1
I0
tp1481
(dp1482
g5
I0
sg6
I0
sg7
I0
sg8
I0
sg9
I0
ss(I1
I0
I0
I0
I0
tp1483
(dp1484
g5
I0
sg6
I0
sg7
I0
sg8
I0
sg9
I0
ss(I0
I0
I0
I2
I0
tp1485
(dp1486
g5
I0
sg6
I0
sg7
I0
sg8
I0
sg9
I0
ss(I2
I2
I1
I2
I0
tp1487
(dp1488
g5
I0
sg6
I0
sg7
I0
sg8
I0
sg9
I0
ss(I0
I2
I1
I1
I0
tp1489
(dp1490
g5
I0
sg6
I0
sg7
I0
sg8
I0
sg9
I0
ss(I2
I2
I0
I1
I0
tp1491
(dp1492
g5
I0
sg6
I0
sg7
I0
sg8
I0
sg9
I0
ss(I1
I1
I2
I0
I1
tp1493
(dp1494
g5
I0
sg6
I0
sg7
I0
sg8
I0
sg9
I0
ss(I2
I1
I0
I0
I1
tp1495
(dp1496
g5
I0
sg6
I0
sg7
I0
sg8
I0
sg9
I0
ss(I0
I1
I0
I2
I1
tp1497
(dp1498
g5
I0
sg6
I0
sg7
I0
sg8
I0
sg9
I0
ss(I0
I1
I1
I1
I0
tp1499
(dp1500
g5
I0
sg6
I0
sg7
I0
sg8
I0
sg9
I0
ss(I0
I1
I0
I0
I0
tp1501
(dp1502
g5
I0
sg6
I0
sg7
I0
sg8
I0
sg9
I0
ss(I0
I2
I0
I0
I1
tp1503
(dp1504
g5
I0
sg6
I0
sg7
I0
sg8
I0
sg9
I0
ss(I0
I1
I2
I0
I0
tp1505
(dp1506
g5
I0
sg6
I0
sg7
I0
sg8
I0
sg9
I0
ss(I1
I1
I1
I0
I0
tp1507
(dp1508
g5
I0
sg6
I0
sg7
I0
sg8
I0
sg9
I0
ss(I1
I0
I2
I1
I1
tp1509
(dp1510
g5
F-1.9988736762643697
sg6
F-1.9436325457634456
sg7
F-37.96799510918675
sg8
I0
sg9
F4.000383567889685
ss(I2
I0
I0
I0
I0
tp1511
(dp1512
g5
I0
sg6
I0
sg7
I0
sg8
I0
sg9
I0
ss(I1
I1
I2
I1
I0
tp1513
(dp1514
g5
I0
sg6
I0
sg7
I0
sg8
I0
sg9
I0
ss(I1
I0
I2
I0
I0
tp1515
(dp1516
g5
I0
sg6
I0
sg7
I0
sg8
I0
sg9
I0
ss(I1
I0
I1
I0
I1
tp1517
(dp1518
g5
F-3.992878263874035
sg6
F2.0826351688148015
sg7
F-33.36230307645126
sg8
I0
sg9
F2.013073324294748
ss(I0
I2
I2
I1
I1
tp1519
(dp1520
g5
I0
sg6
I0
sg7
I0
sg8
I0
sg9
I0
ss(I2
I2
I0
I2
I1
tp1521
(dp1522
g5
I0
sg6
I0
sg7
I0
sg8
I0
sg9
I0
ss(I0
I2
I0
I2
I0
tp1523
(dp1524
g5
I0
sg6
I0
sg7
I0
sg8
I0
sg9
I0
ss(I2
I2
I1
I1
I1
tp1525
(dp1526
g5
I0
sg6
I0
sg7
I0
sg8
I0
sg9
I0
ss(I1
I0
I0
I0
I1
tp1527
(dp1528
g5
F-1.9940329815762525
sg6
F4.017998659505825
sg7
F-31.005220706224595
sg8
I0
sg9
F-1.974447762674331
ss(I2
I1
I0
I2
I0
tp1529
(dp1530
g5
I0
sg6
I0
sg7
I0
sg8
I0
sg9
I0
ss(I0
I2
I2
I2
I0
tp1531
(dp1532
g5
I0
sg6
I0
sg7
I0
sg8
I0
sg9
I0
ss(I0
I2
I2
I2
I1
tp1533
(dp1534
g5
I0
sg6
I0
sg7
I0
sg8
I0
sg9
I0
ss(I2
I2
I0
I1
I1
tp1535
(dp1536
g5
I0
sg6
I0
sg7
I0
sg8
I0
sg9
I0
ss(I2
I0
I2
I2
I1
tp1537
(dp1538
g5
F3.3851840549030373e-06
sg6
F1.3331848735555203e-10
sg7
F-41.966407926106385
sg8
I0
sg9
F1.160005440410642e-09
ss(I0
I1
I0
I1
I1
tp1539
(dp1540
g5
I0
sg6
I0
sg7
I0
sg8
I0
sg9
I0
ss(I1
I2
I1
I1
I0
tp1541
(dp1542
g5
I0
sg6
I0
sg7
I0
sg8
I0
sg9
I0
ss(I0
I1
I0
I2
I0
tp1543
(dp1544
g5
I0
sg6
I0
sg7
I0
sg8
I0
sg9
I0
ss(I0
I1
I1
I2
I1
tp1545
(dp1546
g5
I0
sg6
I0
sg7
I0
sg8
I0
sg9
I0
ss(I1
I1
I2
I2
I1
tp1547
(dp1548
g5
I0
sg6
I0
sg7
I0
sg8
I0
sg9
I0
ss(I0
I1
I1
I1
I1
tp1549
(dp1550
g5
I0
sg6
I0
sg7
I0
sg8
I0
sg9
I0
ss(I1
I2
I0
I2
I0
tp1551
(dp1552
g5
I0
sg6
I0
sg7
I0
sg8
I0
sg9
I0
ss(I0
I0
I2
I0
I0
tp1553
(dp1554
g5
I0
sg6
I0
sg7
I0
sg8
I0
sg9
I0
ss(I0
I2
I0
I0
I0
tp1555
(dp1556
g5
I0
sg6
I0
sg7
I0
sg8
I0
sg9
I0
ss(I0
I1
I2
I0
I1
tp1557
(dp1558
g5
I0
sg6
I0
sg7
I0
sg8
I0
sg9
I0
ss(I1
I1
I1
I0
I1
tp1559
(dp1560
g5
I0
sg6
I0
sg7
I0
sg8
I0
sg9
I0
ss(I0
I0
I0
I2
I1
tp1561
(dp1562
g5
F8.012055444560373
sg6
F-3.6256759699493917
sg7
F-32.61911623530177
sg8
I0
sg9
F-3.369238011722953
ss(I1
I0
I2
I1
I0
tp1563
(dp1564
g5
I0
sg6
I0
sg7
I0
sg8
I0
sg9
I0
ss(I1
I1
I2
I1
I1
tp1565
(dp1566
g5
I0
sg6
I0
sg7
I0
sg8
I0
sg9
I0
ss(I0
I0
I1
I1
I1
tp1567
(dp1568
g5
F4.060643214961069
sg6
F-2.2971295875050486
sg7
F-33.369681687634525
sg8
I0
sg9
F2.0470373023570168
ss(I1
I0
I1
I0
I0
tp1569
(dp1570
g5
I0
sg6
I0
sg7
I0
sg8
I0
sg9
I0
ss(I0
I0
I1
I2
I1
tp1571
(dp1572
g5
F6.393078296668662
sg6
F-4.69081235811578
sg7
F-35.73964966823955
sg8
I0
sg9
F0.17145619935020284
ss(I2
I0
I2
I2
I0
tp1573
(dp1574
g5
I0
sg6
I0
sg7
I0
sg8
I0
sg9
I0
ss(I0
I2
I0
I2
I1
tp1575
(dp1576
g5
I0
sg6
I0
sg7
I0
sg8
I0
sg9
I0
ss(I0
I0
I0
I0
I1
tp1577
(dp1578
g5
F3.7623854221898867
sg6
F2.0246612360054956
sg7
F-24.602908688644916
sg8
I0
sg9
F1.2329219890882064
ss(I2
I2
I1
I1
I0
tp1579
(dp1580
g5
I0
sg6
I0
sg7
I0
sg8
I0
sg9
I0
ss(I0
I0
I0
I0
I0
tp1581
(dp1582
g5
I0
sg6
I0
sg7
I0
sg8
I0
sg9
I0
ss(I2
I2
I0
I2
I0
tp1583
(dp1584
g5
I0
sg6
I0
sg7
I0
sg8
I0
sg9
I0
ss(I1
I2
I0
I1
I1
tp1585
(dp1586
g5
I0
sg6
I0
sg7
I0
sg8
I0
sg9
I0
ss(I2
I0
I1
I1
I0
tp1587
(dp1588
g5
I0
sg6
I0
sg7
I0
sg8
I0
sg9
I0
ss(I0
I1
I0
I1
I0
tp1589
(dp1590
g5
I0
sg6
I0
sg7
I0
sg8
I0
sg9
I0
ss(I1
I2
I1
I2
I1
tp1591
(dp1592
g5
I0
sg6
I0
sg7
I0
sg8
I0
sg9
I0
ss(I1
I2
I1
I1
I1
tp1593
(dp1594
g5
I0
sg6
I0
sg7
I0
sg8
I0
sg9
I0
ss(I0
I2
I1
I0
I0
tp1595
(dp1596
g5
I0
sg6
I0
sg7
I0
sg8
I0
sg9
I0
ss(I0
I1
I1
I2
I0
tp1597
(dp1598
g5
I0
sg6
I0
sg7
I0
sg8
I0
sg9
I0
ss(I0
I0
I0
I1
I0
tp1599
(dp1600
g5
I0
sg6
I0
sg7
I0
sg8
I0
sg9
I0
ss(I1
I1
I2
I2
I0
tp1601
(dp1602
g5
I0
sg6
I0
sg7
I0
sg8
I0
sg9
I0
ss(I1
I2
I0
I2
I1
tp1603
(dp1604
g5
I0
sg6
I0
sg7
I0
sg8
I0
sg9
I0
ss(I2
I1
I1
I2
I1
tp1605
(dp1606
g5
I0
sg6
I0
sg7
I0
sg8
I0
sg9
I0
ss(I2
I0
I1
I2
I0
tp1607
(dp1608
g5
I0
sg6
I0
sg7
I0
sg8
I0
sg9
I0
ss(I2
I1
I0
I1
I1
tp1609
(dp1610
g5
I0
sg6
I0
sg7
I0
sg8
I0
sg9
I0
ss(I1
I2
I0
I1
I0
tp1611
(dp1612
g5
I0
sg6
I0
sg7
I0
sg8
I0
sg9
I0
ss(I2
I2
I2
I0
I1
tp1613
(dp1614
g5
I0
sg6
I0
sg7
I0
sg8
I0
sg9
I0
ss(I2
I1
I0
I2
I1
tp1615
(dp1616
g5
I0
sg6
I0
sg7
I0
sg8
I0
sg9
I0
ss(I0
I2
I1
I2
I0
tp1617
(dp1618
g5
I0
sg6
I0
sg7
I0
sg8
I0
sg9
I0
ss(I0
I0
I1
I1
I0
tp1619
(dp1620
g5
I0
sg6
I0
sg7
I0
sg8
I0
sg9
I0
ss(I2
I2
I0
I0
I0
tp1621
(dp1622
g5
I0
sg6
I0
sg7
I0
sg8
I0
sg9
I0
ss(I0
I2
I1
I0
I1
tp1623
(dp1624
g5
I0
sg6
I0
sg7
I0
sg8
I0
sg9
I0
ss(I2
I0
I0
I2
I0
tp1625
(dp1626
g5
I0
sg6
I0
sg7
I0
sg8
I0
sg9
I0
ss(I0
I0
I0
I1
I1
tp1627
(dp1628
g5
F4.694759193696315
sg6
F3.46091184450269
sg7
F-27.496538071482583
sg8
I0
sg9
F1.6581585446931948
ss(I0
I0
I1
I2
I0
tp1629
(dp1630
g5
I0
sg6
I0
sg7
I0
sg8
I0
sg9
I0
ss(I1
I0
I2
I0
I1
tp1631
(dp1632
g5
F-5.990099810521958
sg6
F0.6349787885630889
sg7
F-35.62337903898646
sg8
I0
sg9
F6.002454888361114
ssa(dp1633
(I0
I2
I0
I1
I0
tp1634
(dp1635
g5
F1395.1041460574295
sg6
F1788.2153773213404
sg7
I0
sg8
F1101.5672416311354
sg9
I0
ss(I2
I0
I1
I1
I1
tp1636
(dp1637
g5
F2113.3104030939962
sg6
F2206.6840614423436
sg7
I0
sg8
F2120.770604599663
sg9
F2097.9079286532806
ss(I1
I2
I1
I2
I0
tp1638
(dp1639
g5
F2111.887348869395
sg6
F2100.5061802837513
sg7
I0
sg8
F2106.0220265298426
sg9
F2090.792532907041
ss(I2
I2
I2
I0
I0
tp1640
(dp1641
g5
F1950.955451331661
sg6
F2071.477887353352
sg7
I0
sg8
F2113.916231654012
sg9
F2058.9551726733407
ss(I2
I0
I2
I0
I1
tp1642
(dp1643
g5
F1971.5796818748845
sg6
F2144.234200655668
sg7
I0
sg8
F1857.7411439386474
sg9
F2131.5912206294256
ss(I1
I0
I0
I2
I0
tp1644
(dp1645
g5
I0
sg6
F467.981342166982
sg7
I0
sg8
F1113.06621848215
sg9
F1156.6562604064147
ss(I2
I0
I0
I1
I1
tp1646
(dp1647
g5
F2130.7027832663052
sg6
F2212.890859782491
sg7
I0
sg8
F2079.4361197446324
sg9
F2069.380146393765
ss(I2
I1
I1
I1
I0
tp1648
(dp1649
g5
F2098.993056484491
sg6
F2047.480076490235
sg7
I0
sg8
F2085.958774045534
sg9
F2079.4425217263056
ss(I0
I2
I1
I2
I1
tp1650
(dp1651
g5
F2173.1904159943624
sg6
F2151.874284880718
sg7
I0
sg8
F2189.112400054203
sg9
F2162.4708033543566
ss(I2
I1
I1
I2
I0
tp1652
(dp1653
g5
F2116.2495638244336
sg6
F2140.810379020527
sg7
I0
sg8
F2111.893038627687
sg9
F2111.3770579505317
ss(I1
I0
I1
I1
I0
tp1654
(dp1655
g5
F1395.1679812931607
sg6
F1069.6763901956506
sg7
I0
sg8
F1032.2821321785104
sg9
F902.6212014604071
ss(I2
I0
I1
I2
I1
tp1656
(dp1657
g5
F2162.6593844178424
sg6
F2158.089734704236
sg7
I0
sg8
F1872.1218208827834
sg9
F2002.25343701225
ss(I2
I2
I2
I1
I0
tp1658
(dp1659
g5
F2118.368590605977
sg6
F2120.1637348767026
sg7
I0
sg8
F2129.6650754634593
sg9
F2110.9139338576706
ss(I2
I1
I0
I1
I0
tp1660
(dp1661
g5
F1622.6613043873497
sg6
F1909.5681451143469
sg7
I0
sg8
F1922.6610196721608
sg9
F1338.5169630344362
ss(I2
I2
I1
I0
I0
tp1662
(dp1663
g5
F1789.3224437925483
sg6
F1955.420656441392
sg7
I0
sg8
F1793.1837265774136
sg9
F2037.3763535046799
ss(I0
I1
I2
I2
I0
tp1664
(dp1665
g5
F1873.774752335412
sg6
F1585.4088863320299
sg7
I0
sg8
F1753.9526606082864
sg9
F1219.5484529350194
ss(I2
I2
I2
I2
I1
tp1666
(dp1667
g5
F2147.3975442277915
sg6
F2162.8461765650536
sg7
I0
sg8
F2161.1474391870547
sg9
F2168.095792149289
ss(I1
I0
I2
I2
I1
tp1668
(dp1669
g5
F2168.304334851278
sg6
F2002.1044269954893
sg7
I0
sg8
F1962.500154790194
sg9
F2150.86024532144
ss(I0
I2
I1
I1
I1
tp1670
(dp1671
g5
F2193.57700321082
sg6
F2190.0719896891424
sg7
I0
sg8
F2208.918111795331
sg9
F2202.2569372833495
ss(I2
I0
I0
I2
I1
tp1672
(dp1673
g5
F2071.8489578807794
sg6
F2124.1789694855215
sg7
I0
sg8
F1677.04685522106
sg9
F1776.5802300828022
ss(I2
I1
I1
I1
I1
tp1674
(dp1675
g5
F2198.123933697293
sg6
F2198.1538415231976
sg7
I0
sg8
F2178.5400070813407
sg9
F2184.3018077207253
ss(I1
I1
I0
I1
I0
tp1676
(dp1677
g5
F1678.219247723468
sg6
F1572.7734624287323
sg7
I0
sg8
F1561.6404031330974
sg9
F1585.6055023836466
ss(I0
I2
I2
I0
I1
tp1678
(dp1679
g5
F2134.9364448188535
sg6
F2137.647093835702
sg7
I0
sg8
F2162.6651104506436
sg9
F2144.835622591214
ss(I2
I2
I1
I2
I1
tp1680
(dp1681
g5
F2181.522390216513
sg6
F2180.4483265200456
sg7
I0
sg8
F2178.866179686379
sg9
F2166.202523763025
ss(I1
I0
I1
I2
I1
tp1682
(dp1683
g5
F2187.278101711251
sg6
F2037.138146526464
sg7
I0
sg8
F1960.9053275586386
sg9
F2050.31914887917
ss(I0
I2
I0
I1
I1
tp1684
(dp1685
g5
F2192.3919094098146
sg6
F2197.1713520026683
sg7
I0
sg8
F2200.211685879358
sg9
F2198.9487404789556
ss(I1
I1
I1
I2
I0
tp1686
(dp1687
g5
F1981.186995282422
sg6
F2051.7265317395604
sg7
I0
sg8
F2015.1753331929563
sg9
F2098.3283491263014
ss(I1
I0
I0
I1
I1
tp1688
(dp1689
g5
F2209.527609989542
sg6
F2211.199820821584
sg7
I0
sg8
F2188.576837680038
sg9
F2191.4488269029534
ss(I2
I0
I2
I0
I0
tp1690
(dp1691
g5
F511.2849644297348
sg6
I0
sg7
I0
sg8
I0
sg9
I0
ss(I0
I0
I2
I1
I0
tp1692
(dp1693
g5
F477.1148415108248
sg6
F497.97573032395763
sg7
I0
sg8
F519.1950020429769
sg9
F519.0291626325254
ss(I1
I0
I0
I2
I1
tp1694
(dp1695
g5
F2203.4651344022227
sg6
F2003.5341748719288
sg7
I0
sg8
F2026.2891997939264
sg9
F1969.1981007703068
ss(I2
I2
I0
I0
I1
tp1696
(dp1697
g5
F2199.7415886284084
sg6
F2206.483317509379
sg7
I0
sg8
F2213.1469935732744
sg9
F2192.587299797494
ss(I1
I0
I1
I1
I1
tp1698
(dp1699
g5
F2207.528544915933
sg6
F2189.3079402306066
sg7
I0
sg8
F2174.1577900033144
sg9
F2206.211200553051
ss(I2
I2
I2
I1
I1
tp1700
(dp1701
g5
F2169.795662907857
sg6
F2172.707324387068
sg7
I0
sg8
F2172.540693159884
sg9
F2176.138864467805
ss(I2
I2
I1
I0
I1
tp1702
(dp1703
g5
F2191.273291637738
sg6
F2197.007320516243
sg7
I0
sg8
F2194.580771912105
sg9
F2188.8416016538063
ss(I0
I0
I2
I0
I1
tp1704
(dp1705
g5
F1952.3065825871422
sg6
F1984.5094661586536
sg7
I0
sg8
F2007.97053395479
sg9
F2183.2165695574367
ss(I1
I2
I2
I2
I1
tp1706
(dp1707
g5
F2148.036596780611
sg6
F2162.8467266184775
sg7
I0
sg8
F2162.5684809426307
sg9
F2162.627028080346
ss(I0
I1
I1
I0
I1
tp1708
(dp1709
g5
F2205.714147933119
sg6
F2203.7942713090138
sg7
I0
sg8
F2205.677776338835
sg9
F2209.6011994265245
ss(I1
I2
I0
I0
I0
tp1710
(dp1711
g5
F505.47042989575255
sg6
F1735.2468941951363
sg7
I0
sg8
F1805.7981859538245
sg9
F1406.205547403496
ss(I0
I1
I2
I1
I1
tp1712
(dp1713
g5
F2158.247669639831
sg6
F2164.0671975881073
sg7
I0
sg8
F2157.874965324692
sg9
F2160.229891933909
ss(I1
I1
I1
I1
I1
tp1714
(dp1715
g5
F2203.0912244360834
sg6
F2191.330609458012
sg7
I0
sg8
F2198.692035195369
sg9
F2207.7210876091285
ss(I0
I1
I2
I2
I1
tp1716
(dp1717
g5
F2151.127535796999
sg6
F2126.834725631007
sg7
I0
sg8
F2136.7652625950586
sg9
F2146.042774266156
ss(I1
I0
I2
I2
I0
tp1718
(dp1719
g5
F1367.5897366149534
sg6
F1357.3372248235996
sg7
I0
sg8
F1510.8706471782248
sg9
F1418.1853986508038
ss(I1
I1
I0
I2
I1
tp1720
(dp1721
g5
F2161.1532410751747
sg6
F2172.975338372371
sg7
I0
sg8
F2136.3229164012687
sg9
F2151.721629816805
ss(I1
I1
I0
I1
I1
tp1722
(dp1723
g5
F2209.600824850875
sg6
F2193.7954085023207
sg7
I0
sg8
F2209.1652921973096
sg9
F2202.1384427042094
ss(I2
I0
I2
I1
I1
tp1724
(dp1725
g5
F1939.1456837756382
sg6
F2191.7651473792675
sg7
I0
sg8
F1977.002532974865
sg9
F2119.0948056296775
ss(I0
I2
I2
I0
I0
tp1726
(dp1727
g5
F868.8252367944528
sg6
F1174.082178210629
sg7
I0
sg8
I0
sg9
F510.18457099887223
ss(I1
I0
I1
I2
I0
tp1728
(dp1729
g5
F1277.9327082060263
sg6
F1524.9089241606027
sg7
I0
sg8
I0
sg9
F1278.2688686095662
ss(I1
I1
I1
I2
I1
tp1730
(dp1731
g5
F2167.5335381342925
sg6
F2162.509377728623
sg7
I0
sg8
F2188.601351996297
sg9
F2166.6206758293724
ss(I2
I0
I0
I1
I0
tp1732
(dp1733
g5
F1159.4201727981438
sg6
F515.7091698521042
sg7
I0
sg8
F805.6555961083895
sg9
F1109.491462794505
ss(I0
I0
I2
I2
I1
tp1734
(dp1735
g5
F1832.8777341023579
sg6
F1652.3370125653064
sg7
I0
sg8
F1487.8816760931613
sg9
F2115.6887448801517
ss(I1
I0
I0
I1
I0
tp1736
(dp1737
g5
F830.5482044594646
sg6
I0
sg7
I0
sg8
I0
sg9
I0
ss(I0
I0
I2
I1
I1
tp1738
(dp1739
g5
F1916.891317963512
sg6
F1983.9325548492752
sg7
I0
sg8
F1961.1647857646676
sg9
F2174.5668027566458
ss(I1
I1
I0
I0
I0
tp1740
(dp1741
g5
F925.4102527905841
sg6
F1442.059417333493
sg7
I0
sg8
F823.1373316545928
sg9
F1735.1879712737268
ss(I2
I1
I2
I0
I0
tp1742
(dp1743
g5
F1975.1723002148547
sg6
F1736.917690373583
sg7
I0
sg8
F2081.9529658008623
sg9
F1966.5653152979548
ss(I2
I2
I2
I2
I0
tp1744
(dp1745
g5
F2134.8752445852188
sg6
F2120.2894306780745
sg7
I0
sg8
F2119.7398706645436
sg9
F2134.673311260569
ss(I1
I2
I2
I0
I1
tp1746
(dp1747
g5
F2150.818456831109
sg6
F2180.9458757704824
sg7
I0
sg8
F2186.8043563291108
sg9
F2171.908001153228
ss(I0
I0
I1
I0
I0
tp1748
(dp1749
g5
F519.3363410059226
sg6
I0
sg7
I0
sg8
I0
sg9
I0
ss(I1
I2
I1
I0
I1
tp1750
(dp1751
g5
F2202.4518821753295
sg6
F2207.5051034434377
sg7
I0
sg8
F2211.438439700718
sg9
F2197.744226209503
ss(I0
I1
I1
I0
I0
tp1752
(dp1753
g5
F467.2271781933864
sg6
F830.2474204185618
sg7
I0
sg8
I0
sg9
I0
ss(I1
I2
I2
I1
I1
tp1754
(dp1755
g5
F2192.832377918238
sg6
F2155.3217507826457
sg7
I0
sg8
F2186.5987010388994
sg9
F2177.0330310122285
ss(I2
I1
I1
I0
I0
tp1756
(dp1757
g5
F1952.6927968759146
sg6
F1834.048566537259
sg7
I0
sg8
F1932.5091895431842
sg9
F1662.9500624629898
ss(I1
I2
I0
I0
I1
tp1758
(dp1759
g5
F2202.644291332496
sg6
F2209.3662938916373
sg7
I0
sg8
F2217.6919331563677
sg9
F2204.077840868561
ss(I1
I2
I2
I2
I0
tp1760
(dp1761
g5
F2115.4229379854573
sg6
F2089.665385981454
sg7
I0
sg8
F2114.9076654083074
sg9
F2110.652990560724
ss(I0
I1
I2
I1
I0
tp1762
(dp1763
g5
F856.685851446317
sg6
F1131.3843181069751
sg7
I0
sg8
F1120.6434815223165
sg9
F1730.4573422347185
ss(I2
I0
I1
I0
I0
tp1764
(dp1765
g5
F1133.121221760919
sg6
F478.3349816598437
sg7
I0
sg8
F504.9252285916973
sg9
F870.3451154899838
ss(I1
I1
I1
I1
I0
tp1766
(dp1767
g5
F1987.1401260053476
sg6
F2000.0813483913544
sg7
I0
sg8
F2071.5195959489556
sg9
F1915.712910395507
ss(I2
I1
I2
I2
I0
tp1768
(dp1769
g5
F2126.653765054327
sg6
F2127.6773374315644
sg7
I0
sg8
F2091.103067525157
sg9
F2136.6673265647087
ss(I2
I1
I2
I1
I1
tp1770
(dp1771
g5
F2153.46893169565
sg6
F2183.0387015442757
sg7
I0
sg8
F2152.7672988173963
sg9
F2182.897499809945
ss(I2
I0
I2
I1
I0
tp1772
(dp1773
g5
F875.8732719374121
sg6
F1561.2145772154333
sg7
I0
sg8
F1749.8620409034206
sg9
F1572.5039471893972
ss(I1
I1
I0
I2
I0
tp1774
(dp1775
g5
F1989.0212145439968
sg6
F1114.302722720915
sg7
I0
sg8
F1116.3039339463073
sg9
F1764.3791586665507
ss(I2
I1
I2
I0
I1
tp1776
(dp1777
g5
F2131.983494903833
sg6
F2157.2842666960732
sg7
I0
sg8
F2154.2969415704893
sg9
F2183.146510555396
ss(I2
I1
I1
I0
I1
tp1778
(dp1779
g5
F2197.6384332931957
sg6
F2206.6230435356597
sg7
I0
sg8
F2196.466528266652
sg9
F2196.876240014817
ss(I1
I1
I2
I0
I0
tp1780
(dp1781
g5
F1916.2632135401623
sg6
F1916.2717388224578
sg7
I0
sg8
F1636.1193758039144
sg9
F1741.9827689714025
ss(I0
I0
I1
I0
I1
tp1782
(dp1783
g5
F2197.2068449332946
sg6
F2193.985148326924
sg7
I0
sg8
F2198.8910313791707
sg9
F2213.941918558186
ss(I0
I0
I2
I2
I0
tp1784
(dp1785
g5
F520.9322954495519
sg6
F369.49567491898233
sg7
I0
sg8
F845.9287368722893
sg9
F515.030548155004
ss(I1
I1
I0
I0
I1
tp1786
(dp1787
g5
F2205.4462453003807
sg6
F2210.73403014356
sg7
I0
sg8
F2210.456807162062
sg9
F2205.106437238843
ss(I0
I1
I0
I0
I1
tp1788
(dp1789
g5
F2204.111942680825
sg6
F2205.8618272470367
sg7
I0
sg8
F2213.0942950407325
sg9
F2199.374393550702
ss(I1
I2
I2
I0
I0
tp1790
(dp1791
g5
F1967.4329800647834
sg6
F1929.9779779407277
sg7
I0
sg8
F1964.2875855192053
sg9
F1943.7104056704418
ss(I2
I1
I0
I0
I0
tp1792
(dp1793
g5
F1695.6616212109757
sg6
F1116.2685788812496
sg7
I0
sg8
F1139.098957683199
sg9
F1764.9293572180031
ss(I2
I1
I2
I2
I1
tp1794
(dp1795
g5
F2160.7588651363835
sg6
F2170.699905184388
sg7
I0
sg8
F2161.83720762458
sg9
F2152.6736721892153
ss(I1
I2
I1
I0
I0
tp1796
(dp1797
g5
F1992.4170014975207
sg6
F1944.577971701265
sg7
I0
sg8
F2044.538569705813
sg9
F1920.1028951195838
ss(I2
I0
I0
I0
I1
tp1798
(dp1799
g5
F2085.383947593858
sg6
F2215.3473853211362
sg7
I0
sg8
F2142.383112363972
sg9
F2145.0496448534595
ss(I1
I2
I2
I1
I0
tp1800
(dp1801
g5
F2117.581916856642
sg6
F2120.0647698567823
sg7
I0
sg8
F2117.1039748979492
sg9
F2130.211183792284
ss(I0
I2
I2
I1
I0
tp1802
(dp1803
g5
F870.9940036582841
sg6
F1837.9375885563559
sg7
I0
sg8
F1568.2732982114799
sg9
F1200.7503271142307
ss(I2
I0
I1
I0
I1
tp1804
(dp1805
g5
F2150.227921127115
sg6
F2209.5539081551015
sg7
I0
sg8
F2142.23838243958
sg9
F2149.058249707372
ss(I2
I1
I2
I1
I0
tp1806
(dp1807
g5
F2102.7894838096336
sg6
F2109.6163700552142
sg7
I0
sg8
F2101.749752891847
sg9
F2117.335576552064
ss(I1
I0
I0
I0
I0
tp1808
(dp1809
g5
F865.1256746775209
sg6
F814.486095415902
sg7
I0
sg8
F1185.4289250019783
sg9
I0
ss(I0
I0
I0
I2
I0
tp1810
(dp1811
g5
I0
sg6
F812.2229235505213
sg7
I0
sg8
F473.0466401748056
sg9
F493.90302419958783
ss(I2
I2
I1
I2
I0
tp1812
(dp1813
g5
F2129.097485968516
sg6
F2131.4714883547563
sg7
I0
sg8
F2127.944276722347
sg9
F2122.6785920330417
ss(I0
I2
I1
I1
I0
tp1814
(dp1815
g5
F1193.0430823057804
sg6
F1482.7933193989697
sg7
I0
sg8
F1188.0369151043778
sg9
F1724.2268096436428
ss(I2
I2
I0
I1
I0
tp1816
(dp1817
g5
F2029.8526675768076
sg6
F2058.7597310887313
sg7
I0
sg8
F1970.698678600345
sg9
F1769.196245471599
ss(I1
I1
I2
I0
I1
tp1818
(dp1819
g5
F2162.0861073864467
sg6
F2172.786182822579
sg7
I0
sg8
F2150.73311651062
sg9
F2172.115857564273
ss(I2
I1
I0
I0
I1
tp1820
(dp1821
g5
F2193.4916980441935
sg6
F2213.6180727793953
sg7
I0
sg8
F2208.1423981500798
sg9
F2203.1777879219003
ss(I0
I1
I0
I2
I1
tp1822
(dp1823
g5
F2160.9440625895572
sg6
F2139.682739013119
sg7
I0
sg8
F2121.9374260292425
sg9
F2093.8177144474766
ss(I0
I1
I1
I1
I0
tp1824
(dp1825
g5
F859.0015931321498
sg6
F821.7679351459805
sg7
I0
sg8
F494.90302419958783
sg9
F1335.9041591327818
ss(I0
I1
I0
I0
I0
tp1826
(dp1827
g5
F901.385415359574
sg6
I0
sg7
I0
sg8
F813.3371818250132
sg9
F460.1080784584946
ss(I0
I2
I0
I0
I1
tp1828
(dp1829
g5
F2207.8486900780485
sg6
F2198.630542924591
sg7
I0
sg8
F2214.125006382731
sg9
F2204.4881343447687
ss(I0
I1
I2
I0
I0
tp1830
(dp1831
g5
F1329.8905205347091
sg6
I0
sg7
I0
sg8
F520.6950020429769
sg9
F776.3852726089198
ss(I1
I1
I1
I0
I0
tp1832
(dp1833
g5
F1992.8205368377135
sg6
F2026.8692626400762
sg7
I0
sg8
F1783.539795564273
sg9
F1857.8728300720525
ss(I1
I0
I2
I1
I1
tp1834
(dp1835
g5
F2140.9558315642407
sg6
F2028.8510730741073
sg7
I0
sg8
F2038.0487882617279
sg9
F2183.798597562153
ss(I2
I0
I0
I0
I0
tp1836
(dp1837
g5
F510.70564911608005
sg6
F462.7702957466558
sg7
I0
sg8
I0
sg9
I0
ss(I1
I1
I2
I1
I0
tp1838
(dp1839
g5
F2081.5039845187734
sg6
F2020.40741901698
sg7
I0
sg8
F2083.8864272158603
sg9
F2076.9206329644558
ss(I1
I0
I2
I0
I0
tp1840
(dp1841
g5
I0
sg6
I0
sg7
I0
sg8
F513.8362015193334
sg9
F864.3045309351741
ss(I1
I0
I1
I0
I1
tp1842
(dp1843
g5
F2189.2852063673076
sg6
F2210.8659651408398
sg7
I0
sg8
F2171.9750431668917
sg9
F2208.287095433678
ss(I0
I2
I2
I1
I1
tp1844
(dp1845
g5
F2181.5738737339134
sg6
F2130.756133033898
sg7
I0
sg8
F2181.6231703778176
sg9
F2190.883137530497
ss(I2
I2
I0
I2
I1
tp1846
(dp1847
g5
F2151.3203862027817
sg6
F2151.09627764357
sg7
I0
sg8
F2170.1737045115347
sg9
F2123.8073758415403
ss(I0
I2
I0
I2
I0
tp1848
(dp1849
g5
F495.30336272273166
sg6
F1379.1866084310702
sg7
I0
sg8
F1145.381412131826
sg9
I0
ss(I2
I2
I1
I1
I1
tp1850
(dp1851
g5
F2179.8442084480757
sg6
F2181.1556588612957
sg7
I0
sg8
F2179.2287336952413
sg9
F2194.701436749329
ss(I1
I0
I0
I0
I1
tp1852
(dp1853
g5
F2190.6140988733578
sg6
F2211.802673028265
sg7
I0
sg8
F2199.5096635980763
sg9
F2184.500868207412
ss(I2
I1
I0
I2
I0
tp1854
(dp1855
g5
F1971.0729926091662
sg6
F1937.6450897868292
sg7
I0
sg8
F1952.5275962852434
sg9
F1785.0819507084598
ss(I0
I2
I2
I2
I0
tp1856
(dp1857
g5
F2016.5035156048189
sg6
F1885.3534344656725
sg7
I0
sg8
F2034.5062449557865
sg9
F1929.8969847979893
ss(I0
I2
I2
I2
I1
tp1858
(dp1859
g5
F2165.900890654879
sg6
F2104.085779588627
sg7
I0
sg8
F2162.209750310446
sg9
F2158.959891071712
ss(I2
I2
I0
I1
I1
tp1860
(dp1861
g5
F2199.7415799291093
sg6
F2200.734894887836
sg7
I0
sg8
F2203.8002393020124
sg9
F2197.440456167828
ss(I2
I0
I2
I2
I1
tp1862
(dp1863
g5
F2104.275258116994
sg6
F2068.468096123759
sg7
I0
sg8
F1368.160982131937
sg9
F2088.0721829298222
ss(I0
I1
I0
I1
I1
tp1864
(dp1865
g5
F2206.955643596863
sg6
F2201.4223990566925
sg7
I0
sg8
F2206.3770243059344
sg9
F2203.9666652178544
ss(I1
I2
I1
I1
I0
tp1866
(dp1867
g5
F2101.813917819564
sg6
F2108.2916348070944
sg7
I0
sg8
F2105.942505891041
sg9
F2119.908364250846
ss(I0
I1
I0
I2
I0
tp1868
(dp1869
g5
F510.6036902459367
sg6
F1064.8961917737613
sg7
I0
sg8
F853.5719268292105
sg9
F863.6437046790516
ss(I0
I1
I1
I2
I1
tp1870
(dp1871
g5
F2128.1623373214343
sg6
F2158.764956707224
sg7
I0
sg8
F2172.091124591369
sg9
F2126.5941399430412
ss(I1
I1
I2
I2
I1
tp1872
(dp1873
g5
F2185.3717344348597
sg6
F2182.832824512907
sg7
I0
sg8
F2166.3085004548425
sg9
F2181.447873683406
ss(I0
I1
I1
I1
I1
tp1874
(dp1875
g5
F2204.1000856448945
sg6
F2198.2758732312786
sg7
I0
sg8
F2206.2211590005522
sg9
F2205.8386582035228
ss(I1
I2
I0
I2
I0
tp1876
(dp1877
g5
F1977.6382563219631
sg6
F1965.957614029783
sg7
I0
sg8
F1959.0632965966918
sg9
F1788.9424591362847
ss(I0
I0
I2
I0
I0
tp1878
(dp1879
g5
F897.0969490886183
sg6
I0
sg7
I0
sg8
F904.4180563372756
sg9
I0
ss(I0
I2
I0
I0
I0
tp1880
(dp1881
g5
F857.736606998875
sg6
F946.43517022487
sg7
I0
sg8
I0
sg9
F844.4893198939061
ss(I0
I1
I2
I0
I1
tp1882
(dp1883
g5
F2156.309228703922
sg6
F2162.8044426655138
sg7
I0
sg8
F2156.6713579354764
sg9
F2158.3455309697542
ss(I1
I1
I1
I0
I1
tp1884
(dp1885
g5
F2189.5118446230235
sg6
F2207.686484017884
sg7
I0
sg8
F2209.1213446124852
sg9
F2210.1067941092524
ss(I0
I0
I0
I2
I1
tp1886
(dp1887
g5
F2128.0948040221574
sg6
F1661.2817033824176
sg7
I0
sg8
F1949.9545180657071
sg9
F1549.0035281510704
ss(I1
I0
I2
I1
I0
tp1888
(dp1889
g5
F1686.9086038592577
sg6
I0
sg7
I0
sg8
F752.4480756259431
sg9
F483.906513322049
ss(I1
I1
I2
I1
I1
tp1890
(dp1891
g5
F2190.3515236048725
sg6
F2190.4264684937007
sg7
I0
sg8
F2163.4433267287595
sg9
F2198.8308967496705
ss(I0
I0
I1
I1
I1
tp1892
(dp1893
g5
F2203.670732821922
sg6
F2161.6616772807092
sg7
I0
sg8
F2167.7456653895038
sg9
F2208.7103862256017
ss(I1
I0
I1
I0
I0
tp1894
(dp1895
g5
F1309.9478921158914
sg6
I0
sg7
I0
sg8
F461.5342550905855
sg9
I0
ss(I0
I0
I1
I2
I1
tp1896
(dp1897
g5
F2164.3086923804176
sg6
F1896.8488767963313
sg7
I0
sg8
F1822.9399458022172
sg9
F1974.1757056451993
ss(I2
I0
I2
I2
I0
tp1898
(dp1899
g5
F1862.0959290585931
sg6
F1627.3679218508335
sg7
I0
sg8
F1429.8853997845576
sg9
F1865.100681894939
ss(I0
I2
I0
I2
I1
tp1900
(dp1901
g5
F2069.9956428865685
sg6
F2117.102884491399
sg7
I0
sg8
F2111.8272967601406
sg9
F2107.550652556525
ss(I0
I0
I0
I0
I1
tp1902
(dp1903
g5
F2205.4412092337384
sg6
F2197.571673320069
sg7
I0
sg8
F2203.491372181206
sg9
F2208.4487704116773
ss(I2
I2
I1
I1
I0
tp1904
(dp1905
g5
F2087.052477505623
sg6
F2091.3321013352756
sg7
I0
sg8
F2133.0582749209616
sg9
F2096.6872124128504
ss(I0
I0
I0
I0
I0
tp1906
(dp1907
g5
I0
sg6
I0
sg7
I0
sg8
F525.6209069152854
sg9
I0
ss(I2
I2
I0
I2
I0
tp1908
(dp1909
g5
F2118.2471057506427
sg6
F1945.7271803888814
sg7
I0
sg8
F2002.0474731802205
sg9
F2088.397694666659
ss(I1
I2
I0
I1
I1
tp1910
(dp1911
g5
F2208.3633063078637
sg6
F2207.238028217826
sg7
I0
sg8
F2200.5395379372308
sg9
F2200.0956977554383
ss(I2
I0
I1
I1
I0
tp1912
(dp1913
g5
F1888.985514378051
sg6
F1115.3655499783567
sg7
I0
sg8
F869.7565802480929
sg9
F1498.3051545960825
ss(I0
I1
I0
I1
I0
tp1914
(dp1915
g5
I0
sg6
F892.3860605662476
sg7
I0
sg8
F465.50480855111834
sg9
F897.156235313591
ss(I1
I2
I1
I2
I1
tp1916
(dp1917
g5
F2185.4326171208218
sg6
F2165.8891999085245
sg7
I0
sg8
F2152.086816562419
sg9
F2147.438750593412
ss(I1
I2
I1
I1
I1
tp1918
(dp1919
g5
F2176.1532376227497
sg6
F2177.11163596578
sg7
I0
sg8
F2190.183074808754
sg9
F2206.9746409461004
ss(I0
I2
I1
I0
I0
tp1920
(dp1921
g5
F495.60477602216827
sg6
F889.4030998014139
sg7
I0
sg8
F947.922063320885
sg9
F1553.135417549128
ss(I0
I1
I1
I2
I0
tp1922
(dp1923
g5
F1132.8047828937138
sg6
F1496.31511225348
sg7
I0
sg8
F1223.12011187846
sg9
F1640.198640323677
ss(I0
I0
I0
I1
I0
tp1924
(dp1925
g5
F876.851593708946
sg6
I0
sg7
I0
sg8
I0
sg9
I0
ss(I1
I1
I2
I2
I0
tp1926
(dp1927
g5
F2116.647001835677
sg6
F2099.1181289445876
sg7
I0
sg8
F2103.3295679870503
sg9
F2113.6568522173484
ss(I1
I2
I0
I2
I1
tp1928
(dp1929
g5
F2168.123023718354
sg6
F2174.035032616116
sg7
I0
sg8
F2130.2661389734885
sg9
F2143.6507354835344
ss(I2
I1
I1
I2
I1
tp1930
(dp1931
g5
F2198.716895889832
sg6
F2171.7568209113488
sg7
I0
sg8
F2148.251088359902
sg9
F2174.8925392514684
ss(I2
I0
I1
I2
I0
tp1932
(dp1933
g5
F1643.1814105162841
sg6
F1071.7637137813304
sg7
I0
sg8
F1703.5286848205674
sg9
F474.89193322313326
ss(I2
I1
I0
I1
I1
tp1934
(dp1935
g5
F2205.621215633547
sg6
F2208.6143843859295
sg7
I0
sg8
F2205.648291613418
sg9
F2199.459234733787
ss(I1
I2
I0
I1
I0
tp1936
(dp1937
g5
F1771.839467832307
sg6
F1912.3828333142703
sg7
I0
sg8
F1907.5432670857404
sg9
F1911.3520960199194
ss(I2
I2
I2
I0
I1
tp1938
(dp1939
g5
F2128.9741854357644
sg6
F2164.3949859186323
sg7
I0
sg8
F2176.976616172747
sg9
F2144.9698567461005
ss(I2
I1
I0
I2
I1
tp1940
(dp1941
g5
F2159.6093721722164
sg6
F2162.0229582704283
sg7
I0
sg8
F2125.2481722515176
sg9
F2149.055792364402
ss(I0
I2
I1
I2
I0
tp1942
(dp1943
g5
F1913.6767687649854
sg6
F1651.6548518261934
sg7
I0
sg8
F1793.0102659181644
sg9
F1756.1461968912672
ss(I0
I0
I1
I1
I0
tp1944
(dp1945
g5
F494.2216587606389
sg6
I0
sg7
I0
sg8
I0
sg9
F1076.7871109181272
ss(I2
I2
I0
I0
I0
tp1946
(dp1947
g5
F1707.3884059389147
sg6
F1835.3858040196255
sg7
I0
sg8
F1377.138829217447
sg9
F1934.2227273226217
ss(I0
I2
I1
I0
I1
tp1948
(dp1949
g5
F2199.4009090064374
sg6
F2202.154494640844
sg7
I0
sg8
F2208.6637145708673
sg9
F2203.1362208481764
ss(I2
I0
I0
I2
I0
tp1950
(dp1951
g5
F868.295437850091
sg6
F1415.6448111978032
sg7
I0
sg8
F480.37894537281454
sg9
F751.8833715537969
ss(I0
I0
I0
I1
I1
tp1952
(dp1953
g5
F2212.6145469743024
sg6
F2178.5132308334505
sg7
I0
sg8
F2184.4641020198023
sg9
F2199.105831544786
ss(I0
I0
I1
I2
I0
tp1954
(dp1955
g5
F826.3071602663592
sg6
F1059.0169018299125
sg7
I0
sg8
I0
sg9
F448.2267310313981
ss(I1
I0
I2
I0
I1
tp1956
(dp1957
g5
F2114.5024833963116
sg6
F2088.724551954975
sg7
I0
sg8
F2008.9264447649448
sg9
F2166.9354509763925
ssaa(lp1958
(dp1959
(I0
I2
I0
I1
I0
tp1960
(dp1961
g5
I0
sg6
I0
sg7
I0
sg8
I0
sg9
I0
ss(I2
I0
I1
I1
I1
tp1962
(dp1963
g5
I0
sg6
I0
sg7
I0
sg8
I0
sg9
I0
ss(I1
I2
I1
I2
I0
tp1964
(dp1965
g5
I0
sg6
I0
sg7
I0
sg8
I0
sg9
I0
ss(I2
I2
I2
I0
I0
tp1966
(dp1967
g5
I0
sg6
I0
sg7
I0
sg8
I0
sg9
I0
ss(I2
I0
I2
I0
I1
tp1968
(dp1969
g5
I0
sg6
I0
sg7
I0
sg8
I0
sg9
I0
ss(I1
I0
I0
I2
I0
tp1970
(dp1971
g5
I0
sg6
I0
sg7
I0
sg8
I0
sg9
I0
ss(I2
I0
I0
I1
I1
tp1972
(dp1973
g5
F1.1291870035865308
sg6
F6.420659187160235
sg7
F-35.406255934736876
sg8
F-3.819434414822253
sg9
I0
ss(I2
I1
I1
I1
I0
tp1974
(dp1975
g5
I0
sg6
I0
sg7
I0
sg8
I0
sg9
I0
ss(I0
I2
I1
I2
I1
tp1976
(dp1977
g5
I0
sg6
I0
sg7
I0
sg8
I0
sg9
I0
ss(I2
I1
I1
I2
I0
tp1978
(dp1979
g5
I0
sg6
I0
sg7
I0
sg8
I0
sg9
I0
ss(I1
I0
I1
I1
I0
tp1980
(dp1981
g5
I0
sg6
I0
sg7
I0
sg8
I0
sg9
I0
ss(I2
I0
I1
I2
I1
tp1982
(dp1983
g5
I0
sg6
I0
sg7
I0
sg8
I0
sg9
I0
ss(I2
I2
I2
I1
I0
tp1984
(dp1985
g5
I0
sg6
I0
sg7
I0
sg8
I0
sg9
I0
ss(I2
I1
I0
I1
I0
tp1986
(dp1987
g5
I0
sg6
I0
sg7
I0
sg8
I0
sg9
I0
ss(I2
I2
I1
I0
I0
tp1988
(dp1989
g5
I0
sg6
I0
sg7
I0
sg8
I0
sg9
I0
ss(I0
I1
I2
I2
I0
tp1990
(dp1991
g5
I0
sg6
I0
sg7
I0
sg8
I0
sg9
I0
ss(I2
I2
I2
I2
I1
tp1992
(dp1993
g5
I0
sg6
I0
sg7
I0
sg8
I0
sg9
I0
ss(I1
I0
I2
I2
I1
tp1994
(dp1995
g5
I0
sg6
I0
sg7
I0
sg8
I0
sg9
I0
ss(I0
I2
I1
I1
I1
tp1996
(dp1997
g5
I0
sg6
I0
sg7
I0
sg8
I0
sg9
I0
ss(I2
I0
I0
I2
I1
tp1998
(dp1999
g5
F4.233111405245168
sg6
F4.14235974645497
sg7
F-37.674748750401434
sg8
F-7.562496256438541
sg9
I0
ss(I2
I1
I1
I1
I1
tp2000
(dp2001
g5
I0
sg6
I0
sg7
I0
sg8
I0
sg9
I0
ss(I1
I1
I0
I1
I0
tp2002
(dp2003
g5
I0
sg6
I0
sg7
I0
sg8
I0
sg9
I0
ss(I0
I2
I2
I0
I1
tp2004
(dp2005
g5
I0
sg6
I0
sg7
I0
sg8
I0
sg9
I0
ss(I2
I2
I1
I2
I1
tp2006
(dp2007
g5
I0
sg6
I0
sg7
I0
sg8
I0
sg9
I0
ss(I1
I0
I1
I2
I1
tp2008
(dp2009
g5
I0
sg6
I0
sg7
I0
sg8
I0
sg9
I0
ss(I0
I2
I0
I1
I1
tp2010
(dp2011
g5
F2.293824258827429
sg6
F-1.423117284074022
sg7
F-35.89313715114264
sg8
F6.000246831613396
sg9
I0
ss(I1
I1
I1
I2
I0
tp2012
(dp2013
g5
I0
sg6
I0
sg7
I0
sg8
I0
sg9
I0
ss(I1
I0
I0
I1
I1
tp2014
(dp2015
g5
F6.228158713566647
sg6
F6.107388929859058
sg7
F-30.795558604449848
sg8
F0.6674502522427384
sg9
I0
ss(I2
I0
I2
I0
I0
tp2016
(dp2017
g5
I0
sg6
I0
sg7
I0
sg8
I0
sg9
I0
ss(I0
I0
I2
I1
I0
tp2018
(dp2019
g5
I0
sg6
I0
sg7
I0
sg8
I0
sg9
I0
ss(I1
I0
I0
I2
I1
tp2020
(dp2021
g5
F6.466382974719778
sg6
F2.573280477362342
sg7
F-34.8758472980943
sg8
F-5.427445757808937
sg9
I0
ss(I2
I2
I0
I0
I1
tp2022
(dp2023
g5
F-7.499211339367923
sg6
F5.931085365026102
sg7
F-37.89970510118763
sg8
F4.009895019348164
sg9
I0
ss(I1
I0
I1
I1
I1
tp2024
(dp2025
g5
I0
sg6
I0
sg7
I0
sg8
I0
sg9
I0
ss(I2
I2
I2
I1
I1
tp2026
(dp2027
g5
I0
sg6
I0
sg7
I0
sg8
I0
sg9
I0
ss(I2
I2
I1
I0
I1
tp2028
(dp2029
g5
I0
sg6
I0
sg7
I0
sg8
I0
sg9
I0
ss(I0
I0
I2
I0
I1
tp2030
(dp2031
g5
I0
sg6
I0
sg7
I0
sg8
I0
sg9
I0
ss(I1
I2
I2
I2
I1
tp2032
(dp2033
g5
I0
sg6
I0
sg7
I0
sg8
I0
sg9
I0
ss(I0
I1
I1
I0
I1
tp2034
(dp2035
g5
I0
sg6
I0
sg7
I0
sg8
I0
sg9
I0
ss(I1
I2
I0
I0
I0
tp2036
(dp2037
g5
I0
sg6
I0
sg7
I0
sg8
I0
sg9
I0
ss(I0
I1
I2
I1
I1
tp2038
(dp2039
g5
I0
sg6
I0
sg7
I0
sg8
I0
sg9
I0
ss(I1
I1
I1
I1
I1
tp2040
(dp2041
g5
I0
sg6
I0
sg7
I0
sg8
I0
sg9
I0
ss(I0
I1
I2
I2
I1
tp2042
(dp2043
g5
I0
sg6
I0
sg7
I0
sg8
I0
sg9
I0
ss(I1
I0
I2
I2
I0
tp2044
(dp2045
g5
I0
sg6
I0
sg7
I0
sg8
I0
sg9
I0
ss(I1
I1
I0
I2
I1
tp2046
(dp2047
g5
F4.000334238521056
sg6
F-1.997214987095362
sg7
F-36.74695322179803
sg8
F0.07589605124554089
sg9
I0
ss(I1
I1
I0
I1
I1
tp2048
(dp2049
g5
F3.6622218973384215
sg6
F4.259188032347455
sg7
F-35.19836383147717
sg8
F2.4304992245656387
sg9
I0
ss(I2
I0
I2
I1
I1
tp2050
(dp2051
g5
I0
sg6
I0
sg7
I0
sg8
I0
sg9
I0
ss(I0
I2
I2
I0
I0
tp2052
(dp2053
g5
I0
sg6
I0
sg7
I0
sg8
I0
sg9
I0
ss(I1
I0
I1
I2
I0
tp2054
(dp2055
g5
I0
sg6
I0
sg7
I0
sg8
I0
sg9
I0
ss(I1
I1
I1
I2
I1
tp2056
(dp2057
g5
I0
sg6
I0
sg7
I0
sg8
I0
sg9
I0
ss(I2
I0
I0
I1
I0
tp2058
(dp2059
g5
I0
sg6
I0
sg7
I0
sg8
I0
sg9
I0
ss(I0
I0
I2
I2
I1
tp2060
(dp2061
g5
I0
sg6
I0
sg7
I0
sg8
I0
sg9
I0
ss(I1
I0
I0
I1
I0
tp2062
(dp2063
g5
I0
sg6
I0
sg7
I0
sg8
I0
sg9
I0
ss(I0
I0
I2
I1
I1
tp2064
(dp2065
g5
I0
sg6
I0
sg7
I0
sg8
I0
sg9
I0
ss(I1
I1
I0
I0
I0
tp2066
(dp2067
g5
I0
sg6
I0
sg7
I0
sg8
I0
sg9
I0
ss(I2
I1
I2
I0
I0
tp2068
(dp2069
g5
I0
sg6
I0
sg7
I0
sg8
I0
sg9
I0
ss(I2
I2
I2
I2
I0
tp2070
(dp2071
g5
I0
sg6
I0
sg7
I0
sg8
I0
sg9
I0
ss(I1
I2
I2
I0
I1
tp2072
(dp2073
g5
I0
sg6
I0
sg7
I0
sg8
I0
sg9
I0
ss(I0
I0
I1
I0
I0
tp2074
(dp2075
g5
I0
sg6
I0
sg7
I0
sg8
I0
sg9
I0
ss(I1
I2
I1
I0
I1
tp2076
(dp2077
g5
I0
sg6
I0
sg7
I0
sg8
I0
sg9
I0
ss(I0
I1
I1
I0
I0
tp2078
(dp2079
g5
I0
sg6
I0
sg7
I0
sg8
I0
sg9
I0
ss(I1
I2
I2
I1
I1
tp2080
(dp2081
g5
I0
sg6
I0
sg7
I0
sg8
I0
sg9
I0
ss(I2
I1
I1
I0
I0
tp2082
(dp2083
g5
I0
sg6
I0
sg7
I0
sg8
I0
sg9
I0
ss(I1
I2
I0
I0
I1
tp2084
(dp2085
g5
F-4.800565237185373
sg6
F2.7302452604945278
sg7
F-35.13462155646501
sg8
F6.319565069126678
sg9
I0
ss(I1
I2
I2
I2
I0
tp2086
(dp2087
g5
I0
sg6
I0
sg7
I0
sg8
I0
sg9
I0
ss(I0
I1
I2
I1
I0
tp2088
(dp2089
g5
I0
sg6
I0
sg7
I0
sg8
I0
sg9
I0
ss(I2
I0
I1
I0
I0
tp2090
(dp2091
g5
I0
sg6
I0
sg7
I0
sg8
I0
sg9
I0
ss(I1
I1
I1
I1
I0
tp2092
(dp2093
g5
I0
sg6
I0
sg7
I0
sg8
I0
sg9
I0
ss(I2
I1
I2
I2
I0
tp2094
(dp2095
g5
I0
sg6
I0
sg7
I0
sg8
I0
sg9
I0
ss(I2
I1
I2
I1
I1
tp2096
(dp2097
g5
I0
sg6
I0
sg7
I0
sg8
I0
sg9
I0
ss(I2
I0
I2
I1
I0
tp2098
(dp2099
g5
I0
sg6
I0
sg7
I0
sg8
I0
sg9
I0
ss(I1
I1
I0
I2
I0
tp2100
(dp2101
g5
I0
sg6
I0
sg7
I0
sg8
I0
sg9
I0
ss(I2
I1
I2
I0
I1
tp2102
(dp2103
g5
I0
sg6
I0
sg7
I0
sg8
I0
sg9
I0
ss(I2
I1
I1
I0
I1
tp2104
(dp2105
g5
I0
sg6
I0
sg7
I0
sg8
I0
sg9
I0
ss(I1
I1
I2
I0
I0
tp2106
(dp2107
g5
I0
sg6
I0
sg7
I0
sg8
I0
sg9
I0
ss(I0
I0
I1
I0
I1
tp2108
(dp2109
g5
I0
sg6
I0
sg7
I0
sg8
I0
sg9
I0
ss(I0
I0
I2
I2
I0
tp2110
(dp2111
g5
I0
sg6
I0
sg7
I0
sg8
I0
sg9
I0
ss(I1
I1
I0
I0
I1
tp2112
(dp2113
g5
F-1.4534654420061328
sg6
F5.964668303273527
sg7
F-30.82224797511588
sg8
F4.146829849177334
sg9
I0
ss(I0
I1
I0
I0
I1
tp2114
(dp2115
g5
F1.7856292531712499
sg6
F1.153498749552779
sg7
F-29.152094644532426
sg8
F5.048873105419454
sg9
I0
ss(I1
I2
I2
I0
I0
tp2116
(dp2117
g5
I0
sg6
I0
sg7
I0
sg8
I0
sg9
I0
ss(I2
I1
I0
I0
I0
tp2118
(dp2119
g5
I0
sg6
I0
sg7
I0
sg8
I0
sg9
I0
ss(I2
I1
I2
I2
I1
tp2120
(dp2121
g5
I0
sg6
I0
sg7
I0
sg8
I0
sg9
I0
ss(I1
I2
I1
I0
I0
tp2122
(dp2123
g5
I0
sg6
I0
sg7
I0
sg8
I0
sg9
I0
ss(I2
I0
I0
I0
I1
tp2124
(dp2125
g5
F-3.089437658430543
sg6
F12.466030335345387
sg7
F-33.90475602833766
sg8
F-3.974086748328178
sg9
I0
ss(I1
I2
I2
I1
I0
tp2126
(dp2127
g5
I0
sg6
I0
sg7
I0
sg8
I0
sg9
I0
ss(I0
I2
I2
I1
I0
tp2128
(dp2129
g5
I0
sg6
I0
sg7
I0
sg8
I0
sg9
I0
ss(I2
I0
I1
I0
I1
tp2130
(dp2131
g5
I0
sg6
I0
sg7
I0
sg8
I0
sg9
I0
ss(I2
I1
I2
I1
I0
tp2132
(dp2133
g5
I0
sg6
I0
sg7
I0
sg8
I0
sg9
I0
ss(I1
I0
I0
I0
I0
tp2134
(dp2135
g5
I0
sg6
I0
sg7
I0
sg8
I0
sg9
I0
ss(I0
I0
I0
I2
I0
tp2136
(dp2137
g5
I0
sg6
I0
sg7
I0
sg8
I0
sg9
I0
ss(I2
I2
I1
I2
I0
tp2138
(dp2139
g5
I0
sg6
I0
sg7
I0
sg8
I0
sg9
I0
ss(I0
I2
I1
I1
I0
tp2140
(dp2141
g5
I0
sg6
I0
sg7
I0
sg8
I0
sg9
I0
ss(I2
I2
I0
I1
I0
tp2142
(dp2143
g5
I0
sg6
I0
sg7
I0
sg8
I0
sg9
I0
ss(I1
I1
I2
I0
I1
tp2144
(dp2145
g5
I0
sg6
I0
sg7
I0
sg8
I0
sg9
I0
ss(I2
I1
I0
I0
I1
tp2146
(dp2147
g5
F-4.737689489702613
sg6
F10.336867894589611
sg7
F-35.66493552210965
sg8
F3.6395752714831318
sg9
I0
ss(I0
I1
I0
I2
I1
tp2148
(dp2149
g5
F6.547851599310278
sg6
F-5.92893726654388
sg7
F-35.93684275724473
sg8
F0.046973019008899664
sg9
I0
ss(I0
I1
I1
I1
I0
tp2150
(dp2151
g5
I0
sg6
I0
sg7
I0
sg8
I0
sg9
I0
ss(I0
I1
I0
I0
I0
tp2152
(dp2153
g5
I0
sg6
I0
sg7
I0
sg8
I0
sg9
I0
ss(I0
I2
I0
I0
I1
tp2154
(dp2155
g5
F-1.6214160008354979
sg6
F-3.4113185497318383
sg7
F-33.28784901806008
sg8
F8.081670939415112
sg9
I0
ss(I0
I1
I2
I0
I0
tp2156
(dp2157
g5
I0
sg6
I0
sg7
I0
sg8
I0
sg9
I0
ss(I1
I1
I1
I0
I0
tp2158
(dp2159
g5
I0
sg6
I0
sg7
I0
sg8
I0
sg9
I0
ss(I1
I0
I2
I1
I1
tp2160
(dp2161
g5
I0
sg6
I0
sg7
I0
sg8
I0
sg9
I0
ss(I2
I0
I0
I0
I0
tp2162
(dp2163
g5
I0
sg6
I0
sg7
I0
sg8
I0
sg9
I0
ss(I1
I1
I2
I1
I0
tp2164
(dp2165
g5
I0
sg6
I0
sg7
I0
sg8
I0
sg9
I0
ss(I1
I0
I2
I0
I0
tp2166
(dp2167
g5
I0
sg6
I0
sg7
I0
sg8
I0
sg9
I0
ss(I1
I0
I1
I0
I1
tp2168
(dp2169
g5
I0
sg6
I0
sg7
I0
sg8
I0
sg9
I0
ss(I0
I2
I2
I1
I1
tp2170
(dp2171
g5
I0
sg6
I0
sg7
I0
sg8
I0
sg9
I0
ss(I2
I2
I0
I2
I1
tp2172
(dp2173
g5
F0.8464146525545374
sg6
F0.005236754156771111
sg7
F-41.99996473674304
sg8
F0.10861578485014708
sg9
I0
ss(I0
I2
I0
I2
I0
tp2174
(dp2175
g5
I0
sg6
I0
sg7
I0
sg8
I0
sg9
I0
ss(I2
I2
I1
I1
I1
tp2176
(dp2177
g5
I0
sg6
I0
sg7
I0
sg8
I0
sg9
I0
ss(I1
I0
I0
I0
I1
tp2178
(dp2179
g5
F0.5641771192962908
sg6
F6.360441718638753
sg7
F-29.269278756337144
sg8
F0.7838497985195878
sg9
I0
ss(I2
I1
I0
I2
I0
tp2180
(dp2181
g5
I0
sg6
I0
sg7
I0
sg8
I0
sg9
I0
ss(I0
I2
I2
I2
I0
tp2182
(dp2183
g5
I0
sg6
I0
sg7
I0
sg8
I0
sg9
I0
ss(I0
I2
I2
I2
I1
tp2184
(dp2185
g5
I0
sg6
I0
sg7
I0
sg8
I0
sg9
I0
ss(I2
I2
I0
I1
I1
tp2186
(dp2187
g5
F-3.9879270126458692
sg6
F2.002369200824253
sg7
F-38.28748582642723
sg8
F2.000003326858209
sg9
I0
ss(I2
I0
I2
I2
I1
tp2188
(dp2189
g5
I0
sg6
I0
sg7
I0
sg8
I0
sg9
I0
ss(I0
I1
I0
I1
I1
tp2190
(dp2191
g5
F3.836986209186046
sg6
F-1.8642228236409601
sg7
F-32.3935293498926
sg8
F2.312033556358073
sg9
I0
ss(I1
I2
I1
I1
I0
tp2192
(dp2193
g5
I0
sg6
I0
sg7
I0
sg8
I0
sg9
I0
ss(I0
I1
I0
I2
I0
tp2194
(dp2195
g5
I0
sg6
I0
sg7
I0
sg8
I0
sg9
I0
ss(I0
I1
I1
I2
I1
tp2196
(dp2197
g5
I0
sg6
I0
sg7
I0
sg8
I0
sg9
I0
ss(I1
I1
I2
I2
I1
tp2198
(dp2199
g5
I0
sg6
I0
sg7
I0
sg8
I0
sg9
I0
ss(I0
I1
I1
I1
I1
tp2200
(dp2201
g5
I0
sg6
I0
sg7
I0
sg8
I0
sg9
I0
ss(I1
I2
I0
I2
I0
tp2202
(dp2203
g5
I0
sg6
I0
sg7
I0
sg8
I0
sg9
I0
ss(I0
I0
I2
I0
I0
tp2204
(dp2205
g5
I0
sg6
I0
sg7
I0
sg8
I0
sg9
I0
ss(I0
I2
I0
I0
I0
tp2206
(dp2207
g5
I0
sg6
I0
sg7
I0
sg8
I0
sg9
I0
ss(I0
I1
I2
I0
I1
tp2208
(dp2209
g5
I0
sg6
I0
sg7
I0
sg8
I0
sg9
I0
ss(I1
I1
I1
I0
I1
tp2210
(dp2211
g5
I0
sg6
I0
sg7
I0
sg8
I0
sg9
I0
ss(I0
I0
I0
I2
I1
tp2212
(dp2213
g5
F8.212374743652147
sg6
F-2.375146953425765
sg7
F-33.142167293361936
sg8
F-1.9067422620102628
sg9
I0
ss(I1
I0
I2
I1
I0
tp2214
(dp2215
g5
I0
sg6
I0
sg7
I0
sg8
I0
sg9
I0
ss(I1
I1
I2
I1
I1
tp2216
(dp2217
g5
I0
sg6
I0
sg7
I0
sg8
I0
sg9
I0
ss(I0
I0
I1
I1
I1
tp2218
(dp2219
g5
I0
sg6
I0
sg7
I0
sg8
I0
sg9
I0
ss(I1
I0
I1
I0
I0
tp2220
(dp2221
g5
I0
sg6
I0
sg7
I0
sg8
I0
sg9
I0
ss(I0
I0
I1
I2
I1
tp2222
(dp2223
g5
I0
sg6
I0
sg7
I0
sg8
I0
sg9
I0
ss(I2
I0
I2
I2
I0
tp2224
(dp2225
g5
I0
sg6
I0
sg7
I0
sg8
I0
sg9
I0
ss(I0
I2
I0
I2
I1
tp2226
(dp2227
g5
F4.482115300643572
sg6
F-7.912995255868685
sg7
F-36.49011739499406
sg8
F4.007860088525558
sg9
I0
ss(I0
I0
I0
I0
I1
tp2228
(dp2229
g5
F1.88185626597105
sg6
F5.233277047206944
sg7
F-26.774245200792926
sg8
F3.6088578103094235
sg9
I0
ss(I2
I2
I1
I1
I0
tp2230
(dp2231
g5
I0
sg6
I0
sg7
I0
sg8
I0
sg9
I0
ss(I0
I0
I0
I0
I0
tp2232
(dp2233
g5
I0
sg6
I0
sg7
I0
sg8
I0
sg9
I0
ss(I2
I2
I0
I2
I0
tp2234
(dp2235
g5
I0
sg6
I0
sg7
I0
sg8
I0
sg9
I0
ss(I1
I2
I0
I1
I1
tp2236
(dp2237
g5
F-1.2188412159688267
sg6
F-1.979351246761484
sg7
F-37.98812248262908
sg8
F4.000001867919176
sg9
I0
ss(I2
I0
I1
I1
I0
tp2238
(dp2239
g5
I0
sg6
I0
sg7
I0
sg8
I0
sg9
I0
ss(I0
I1
I0
I1
I0
tp2240
(dp2241
g5
I0
sg6
I0
sg7
I0
sg8
I0
sg9
I0
ss(I1
I2
I1
I2
I1
tp2242
(dp2243
g5
I0
sg6
I0
sg7
I0
sg8
I0
sg9
I0
ss(I1
I2
I1
I1
I1
tp2244
(dp2245
g5
I0
sg6
I0
sg7
I0
sg8
I0
sg9
I0
ss(I0
I2
I1
I0
I0
tp2246
(dp2247
g5
I0
sg6
I0
sg7
I0
sg8
I0
sg9
I0
ss(I0
I1
I1
I2
I0
tp2248
(dp2249
g5
I0
sg6
I0
sg7
I0
sg8
I0
sg9
I0
ss(I0
I0
I0
I1
I0
tp2250
(dp2251
g5
I0
sg6
I0
sg7
I0
sg8
I0
sg9
I0
ss(I1
I1
I2
I2
I0
tp2252
(dp2253
g5
I0
sg6
I0
sg7
I0
sg8
I0
sg9
I0
ss(I1
I2
I0
I2
I1
tp2254
(dp2255
g5
F2.0004692792449843
sg6
F-1.0655351600969087
sg7
F-39.78042554617437
sg8
F3.448016607100259
sg9
I0
ss(I2
I1
I1
I2
I1
tp2256
(dp2257
g5
I0
sg6
I0
sg7
I0
sg8
I0
sg9
I0
ss(I2
I0
I1
I2
I0
tp2258
(dp2259
g5
I0
sg6
I0
sg7
I0
sg8
I0
sg9
I0
ss(I2
I1
I0
I1
I1
tp2260
(dp2261
g5
F-1.3652403704975788
sg6
F4.602358913751543
sg7
F-36.299767344379426
sg8
F0.5939409552579531
sg9
I0
ss(I1
I2
I0
I1
I0
tp2262
(dp2263
g5
I0
sg6
I0
sg7
I0
sg8
I0
sg9
I0
ss(I2
I2
I2
I0
I1
tp2264
(dp2265
g5
I0
sg6
I0
sg7
I0
sg8
I0
sg9
I0
ss(I2
I1
I0
I2
I1
tp2266
(dp2267
g5
F2.002732546441558
sg6
F2.027503054527451
sg7
F-39.47005432506276
sg8
F-3.996915536413405
sg9
I0
ss(I0
I2
I1
I2
I0
tp2268
(dp2269
g5
I0
sg6
I0
sg7
I0
sg8
I0
sg9
I0
ss(I0
I0
I1
I1
I0
tp2270
(dp2271
g5
I0
sg6
I0
sg7
I0
sg8
I0
sg9
I0
ss(I2
I2
I0
I0
I0
tp2272
(dp2273
g5
I0
sg6
I0
sg7
I0
sg8
I0
sg9
I0
ss(I0
I2
I1
I0
I1
tp2274
(dp2275
g5
I0
sg6
I0
sg7
I0
sg8
I0
sg9
I0
ss(I2
I0
I0
I2
I0
tp2276
(dp2277
g5
I0
sg6
I0
sg7
I0
sg8
I0
sg9
I0
ss(I0
I0
I0
I1
I1
tp2278
(dp2279
g5
F4.059437558637686
sg6
F1.3551317529921145
sg7
F-30.054406649547595
sg8
F0.72592906724593
sg9
I0
ss(I0
I0
I1
I2
I0
tp2280
(dp2281
g5
I0
sg6
I0
sg7
I0
sg8
I0
sg9
I0
ss(I1
I0
I2
I0
I1
tp2282
(dp2283
g5
I0
sg6
I0
sg7
I0
sg8
I0
sg9
I0
ssa(dp2284
(I0
I2
I0
I1
I0
tp2285
(dp2286
g5
I0
sg6
I0
sg7
I0
sg8
I0
sg9
I0
ss(I2
I0
I1
I1
I1
tp2287
(dp2288
g5
I0
sg6
I0
sg7
I0
sg8
I0
sg9
I0
ss(I1
I2
I1
I2
I0
tp2289
(dp2290
g5
I0
sg6
I0
sg7
I0
sg8
I0
sg9
I0
ss(I2
I2
I2
I0
I0
tp2291
(dp2292
g5
I0
sg6
I0
sg7
I0
sg8
I0
sg9
I0
ss(I2
I0
I2
I0
I1
tp2293
(dp2294
g5
I0
sg6
F618.8883852892336
sg7
F463.29496702826486
sg8
F591.1351591294439
sg9
F615.567870581624
ss(I1
I0
I0
I2
I0
tp2295
(dp2296
g5
I0
sg6
I0
sg7
I0
sg8
I0
sg9
I0
ss(I2
I0
I0
I1
I1
tp2297
(dp2298
g5
I0
sg6
I0
sg7
I0
sg8
I0
sg9
I0
ss(I2
I1
I1
I1
I0
tp2299
(dp2300
g5
I0
sg6
I0
sg7
I0
sg8
I0
sg9
I0
ss(I0
I2
I1
I2
I1
tp2301
(dp2302
g5
I0
sg6
I0
sg7
I0
sg8
I0
sg9
I0
ss(I2
I1
I1
I2
I0
tp2303
(dp2304
g5
I0
sg6
I0
sg7
I0
sg8
I0
sg9
I0
ss(I1
I0
I1
I1
I0
tp2305
(dp2306
g5
I0
sg6
I0
sg7
I0
sg8
I0
sg9
I0
ss(I2
I0
I1
I2
I1
tp2307
(dp2308
g5
I0
sg6
I0
sg7
I0
sg8
I0
sg9
I0
ss(I2
I2
I2
I1
I0
tp2309
(dp2310
g5
I0
sg6
I0
sg7
I0
sg8
I0
sg9
I0
ss(I2
I1
I0
I1
I0
tp2311
(dp2312
g5
I0
sg6
I0
sg7
I0
sg8
I0
sg9
I0
ss(I2
I2
I1
I0
I0
tp2313
(dp2314
g5
I0
sg6
I0
sg7
I0
sg8
I0
sg9
I0
ss(I0
I1
I2
I2
I0
tp2315
(dp2316
g5
I0
sg6
I0
sg7
I0
sg8
I0
sg9
I0
ss(I2
I2
I2
I2
I1
tp2317
(dp2318
g5
I0
sg6
I0
sg7
I0
sg8
I0
sg9
I0
ss(I1
I0
I2
I2
I1
tp2319
(dp2320
g5
I0
sg6
I0
sg7
I0
sg8
I0
sg9
I0
ss(I0
I2
I1
I1
I1
tp2321
(dp2322
g5
I0
sg6
I0
sg7
I0
sg8
I0
sg9
I0
ss(I2
I0
I0
I2
I1
tp2323
(dp2324
g5
I0
sg6
I0
sg7
I0
sg8
I0
sg9
I0
ss(I2
I1
I1
I1
I1
tp2325
(dp2326
g5
I0
sg6
I0
sg7
I0
sg8
I0
sg9
I0
ss(I1
I1
I0
I1
I0
tp2327
(dp2328
g5
I0
sg6
I0
sg7
I0
sg8
I0
sg9
I0
ss(I0
I2
I2
I0
I1
tp2329
(dp2330
g5
I0
sg6
F633.3807657489589
sg7
F583.4988069396773
sg8
F644.303522414976
sg9
F642.7974330184211
ss(I2
I2
I1
I2
I1
tp2331
(dp2332
g5
I0
sg6
I0
sg7
I0
sg8
I0
sg9
I0
ss(I1
I0
I1
I2
I1
tp2333
(dp2334
g5
I0
sg6
I0
sg7
I0
sg8
I0
sg9
I0
ss(I0
I2
I0
I1
I1
tp2335
(dp2336
g5
I0
sg6
I0
sg7
I0
sg8
I0
sg9
I0
ss(I1
I1
I1
I2
I0
tp2337
(dp2338
g5
I0
sg6
I0
sg7
I0
sg8
I0
sg9
I0
ss(I1
I0
I0
I1
I1
tp2339
(dp2340
g5
I0
sg6
I0
sg7
I0
sg8
I0
sg9
I0
ss(I2
I0
I2
I0
I0
tp2341
(dp2342
g5
I0
sg6
I0
sg7
I0
sg8
I0
sg9
I0
ss(I0
I0
I2
I1
I0
tp2343
(dp2344
g5
I0
sg6
I0
sg7
I0
sg8
I0
sg9
I0
ss(I1
I0
I0
I2
I1
tp2345
(dp2346
g5
I0
sg6
I0
sg7
I0
sg8
I0
sg9
I0
ss(I2
I2
I0
I0
I1
tp2347
(dp2348
g5
I0
sg6
F654.0221757167828
sg7
F597.050394878908
sg8
F640.1220341743485
sg9
F627.1598051745891
ss(I1
I0
I1
I1
I1
tp2349
(dp2350
g5
I0
sg6
I0
sg7
I0
sg8
I0
sg9
I0
ss(I2
I2
I2
I1
I1
tp2351
(dp2352
g5
I0
sg6
I0
sg7
I0
sg8
I0
sg9
I0
ss(I2
I2
I1
I0
I1
tp2353
(dp2354
g5
I0
sg6
F649.7961951283764
sg7
F607.3398028842793
sg8
F651.64635640857
sg9
F646.7925272572384
ss(I0
I0
I2
I0
I1
tp2355
(dp2356
g5
I0
sg6
F609.3372595119519
sg7
F539.6999372722505
sg8
F591.7510230973544
sg9
F593.985093643653
ss(I1
I2
I2
I2
I1
tp2357
(dp2358
g5
I0
sg6
I0
sg7
I0
sg8
I0
sg9
I0
ss(I0
I1
I1
I0
I1
tp2359
(dp2360
g5
I0
sg6
F638.1254376433677
sg7
F600.5774516305403
sg8
F644.1053148820649
sg9
F641.0052793749987
ss(I1
I2
I0
I0
I0
tp2361
(dp2362
g5
I0
sg6
I0
sg7
I0
sg8
I0
sg9
I0
ss(I0
I1
I2
I1
I1
tp2363
(dp2364
g5
I0
sg6
I0
sg7
I0
sg8
I0
sg9
I0
ss(I1
I1
I1
I1
I1
tp2365
(dp2366
g5
I0
sg6
I0
sg7
I0
sg8
I0
sg9
I0
ss(I0
I1
I2
I2
I1
tp2367
(dp2368
g5
I0
sg6
I0
sg7
I0
sg8
I0
sg9
I0
ss(I1
I0
I2
I2
I0
tp2369
(dp2370
g5
I0
sg6
I0
sg7
I0
sg8
I0
sg9
I0
ss(I1
I1
I0
I2
I1
tp2371
(dp2372
g5
I0
sg6
I0
sg7
I0
sg8
I0
sg9
I0
ss(I1
I1
I0
I1
I1
tp2373
(dp2374
g5
I0
sg6
I0
sg7
I0
sg8
I0
sg9
I0
ss(I2
I0
I2
I1
I1
tp2375
(dp2376
g5
I0
sg6
I0
sg7
I0
sg8
I0
sg9
I0
ss(I0
I2
I2
I0
I0
tp2377
(dp2378
g5
I0
sg6
I0
sg7
I0
sg8
I0
sg9
I0
ss(I1
I0
I1
I2
I0
tp2379
(dp2380
g5
I0
sg6
I0
sg7
I0
sg8
I0
sg9
I0
ss(I1
I1
I1
I2
I1
tp2381
(dp2382
g5
I0
sg6
I0
sg7
I0
sg8
I0
sg9
I0
ss(I2
I0
I0
I1
I0
tp2383
(dp2384
g5
I0
sg6
I0
sg7
I0
sg8
I0
sg9
I0
ss(I0
I0
I2
I2
I1
tp2385
(dp2386
g5
I0
sg6
I0
sg7
I0
sg8
I0
sg9
I0
ss(I1
I0
I0
I1
I0
tp2387
(dp2388
g5
I0
sg6
I0
sg7
I0
sg8
I0
sg9
I0
ss(I0
I0
I2
I1
I1
tp2389
(dp2390
g5
I0
sg6
I0
sg7
I0
sg8
I0
sg9
I0
ss(I1
I1
I0
I0
I0
tp2391
(dp2392
g5
I0
sg6
I0
sg7
I0
sg8
I0
sg9
I0
ss(I2
I1
I2
I0
I0
tp2393
(dp2394
g5
I0
sg6
I0
sg7
I0
sg8
I0
sg9
I0
ss(I2
I2
I2
I2
I0
tp2395
(dp2396
g5
I0
sg6
I0
sg7
I0
sg8
I0
sg9
I0
ss(I1
I2
I2
I0
I1
tp2397
(dp2398
g5
I0
sg6
F644.9759812388858
sg7
F598.5407196249503
sg8
F648.8855997159228
sg9
F651.0965467195826
ss(I0
I0
I1
I0
I0
tp2399
(dp2400
g5
I0
sg6
I0
sg7
I0
sg8
I0
sg9
I0
ss(I1
I2
I1
I0
I1
tp2401
(dp2402
g5
I0
sg6
F643.6073649427116
sg7
F601.361333935291
sg8
F651.4287989542211
sg9
F646.0387501546654
ss(I0
I1
I1
I0
I0
tp2403
(dp2404
g5
I0
sg6
I0
sg7
I0
sg8
I0
sg9
I0
ss(I1
I2
I2
I1
I1
tp2405
(dp2406
g5
I0
sg6
I0
sg7
I0
sg8
I0
sg9
I0
ss(I2
I1
I1
I0
I0
tp2407
(dp2408
g5
I0
sg6
I0
sg7
I0
sg8
I0
sg9
I0
ss(I1
I2
I0
I0
I1
tp2409
(dp2410
g5
I0
sg6
F637.2964244922496
sg7
F596.3841146874948
sg8
F652.102498871742
sg9
F624.9129280686329
ss(I1
I2
I2
I2
I0
tp2411
(dp2412
g5
I0
sg6
I0
sg7
I0
sg8
I0
sg9
I0
ss(I0
I1
I2
I1
I0
tp2413
(dp2414
g5
I0
sg6
I0
sg7
I0
sg8
I0
sg9
I0
ss(I2
I0
I1
I0
I0
tp2415
(dp2416
g5
I0
sg6
I0
sg7
I0
sg8
I0
sg9
I0
ss(I1
I1
I1
I1
I0
tp2417
(dp2418
g5
I0
sg6
I0
sg7
I0
sg8
I0
sg9
I0
ss(I2
I1
I2
I2
I0
tp2419
(dp2420
g5
I0
sg6
I0
sg7
I0
sg8
I0
sg9
I0
ss(I2
I1
I2
I1
I1
tp2421
(dp2422
g5
I0
sg6
I0
sg7
I0
sg8
I0
sg9
I0
ss(I2
I0
I2
I1
I0
tp2423
(dp2424
g5
I0
sg6
I0
sg7
I0
sg8
I0
sg9
I0
ss(I1
I1
I0
I2
I0
tp2425
(dp2426
g5
I0
sg6
I0
sg7
I0
sg8
I0
sg9
I0
ss(I2
I1
I2
I0
I1
tp2427
(dp2428
g5
I0
sg6
F651.6283049598245
sg7
F604.5661718215467
sg8
F645.5404974190852
sg9
F650.3598254968633
ss(I2
I1
I1
I0
I1
tp2429
(dp2430
g5
I0
sg6
F653.0716559810942
sg7
F597.7834074107344
sg8
F643.7046307530044
sg9
F647.756732061639
ss(I1
I1
I2
I0
I0
tp2431
(dp2432
g5
I0
sg6
I0
sg7
I0
sg8
I0
sg9
I0
ss(I0
I0
I1
I0
I1
tp2433
(dp2434
g5
I0
sg6
F621.752481256276
sg7
F569.9818466475705
sg8
F624.1461549528046
sg9
F634.8711667519135
ss(I0
I0
I2
I2
I0
tp2435
(dp2436
g5
I0
sg6
I0
sg7
I0
sg8
I0
sg9
I0
ss(I1
I1
I0
I0
I1
tp2437
(dp2438
g5
I0
sg6
F646.3641538628299
sg7
F607.162785249637
sg8
F637.8543721763481
sg9
F633.081375258645
ss(I0
I1
I0
I0
I1
tp2439
(dp2440
g5
I0
sg6
F630.8572409898
sg7
F604.754358811485
sg8
F645.8162412107173
sg9
F635.3268182360158
ss(I1
I2
I2
I0
I0
tp2441
(dp2442
g5
I0
sg6
I0
sg7
I0
sg8
I0
sg9
I0
ss(I2
I1
I0
I0
I0
tp2443
(dp2444
g5
I0
sg6
I0
sg7
I0
sg8
I0
sg9
I0
ss(I2
I1
I2
I2
I1
tp2445
(dp2446
g5
I0
sg6
I0
sg7
I0
sg8
I0
sg9
I0
ss(I1
I2
I1
I0
I0
tp2447
(dp2448
g5
I0
sg6
I0
sg7
I0
sg8
I0
sg9
I0
ss(I2
I0
I0
I0
I1
tp2449
(dp2450
g5
I0
sg6
F630.2788802314662
sg7
F405.11929830452647
sg8
F438.67015233297684
sg9
F469.99681991171906
ss(I1
I2
I2
I1
I0
tp2451
(dp2452
g5
I0
sg6
I0
sg7
I0
sg8
I0
sg9
I0
ss(I0
I2
I2
I1
I0
tp2453
(dp2454
g5
I0
sg6
I0
sg7
I0
sg8
I0
sg9
I0
ss(I2
I0
I1
I0
I1
tp2455
(dp2456
g5
I0
sg6
F611.7639572480682
sg7
F476.65820286886174
sg8
F610.6785649425178
sg9
F614.961088628372
ss(I2
I1
I2
I1
I0
tp2457
(dp2458
g5
I0
sg6
I0
sg7
I0
sg8
I0
sg9
I0
ss(I1
I0
I0
I0
I0
tp2459
(dp2460
g5
I0
sg6
I0
sg7
I0
sg8
I0
sg9
I0
ss(I0
I0
I0
I2
I0
tp2461
(dp2462
g5
I0
sg6
I0
sg7
I0
sg8
I0
sg9
I0
ss(I2
I2
I1
I2
I0
tp2463
(dp2464
g5
I0
sg6
I0
sg7
I0
sg8
I0
sg9
I0
ss(I0
I2
I1
I1
I0
tp2465
(dp2466
g5
I0
sg6
I0
sg7
I0
sg8
I0
sg9
I0
ss(I2
I2
I0
I1
I0
tp2467
(dp2468
g5
I0
sg6
I0
sg7
I0
sg8
I0
sg9
I0
ss(I1
I1
I2
I0
I1
tp2469
(dp2470
g5
I0
sg6
F639.901929502679
sg7
F600.0689982635714
sg8
F641.2876916369961
sg9
F639.483068832262
ss(I2
I1
I0
I0
I1
tp2471
(dp2472
g5
I0
sg6
F652.5011534307096
sg7
F593.6592563949027
sg8
F613.2004538296112
sg9
F606.2223810978223
ss(I0
I1
I0
I2
I1
tp2473
(dp2474
g5
I0
sg6
I0
sg7
I0
sg8
I0
sg9
I0
ss(I0
I1
I1
I1
I0
tp2475
(dp2476
g5
I0
sg6
I0
sg7
I0
sg8
I0
sg9
I0
ss(I0
I1
I0
I0
I0
tp2477
(dp2478
g5
I0
sg6
I0
sg7
I0
sg8
I0
sg9
I0
ss(I0
I2
I0
I0
I1
tp2479
(dp2480
g5
I0
sg6
F623.0189775265503
sg7
F597.0155204582954
sg8
F648.575232249945
sg9
F610.0926591060129
ss(I0
I1
I2
I0
I0
tp2481
(dp2482
g5
I0
sg6
I0
sg7
I0
sg8
I0
sg9
I0
ss(I1
I1
I1
I0
I0
tp2483
(dp2484
g5
I0
sg6
I0
sg7
I0
sg8
I0
sg9
I0
ss(I1
I0
I2
I1
I1
tp2485
(dp2486
g5
I0
sg6
I0
sg7
I0
sg8
I0
sg9
I0
ss(I2
I0
I0
I0
I0
tp2487
(dp2488
g5
I0
sg6
I0
sg7
I0
sg8
I0
sg9
I0
ss(I1
I1
I2
I1
I0
tp2489
(dp2490
g5
I0
sg6
I0
sg7
I0
sg8
I0
sg9
I0
ss(I1
I0
I2
I0
I0
tp2491
(dp2492
g5
I0
sg6
I0
sg7
I0
sg8
I0
sg9
I0
ss(I1
I0
I1
I0
I1
tp2493
(dp2494
g5
I0
sg6
F636.7984927550572
sg7
F532.3693949207596
sg8
F627.7510888523548
sg9
F639.2451511017057
ss(I0
I2
I2
I1
I1
tp2495
(dp2496
g5
I0
sg6
I0
sg7
I0
sg8
I0
sg9
I0
ss(I2
I2
I0
I2
I1
tp2497
(dp2498
g5
I0
sg6
I0
sg7
I0
sg8
I0
sg9
I0
ss(I0
I2
I0
I2
I0
tp2499
(dp2500
g5
I0
sg6
I0
sg7
I0
sg8
I0
sg9
I0
ss(I2
I2
I1
I1
I1
tp2501
(dp2502
g5
I0
sg6
I0
sg7
I0
sg8
I0
sg9
I0
ss(I1
I0
I0
I0
I1
tp2503
(dp2504
g5
I0
sg6
F637.4288349063086
sg7
F578.4728207623173
sg8
F564.4987115385627
sg9
F582.1187599362975
ss(I2
I1
I0
I2
I0
tp2505
(dp2506
g5
I0
sg6
I0
sg7
I0
sg8
I0
sg9
I0
ss(I0
I2
I2
I2
I0
tp2507
(dp2508
g5
I0
sg6
I0
sg7
I0
sg8
I0
sg9
I0
ss(I0
I2
I2
I2
I1
tp2509
(dp2510
g5
I0
sg6
I0
sg7
I0
sg8
I0
sg9
I0
ss(I2
I2
I0
I1
I1
tp2511
(dp2512
g5
I0
sg6
I0
sg7
I0
sg8
I0
sg9
I0
ss(I2
I0
I2
I2
I1
tp2513
(dp2514
g5
I0
sg6
I0
sg7
I0
sg8
I0
sg9
I0
ss(I0
I1
I0
I1
I1
tp2515
(dp2516
g5
I0
sg6
I0
sg7
I0
sg8
I0
sg9
I0
ss(I1
I2
I1
I1
I0
tp2517
(dp2518
g5
I0
sg6
I0
sg7
I0
sg8
I0
sg9
I0
ss(I0
I1
I0
I2
I0
tp2519
(dp2520
g5
I0
sg6
I0
sg7
I0
sg8
I0
sg9
I0
ss(I0
I1
I1
I2
I1
tp2521
(dp2522
g5
I0
sg6
I0
sg7
I0
sg8
I0
sg9
I0
ss(I1
I1
I2
I2
I1
tp2523
(dp2524
g5
I0
sg6
I0
sg7
I0
sg8
I0
sg9
I0
ss(I0
I1
I1
I1
I1
tp2525
(dp2526
g5
I0
sg6
I0
sg7
I0
sg8
I0
sg9
I0
ss(I1
I2
I0
I2
I0
tp2527
(dp2528
g5
I0
sg6
I0
sg7
I0
sg8
I0
sg9
I0
ss(I0
I0
I2
I0
I0
tp2529
(dp2530
g5
I0
sg6
I0
sg7
I0
sg8
I0
sg9
I0
ss(I0
I2
I0
I0
I0
tp2531
(dp2532
g5
I0
sg6
I0
sg7
I0
sg8
I0
sg9
I0
ss(I0
I1
I2
I0
I1
tp2533
(dp2534
g5
I0
sg6
F633.5835732920345
sg7
F596.3374286729022
sg8
F642.7664866742717
sg9
F644.8289102699158
ss(I1
I1
I1
I0
I1
tp2535
(dp2536
g5
I0
sg6
F639.0039822821941
sg7
F603.6617103396075
sg8
F641.0851991430378
sg9
F643.1600682350695
ss(I0
I0
I0
I2
I1
tp2537
(dp2538
g5
I0
sg6
I0
sg7
I0
sg8
I0
sg9
I0
ss(I1
I0
I2
I1
I0
tp2539
(dp2540
g5
I0
sg6
I0
sg7
I0
sg8
I0
sg9
I0
ss(I1
I1
I2
I1
I1
tp2541
(dp2542
g5
I0
sg6
I0
sg7
I0
sg8
I0
sg9
I0
ss(I0
I0
I1
I1
I1
tp2543
(dp2544
g5
I0
sg6
I0
sg7
I0
sg8
I0
sg9
I0
ss(I1
I0
I1
I0
I0
tp2545
(dp2546
g5
I0
sg6
I0
sg7
I0
sg8
I0
sg9
I0
ss(I0
I0
I1
I2
I1
tp2547
(dp2548
g5
I0
sg6
I0
sg7
I0
sg8
I0
sg9
I0
ss(I2
I0
I2
I2
I0
tp2549
(dp2550
g5
I0
sg6
I0
sg7
I0
sg8
I0
sg9
I0
ss(I0
I2
I0
I2
I1
tp2551
(dp2552
g5
I0
sg6
I0
sg7
I0
sg8
I0
sg9
I0
ss(I0
I0
I0
I0
I1
tp2553
(dp2554
g5
I0
sg6
F636.2864184536757
sg7
F591.8474986228946
sg8
F633.9604655761785
sg9
F608.8950431854374
ss(I2
I2
I1
I1
I0
tp2555
(dp2556
g5
I0
sg6
I0
sg7
I0
sg8
I0
sg9
I0
ss(I0
I0
I0
I0
I0
tp2557
(dp2558
g5
I0
sg6
I0
sg7
I0
sg8
I0
sg9
I0
ss(I2
I2
I0
I2
I0
tp2559
(dp2560
g5
I0
sg6
I0
sg7
I0
sg8
I0
sg9
I0
ss(I1
I2
I0
I1
I1
tp2561
(dp2562
g5
I0
sg6
I0
sg7
I0
sg8
I0
sg9
I0
ss(I2
I0
I1
I1
I0
tp2563
(dp2564
g5
I0
sg6
I0
sg7
I0
sg8
I0
sg9
I0
ss(I0
I1
I0
I1
I0
tp2565
(dp2566
g5
I0
sg6
I0
sg7
I0
sg8
I0
sg9
I0
ss(I1
I2
I1
I2
I1
tp2567
(dp2568
g5
I0
sg6
I0
sg7
I0
sg8
I0
sg9
I0
ss(I1
I2
I1
I1
I1
tp2569
(dp2570
g5
I0
sg6
I0
sg7
I0
sg8
I0
sg9
I0
ss(I0
I2
I1
I0
I0
tp2571
(dp2572
g5
I0
sg6
I0
sg7
I0
sg8
I0
sg9
I0
ss(I0
I1
I1
I2
I0
tp2573
(dp2574
g5
I0
sg6
I0
sg7
I0
sg8
I0
sg9
I0
ss(I0
I0
I0
I1
I0
tp2575
(dp2576
g5
I0
sg6
I0
sg7
I0
sg8
I0
sg9
I0
ss(I1
I1
I2
I2
I0
tp2577
(dp2578
g5
I0
sg6
I0
sg7
I0
sg8
I0
sg9
I0
ss(I1
I2
I0
I2
I1
tp2579
(dp2580
g5
I0
sg6
I0
sg7
I0
sg8
I0
sg9
I0
ss(I2
I1
I1
I2
I1
tp2581
(dp2582
g5
I0
sg6
I0
sg7
I0
sg8
I0
sg9
I0
ss(I2
I0
I1
I2
I0
tp2583
(dp2584
g5
I0
sg6
I0
sg7
I0
sg8
I0
sg9
I0
ss(I2
I1
I0
I1
I1
tp2585
(dp2586
g5
I0
sg6
I0
sg7
I0
sg8
I0
sg9
I0
ss(I1
I2
I0
I1
I0
tp2587
(dp2588
g5
I0
sg6
I0
sg7
I0
sg8
I0
sg9
I0
ss(I2
I2
I2
I0
I1
tp2589
(dp2590
g5
I0
sg6
F649.9789801521624
sg7
F606.0449690601047
sg8
F649.4758267666764
sg9
F650.2017430805463
ss(I2
I1
I0
I2
I1
tp2591
(dp2592
g5
I0
sg6
I0
sg7
I0
sg8
I0
sg9
I0
ss(I0
I2
I1
I2
I0
tp2593
(dp2594
g5
I0
sg6
I0
sg7
I0
sg8
I0
sg9
I0
ss(I0
I0
I1
I1
I0
tp2595
(dp2596
g5
I0
sg6
I0
sg7
I0
sg8
I0
sg9
I0
ss(I2
I2
I0
I0
I0
tp2597
(dp2598
g5
I0
sg6
I0
sg7
I0
sg8
I0
sg9
I0
ss(I0
I2
I1
I0
I1
tp2599
(dp2600
g5
I0
sg6
F634.878491584451
sg7
F589.0911674260174
sg8
F644.0334643747423
sg9
F641.0358816116732
ss(I2
I0
I0
I2
I0
tp2601
(dp2602
g5
I0
sg6
I0
sg7
I0
sg8
I0
sg9
I0
ss(I0
I0
I0
I1
I1
tp2603
(dp2604
g5
I0
sg6
I0
sg7
I0
sg8
I0
sg9
I0
ss(I0
I0
I1
I2
I0
tp2605
(dp2606
g5
I0
sg6
I0
sg7
I0
sg8
I0
sg9
I0
ss(I1
I0
I2
I0
I1
tp2607
(dp2608
g5
I0
sg6
F629.2441929278245
sg7
F514.8596308229997
sg8
F622.7686467311066
sg9
F625.678784307948
ssa(dp2609
(I0
I2
I0
I1
I0
tp2610
(dp2611
g5
I0
sg6
I0
sg7
I0
sg8
I0
sg9
I0
ss(I2
I0
I1
I1
I1
tp2612
(dp2613
g5
I0
sg6
I0
sg7
I0
sg8
I0
sg9
I0
ss(I1
I2
I1
I2
I0
tp2614
(dp2615
g5
I0
sg6
I0
sg7
I0
sg8
I0
sg9
I0
ss(I2
I2
I2
I0
I0
tp2616
(dp2617
g5
I0
sg6
I0
sg7
I0
sg8
I0
sg9
I0
ss(I2
I0
I2
I0
I1
tp2618
(dp2619
g5
I0
sg6
F4.000000000851957
sg7
F-37.99997130636941
sg8
F-7.82703650494078
sg9
F4.000000000000002
ss(I1
I0
I0
I2
I0
tp2620
(dp2621
g5
I0
sg6
I0
sg7
I0
sg8
I0
sg9
I0
ss(I2
I0
I0
I1
I1
tp2622
(dp2623
g5
I0
sg6
I0
sg7
I0
sg8
I0
sg9
I0
ss(I2
I1
I1
I1
I0
tp2624
(dp2625
g5
I0
sg6
I0
sg7
I0
sg8
I0
sg9
I0
ss(I0
I2
I1
I2
I1
tp2626
(dp2627
g5
I0
sg6
I0
sg7
I0
sg8
I0
sg9
I0
ss(I2
I1
I1
I2
I0
tp2628
(dp2629
g5
I0
sg6
I0
sg7
I0
sg8
I0
sg9
I0
ss(I1
I0
I1
I1
I0
tp2630
(dp2631
g5
I0
sg6
I0
sg7
I0
sg8
I0
sg9
I0
ss(I2
I0
I1
I2
I1
tp2632
(dp2633
g5
I0
sg6
I0
sg7
I0
sg8
I0
sg9
I0
ss(I2
I2
I2
I1
I0
tp2634
(dp2635
g5
I0
sg6
I0
sg7
I0
sg8
I0
sg9
I0
ss(I2
I1
I0
I1
I0
tp2636
(dp2637
g5
I0
sg6
I0
sg7
I0
sg8
I0
sg9
I0
ss(I2
I2
I1
I0
I0
tp2638
(dp2639
g5
I0
sg6
I0
sg7
I0
sg8
I0
sg9
I0
ss(I0
I1
I2
I2
I0
tp2640
(dp2641
g5
I0
sg6
I0
sg7
I0
sg8
I0
sg9
I0
ss(I2
I2
I2
I2
I1
tp2642
(dp2643
g5
I0
sg6
I0
sg7
I0
sg8
I0
sg9
I0
ss(I1
I0
I2
I2
I1
tp2644
(dp2645
g5
I0
sg6
I0
sg7
I0
sg8
I0
sg9
I0
ss(I0
I2
I1
I1
I1
tp2646
(dp2647
g5
I0
sg6
I0
sg7
I0
sg8
I0
sg9
I0
ss(I2
I0
I0
I2
I1
tp2648
(dp2649
g5
I0
sg6
I0
sg7
I0
sg8
I0
sg9
I0
ss(I2
I1
I1
I1
I1
tp2650
(dp2651
g5
I0
sg6
I0
sg7
I0
sg8
I0
sg9
I0
ss(I1
I1
I0
I1
I0
tp2652
(dp2653
g5
I0
sg6
I0
sg7
I0
sg8
I0
sg9
I0
ss(I0
I2
I2
I0
I1
tp2654
(dp2655
g5
I0
sg6
F-7.99978230638738
sg7
F-37.5574045253563
sg8
F4.100135220876054
sg9
F4.002818855227645
ss(I2
I2
I1
I2
I1
tp2656
(dp2657
g5
I0
sg6
I0
sg7
I0
sg8
I0
sg9
I0
ss(I1
I0
I1
I2
I1
tp2658
(dp2659
g5
I0
sg6
I0
sg7
I0
sg8
I0
sg9
I0
ss(I0
I2
I0
I1
I1
tp2660
(dp2661
g5
I0
sg6
I0
sg7
I0
sg8
I0
sg9
I0
ss(I1
I1
I1
I2
I0
tp2662
(dp2663
g5
I0
sg6
I0
sg7
I0
sg8
I0
sg9
I0
ss(I1
I0
I0
I1
I1
tp2664
(dp2665
g5
I0
sg6
I0
sg7
I0
sg8
I0
sg9
I0
ss(I2
I0
I2
I0
I0
tp2666
(dp2667
g5
I0
sg6
I0
sg7
I0
sg8
I0
sg9
I0
ss(I0
I0
I2
I1
I0
tp2668
(dp2669
g5
I0
sg6
I0
sg7
I0
sg8
I0
sg9
I0
ss(I1
I0
I0
I2
I1
tp2670
(dp2671
g5
I0
sg6
I0
sg7
I0
sg8
I0
sg9
I0
ss(I2
I2
I0
I0
I1
tp2672
(dp2673
g5
I0
sg6
F4.0000000000058975
sg7
F-37.99602742120902
sg8
F4.000000000000002
sg9
F-7.436882655889962
ss(I1
I0
I1
I1
I1
tp2674
(dp2675
g5
I0
sg6
I0
sg7
I0
sg8
I0
sg9
I0
ss(I2
I2
I2
I1
I1
tp2676
(dp2677
g5
I0
sg6
I0
sg7
I0
sg8
I0
sg9
I0
ss(I2
I2
I1
I0
I1
tp2678
(dp2679
g5
I0
sg6
F2.000000001897547
sg7
F-39.999999999999986
sg8
F2.000000000000001
sg9
F-3.762695312480361
ss(I0
I0
I2
I0
I1
tp2680
(dp2681
g5
I0
sg6
F-3.999398974538078
sg7
F-33.910018210092524
sg8
F-3.9246790809336143
sg9
F8.000000157489346
ss(I1
I2
I2
I2
I1
tp2682
(dp2683
g5
I0
sg6
I0
sg7
I0
sg8
I0
sg9
I0
ss(I0
I1
I1
I0
I1
tp2684
(dp2685
g5
I0
sg6
F-3.9999999893127156
sg7
F-33.93802185792078
sg8
F2.0001004524264854
sg9
F2.0386554576909304
ss(I1
I2
I0
I0
I0
tp2686
(dp2687
g5
I0
sg6
I0
sg7
I0
sg8
I0
sg9
I0
ss(I0
I1
I2
I1
I1
tp2688
(dp2689
g5
I0
sg6
I0
sg7
I0
sg8
I0
sg9
I0
ss(I1
I1
I1
I1
I1
tp2690
(dp2691
g5
I0
sg6
I0
sg7
I0
sg8
I0
sg9
I0
ss(I0
I1
I2
I2
I1
tp2692
(dp2693
g5
I0
sg6
I0
sg7
I0
sg8
I0
sg9
I0
ss(I1
I0
I2
I2
I0
tp2694
(dp2695
g5
I0
sg6
I0
sg7
I0
sg8
I0
sg9
I0
ss(I1
I1
I0
I2
I1
tp2696
(dp2697
g5
I0
sg6
I0
sg7
I0
sg8
I0
sg9
I0
ss(I1
I1
I0
I1
I1
tp2698
(dp2699
g5
I0
sg6
I0
sg7
I0
sg8
I0
sg9
I0
ss(I2
I0
I2
I1
I1
tp2700
(dp2701
g5
I0
sg6
I0
sg7
I0
sg8
I0
sg9
I0
ss(I0
I2
I2
I0
I0
tp2702
(dp2703
g5
I0
sg6
I0
sg7
I0
sg8
I0
sg9
I0
ss(I1
I0
I1
I2
I0
tp2704
(dp2705
g5
I0
sg6
I0
sg7
I0
sg8
I0
sg9
I0
ss(I1
I1
I1
I2
I1
tp2706
(dp2707
g5
I0
sg6
I0
sg7
I0
sg8
I0
sg9
I0
ss(I2
I0
I0
I1
I0
tp2708
(dp2709
g5
I0
sg6
I0
sg7
I0
sg8
I0
sg9
I0
ss(I0
I0
I2
I2
I1
tp2710
(dp2711
g5
I0
sg6
I0
sg7
I0
sg8
I0
sg9
I0
ss(I1
I0
I0
I1
I0
tp2712
(dp2713
g5
I0
sg6
I0
sg7
I0
sg8
I0
sg9
I0
ss(I0
I0
I2
I1
I1
tp2714
(dp2715
g5
I0
sg6
I0
sg7
I0
sg8
I0
sg9
I0
ss(I1
I1
I0
I0
I0
tp2716
(dp2717
g5
I0
sg6
I0
sg7
I0
sg8
I0
sg9
I0
ss(I2
I1
I2
I0
I0
tp2718
(dp2719
g5
I0
sg6
I0
sg7
I0
sg8
I0
sg9
I0
ss(I2
I2
I2
I2
I0
tp2720
(dp2721
g5
I0
sg6
I0
sg7
I0
sg8
I0
sg9
I0
ss(I1
I2
I2
I0
I1
tp2722
(dp2723
g5
I0
sg6
F-3.999999999099527
sg7
F-39.999999999999986
sg8
F2.000000000000001
sg9
F2.000000000000001
ss(I0
I0
I1
I0
I0
tp2724
(dp2725
g5
I0
sg6
I0
sg7
I0
sg8
I0
sg9
I0
ss(I1
I2
I1
I0
I1
tp2726
(dp2727
g5
I0
sg6
F-1.999999999999995
sg7
F-37.918533358585265
sg8
F4.013698123754157
sg9
F-1.7914312498129723
ss(I0
I1
I1
I0
I0
tp2728
(dp2729
g5
I0
sg6
I0
sg7
I0
sg8
I0
sg9
I0
ss(I1
I2
I2
I1
I1
tp2730
(dp2731
g5
I0
sg6
I0
sg7
I0
sg8
I0
sg9
I0
ss(I2
I1
I1
I0
I0
tp2732
(dp2733
g5
I0
sg6
I0
sg7
I0
sg8
I0
sg9
I0
ss(I1
I2
I0
I0
I1
tp2734
(dp2735
g5
I0
sg6
F0.7500000000000003
sg7
F-35.959899082936545
sg8
F6.000000000011774
sg9
F-5.988005457958508
ss(I1
I2
I2
I2
I0
tp2736
(dp2737
g5
I0
sg6
I0
sg7
I0
sg8
I0
sg9
I0
ss(I0
I1
I2
I1
I0
tp2738
(dp2739
g5
I0
sg6
I0
sg7
I0
sg8
I0
sg9
I0
ss(I2
I0
I1
I0
I0
tp2740
(dp2741
g5
I0
sg6
I0
sg7
I0
sg8
I0
sg9
I0
ss(I1
I1
I1
I1
I0
tp2742
(dp2743
g5
I0
sg6
I0
sg7
I0
sg8
I0
sg9
I0
ss(I2
I1
I2
I2
I0
tp2744
(dp2745
g5
I0
sg6
I0
sg7
I0
sg8
I0
sg9
I0
ss(I2
I1
I2
I1
I1
tp2746
(dp2747
g5
I0
sg6
I0
sg7
I0
sg8
I0
sg9
I0
ss(I2
I0
I2
I1
I0
tp2748
(dp2749
g5
I0
sg6
I0
sg7
I0
sg8
I0
sg9
I0
ss(I1
I1
I0
I2
I0
tp2750
(dp2751
g5
I0
sg6
I0
sg7
I0
sg8
I0
sg9
I0
ss(I2
I1
I2
I0
I1
tp2752
(dp2753
g5
I0
sg6
F2.000000000000004
sg7
F-39.96832364788409
sg8
F-3.999849310287265
sg9
F2.0000000599851897
ss(I2
I1
I1
I0
I1
tp2754
(dp2755
g5
I0
sg6
F4.006681872891268
sg7
F-37.99969300536888
sg8
F-1.9999999899084948
sg9
F-1.9999999999992273
ss(I1
I1
I2
I0
I0
tp2756
(dp2757
g5
I0
sg6
I0
sg7
I0
sg8
I0
sg9
I0
ss(I0
I0
I1
I0
I1
tp2758
(dp2759
g5
I0
sg6
F-1.9999999999991842
sg7
F-31.999834574314928
sg8
F-1.9866334067413631
sg9
F4.003793685654777
ss(I0
I0
I2
I2
I0
tp2760
(dp2761
g5
I0
sg6
I0
sg7
I0
sg8
I0
sg9
I0
ss(I1
I1
I0
I0
I1
tp2762
(dp2763
g5
I0
sg6
F2.000001789881383
sg7
F-33.99248304931426
sg8
F2.000000000000001
sg9
F-3.980392114306646
ss(I0
I1
I0
I0
I1
tp2764
(dp2765
g5
I0
sg6
F-1.9999813800138306
sg7
F-31.999999999999993
sg8
F4.100112915039116
sg9
F-1.9999949616237296
ss(I1
I2
I2
I0
I0
tp2766
(dp2767
g5
I0
sg6
I0
sg7
I0
sg8
I0
sg9
I0
ss(I2
I1
I0
I0
I0
tp2768
(dp2769
g5
I0
sg6
I0
sg7
I0
sg8
I0
sg9
I0
ss(I2
I1
I2
I2
I1
tp2770
(dp2771
g5
I0
sg6
I0
sg7
I0
sg8
I0
sg9
I0
ss(I1
I2
I1
I0
I0
tp2772
(dp2773
g5
I0
sg6
I0
sg7
I0
sg8
I0
sg9
I0
ss(I2
I0
I0
I0
I1
tp2774
(dp2775
g5
I0
sg6
F8.210937751702069
sg7
F-33.995446156700666
sg8
F-3.9999203019531464
sg9
F-3.9983067772191285
ss(I1
I2
I2
I1
I0
tp2776
(dp2777
g5
I0
sg6
I0
sg7
I0
sg8
I0
sg9
I0
ss(I0
I2
I2
I1
I0
tp2778
(dp2779
g5
I0
sg6
I0
sg7
I0
sg8
I0
sg9
I0
ss(I2
I0
I1
I0
I1
tp2780
(dp2781
g5
I0
sg6
F6.000000000135006
sg7
F-35.99999887058623
sg8
F-5.97888161656771
sg9
F2.1285095149123537e-09
ss(I2
I1
I2
I1
I0
tp2782
(dp2783
g5
I0
sg6
I0
sg7
I0
sg8
I0
sg9
I0
ss(I1
I0
I0
I0
I0
tp2784
(dp2785
g5
I0
sg6
I0
sg7
I0
sg8
I0
sg9
I0
ss(I0
I0
I0
I2
I0
tp2786
(dp2787
g5
I0
sg6
I0
sg7
I0
sg8
I0
sg9
I0
ss(I2
I2
I1
I2
I0
tp2788
(dp2789
g5
I0
sg6
I0
sg7
I0
sg8
I0
sg9
I0
ss(I0
I2
I1
I1
I0
tp2790
(dp2791
g5
I0
sg6
I0
sg7
I0
sg8
I0
sg9
I0
ss(I2
I2
I0
I1
I0
tp2792
(dp2793
g5
I0
sg6
I0
sg7
I0
sg8
I0
sg9
I0
ss(I1
I1
I2
I0
I1
tp2794
(dp2795
g5
I0
sg6
F-1.9999999787420786
sg7
F-37.89988708449596
sg8
F-1.9999999996803084
sg9
F4.000036776313806
ss(I2
I1
I0
I0
I1
tp2796
(dp2797
g5
I0
sg6
F6.08447404331119
sg7
F-35.99995167388532
sg8
F1.0250057817231032e-06
sg9
F-5.999944440959005
ss(I0
I1
I0
I2
I1
tp2798
(dp2799
g5
I0
sg6
I0
sg7
I0
sg8
I0
sg9
I0
ss(I0
I1
I1
I1
I0
tp2800
(dp2801
g5
I0
sg6
I0
sg7
I0
sg8
I0
sg9
I0
ss(I0
I1
I0
I0
I0
tp2802
(dp2803
g5
I0
sg6
I0
sg7
I0
sg8
I0
sg9
I0
ss(I0
I2
I0
I0
I1
tp2804
(dp2805
g5
I0
sg6
F-3.578120628670764
sg7
F-33.99999999999997
sg8
F8.000000000000007
sg9
F-2.8546064386898156
ss(I0
I1
I2
I0
I0
tp2806
(dp2807
g5
I0
sg6
I0
sg7
I0
sg8
I0
sg9
I0
ss(I1
I1
I1
I0
I0
tp2808
(dp2809
g5
I0
sg6
I0
sg7
I0
sg8
I0
sg9
I0
ss(I1
I0
I2
I1
I1
tp2810
(dp2811
g5
I0
sg6
I0
sg7
I0
sg8
I0
sg9
I0
ss(I2
I0
I0
I0
I0
tp2812
(dp2813
g5
I0
sg6
I0
sg7
I0
sg8
I0
sg9
I0
ss(I1
I1
I2
I1
I0
tp2814
(dp2815
g5
I0
sg6
I0
sg7
I0
sg8
I0
sg9
I0
ss(I1
I0
I2
I0
I0
tp2816
(dp2817
g5
I0
sg6
I0
sg7
I0
sg8
I0
sg9
I0
ss(I1
I0
I1
I0
I1
tp2818
(dp2819
g5
I0
sg6
F2.000000034039678
sg7
F-33.99979673799571
sg8
F-3.999994432356746
sg9
F2.000000026327494
ss(I0
I2
I2
I1
I1
tp2820
(dp2821
g5
I0
sg6
I0
sg7
I0
sg8
I0
sg9
I0
ss(I2
I2
I0
I2
I1
tp2822
(dp2823
g5
I0
sg6
I0
sg7
I0
sg8
I0
sg9
I0
ss(I0
I2
I0
I2
I0
tp2824
(dp2825
g5
I0
sg6
I0
sg7
I0
sg8
I0
sg9
I0
ss(I2
I2
I1
I1
I1
tp2826
(dp2827
g5
I0
sg6
I0
sg7
I0
sg8
I0
sg9
I0
ss(I1
I0
I0
I0
I1
tp2828
(dp2829
g5
I0
sg6
F4.784560232853529
sg7
F-31.999999820694946
sg8
F-1.4374936740227322
sg9
F-1.9999999999999991
ss(I2
I1
I0
I2
I0
tp2830
(dp2831
g5
I0
sg6
I0
sg7
I0
sg8
I0
sg9
I0
ss(I0
I2
I2
I2
I0
tp2832
(dp2833
g5
I0
sg6
I0
sg7
I0
sg8
I0
sg9
I0
ss(I0
I2
I2
I2
I1
tp2834
(dp2835
g5
I0
sg6
I0
sg7
I0
sg8
I0
sg9
I0
ss(I2
I2
I0
I1
I1
tp2836
(dp2837
g5
I0
sg6
I0
sg7
I0
sg8
I0
sg9
I0
ss(I2
I0
I2
I2
I1
tp2838
(dp2839
g5
I0
sg6
I0
sg7
I0
sg8
I0
sg9
I0
ss(I0
I1
I0
I1
I1
tp2840
(dp2841
g5
I0
sg6
I0
sg7
I0
sg8
I0
sg9
I0
ss(I1
I2
I1
I1
I0
tp2842
(dp2843
g5
I0
sg6
I0
sg7
I0
sg8
I0
sg9
I0
ss(I0
I1
I0
I2
I0
tp2844
(dp2845
g5
I0
sg6
I0
sg7
I0
sg8
I0
sg9
I0
ss(I0
I1
I1
I2
I1
tp2846
(dp2847
g5
I0
sg6
I0
sg7
I0
sg8
I0
sg9
I0
ss(I1
I1
I2
I2
I1
tp2848
(dp2849
g5
I0
sg6
I0
sg7
I0
sg8
I0
sg9
I0
ss(I0
I1
I1
I1
I1
tp2850
(dp2851
g5
I0
sg6
I0
sg7
I0
sg8
I0
sg9
I0
ss(I1
I2
I0
I2
I0
tp2852
(dp2853
g5
I0
sg6
I0
sg7
I0
sg8
I0
sg9
I0
ss(I0
I0
I2
I0
I0
tp2854
(dp2855
g5
I0
sg6
I0
sg7
I0
sg8
I0
sg9
I0
ss(I0
I2
I0
I0
I0
tp2856
(dp2857
g5
I0
sg6
I0
sg7
I0
sg8
I0
sg9
I0
ss(I0
I1
I2
I0
I1
tp2858
(dp2859
g5
I0
sg6
F-5.999999999999998
sg7
F-35.88714900029707
sg8
F5.132836940584102e-12
sg9
F6.000000000010125
ss(I1
I1
I1
I0
I1
tp2860
(dp2861
g5
I0
sg6
F0.015913515433359296
sg7
F-35.99762158625521
sg8
F8.949280515548593e-07
sg9
F0.0001339498150428122
ss(I0
I0
I0
I2
I1
tp2862
(dp2863
g5
I0
sg6
I0
sg7
I0
sg8
I0
sg9
I0
ss(I1
I0
I2
I1
I0
tp2864
(dp2865
g5
I0
sg6
I0
sg7
I0
sg8
I0
sg9
I0
ss(I1
I1
I2
I1
I1
tp2866
(dp2867
g5
I0
sg6
I0
sg7
I0
sg8
I0
sg9
I0
ss(I0
I0
I1
I1
I1
tp2868
(dp2869
g5
I0
sg6
I0
sg7
I0
sg8
I0
sg9
I0
ss(I1
I0
I1
I0
I0
tp2870
(dp2871
g5
I0
sg6
I0
sg7
I0
sg8
I0
sg9
I0
ss(I0
I0
I1
I2
I1
tp2872
(dp2873
g5
I0
sg6
I0
sg7
I0
sg8
I0
sg9
I0
ss(I2
I0
I2
I2
I0
tp2874
(dp2875
g5
I0
sg6
I0
sg7
I0
sg8
I0
sg9
I0
ss(I0
I2
I0
I2
I1
tp2876
(dp2877
g5
I0
sg6
I0
sg7
I0
sg8
I0
sg9
I0
ss(I0
I0
I0
I0
I1
tp2878
(dp2879
g5
I0
sg6
F0.00019652193850553347
sg7
F-29.999999905206632
sg8
F0.0007860875853212856
sg9
F1.0099679814609773e-05
ss(I2
I2
I1
I1
I0
tp2880
(dp2881
g5
I0
sg6
I0
sg7
I0
sg8
I0
sg9
I0
ss(I0
I0
I0
I0
I0
tp2882
(dp2883
g5
I0
sg6
I0
sg7
I0
sg8
I0
sg9
I0
ss(I2
I2
I0
I2
I0
tp2884
(dp2885
g5
I0
sg6
I0
sg7
I0
sg8
I0
sg9
I0
ss(I1
I2
I0
I1
I1
tp2886
(dp2887
g5
I0
sg6
I0
sg7
I0
sg8
I0
sg9
I0
ss(I2
I0
I1
I1
I0
tp2888
(dp2889
g5
I0
sg6
I0
sg7
I0
sg8
I0
sg9
I0
ss(I0
I1
I0
I1
I0
tp2890
(dp2891
g5
I0
sg6
I0
sg7
I0
sg8
I0
sg9
I0
ss(I1
I2
I1
I2
I1
tp2892
(dp2893
g5
I0
sg6
I0
sg7
I0
sg8
I0
sg9
I0
ss(I1
I2
I1
I1
I1
tp2894
(dp2895
g5
I0
sg6
I0
sg7
I0
sg8
I0
sg9
I0
ss(I0
I2
I1
I0
I0
tp2896
(dp2897
g5
I0
sg6
I0
sg7
I0
sg8
I0
sg9
I0
ss(I0
I1
I1
I2
I0
tp2898
(dp2899
g5
I0
sg6
I0
sg7
I0
sg8
I0
sg9
I0
ss(I0
I0
I0
I1
I0
tp2900
(dp2901
g5
I0
sg6
I0
sg7
I0
sg8
I0
sg9
I0
ss(I1
I1
I2
I2
I0
tp2902
(dp2903
g5
I0
sg6
I0
sg7
I0
sg8
I0
sg9
I0
ss(I1
I2
I0
I2
I1
tp2904
(dp2905
g5
I0
sg6
I0
sg7
I0
sg8
I0
sg9
I0
ss(I2
I1
I1
I2
I1
tp2906
(dp2907
g5
I0
sg6
I0
sg7
I0
sg8
I0
sg9
I0
ss(I2
I0
I1
I2
I0
tp2908
(dp2909
g5
I0
sg6
I0
sg7
I0
sg8
I0
sg9
I0
ss(I2
I1
I0
I1
I1
tp2910
(dp2911
g5
I0
sg6
I0
sg7
I0
sg8
I0
sg9
I0
ss(I1
I2
I0
I1
I0
tp2912
(dp2913
g5
I0
sg6
I0
sg7
I0
sg8
I0
sg9
I0
ss(I2
I2
I2
I0
I1
tp2914
(dp2915
g5
I0
sg6
F4.408878556915468e-39
sg7
F-41.999999999999986
sg8
F2.0907270086227636e-39
sg9
F3.196362433321036e-10
ss(I2
I1
I0
I2
I1
tp2916
(dp2917
g5
I0
sg6
I0
sg7
I0
sg8
I0
sg9
I0
ss(I0
I2
I1
I2
I0
tp2918
(dp2919
g5
I0
sg6
I0
sg7
I0
sg8
I0
sg9
I0
ss(I0
I0
I1
I1
I0
tp2920
(dp2921
g5
I0
sg6
I0
sg7
I0
sg8
I0
sg9
I0
ss(I2
I2
I0
I0
I0
tp2922
(dp2923
g5
I0
sg6
I0
sg7
I0
sg8
I0
sg9
I0
ss(I0
I2
I1
I0
I1
tp2924
(dp2925
g5
I0
sg6
F-5.907211107946307
sg7
F-35.99878667065458
sg8
F6.000000000007594
sg9
F0.0003208314669825087
ss(I2
I0
I0
I2
I0
tp2926
(dp2927
g5
I0
sg6
I0
sg7
I0
sg8
I0
sg9
I0
ss(I0
I0
I0
I1
I1
tp2928
(dp2929
g5
I0
sg6
I0
sg7
I0
sg8
I0
sg9
I0
ss(I0
I0
I1
I2
I0
tp2930
(dp2931
g5
I0
sg6
I0
sg7
I0
sg8
I0
sg9
I0
ss(I1
I0
I2
I0
I1
tp2932
(dp2933
g5
I0
sg6
F1.1946854538784691e-11
sg7
F-35.99997863080304
sg8
F-5.999999888707625
sg9
F6.042705456482497
ssaa.