(lp0
(lp1
(dp2
(I0
I2
I0
I1
I0
tp3
(dp4
S'RRRG'
p5
I0
sS'GRRR'
p6
I0
sS'RRRR'
p7
I0
sS'RGRR'
p8
I0
sS'RRGR'
p9
I0
ss(I2
I0
I1
I1
I1
tp10
(dp11
g5
I0
sg6
I0
sg7
I0
sg8
I0
sg9
I0
ss(I1
I2
I1
I2
I0
tp12
(dp13
g5
I0
sg6
I0
sg7
I0
sg8
I0
sg9
I0
ss(I2
I2
I2
I0
I0
tp14
(dp15
g5
I0
sg6
I0
sg7
I0
sg8
I0
sg9
I0
ss(I2
I0
I2
I0
I1
tp16
(dp17
g5
I0
sg6
I0
sg7
I0
sg8
I0
sg9
I0
ss(I1
I0
I0
I2
I0
tp18
(dp19
g5
I0
sg6
I0
sg7
I0
sg8
I0
sg9
I0
ss(I2
I0
I0
I1
I1
tp20
(dp21
g5
F12.22446711853032
sg6
F20.717265292867545
sg7
F-24.723196614789057
sg8
F1.288250539321607
sg9
I0
ss(I2
I1
I1
I1
I0
tp22
(dp23
g5
I0
sg6
I0
sg7
I0
sg8
I0
sg9
I0
ss(I0
I2
I1
I2
I1
tp24
(dp25
g5
I0
sg6
I0
sg7
I0
sg8
I0
sg9
I0
ss(I2
I1
I1
I2
I0
tp26
(dp27
g5
I0
sg6
I0
sg7
I0
sg8
I0
sg9
I0
ss(I1
I0
I1
I1
I0
tp28
(dp29
g5
I0
sg6
I0
sg7
I0
sg8
I0
sg9
I0
ss(I2
I0
I1
I2
I1
tp30
(dp31
g5
I0
sg6
I0
sg7
I0
sg8
I0
sg9
I0
ss(I2
I2
I2
I1
I0
tp32
(dp33
g5
I0
sg6
I0
sg7
I0
sg8
I0
sg9
I0
ss(I2
I1
I0
I1
I0
tp34
(dp35
g5
I0
sg6
I0
sg7
I0
sg8
I0
sg9
I0
ss(I2
I2
I1
I0
I0
tp36
(dp37
g5
I0
sg6
I0
sg7
I0
sg8
I0
sg9
I0
ss(I0
I1
I2
I2
I0
tp38
(dp39
g5
I0
sg6
I0
sg7
I0
sg8
I0
sg9
I0
ss(I2
I2
I2
I2
I1
tp40
(dp41
g5
I0
sg6
I0
sg7
I0
sg8
I0
sg9
I0
ss(I1
I0
I2
I2
I1
tp42
(dp43
g5
I0
sg6
I0
sg7
I0
sg8
I0
sg9
I0
ss(I0
I2
I1
I1
I1
tp44
(dp45
g5
I0
sg6
I0
sg7
I0
sg8
I0
sg9
I0
ss(I2
I0
I0
I2
I1
tp46
(dp47
g5
F14.0577599947223
sg6
F10.559906801008228
sg7
F-25.956954930796957
sg8
F9.243878825887958
sg9
I0
ss(I2
I1
I1
I1
I1
tp48
(dp49
g5
I0
sg6
I0
sg7
I0
sg8
I0
sg9
I0
ss(I1
I1
I0
I1
I0
tp50
(dp51
g5
I0
sg6
I0
sg7
I0
sg8
I0
sg9
I0
ss(I0
I2
I2
I0
I1
tp52
(dp53
g5
I0
sg6
I0
sg7
I0
sg8
I0
sg9
I0
ss(I2
I2
I1
I2
I1
tp54
(dp55
g5
I0
sg6
I0
sg7
I0
sg8
I0
sg9
I0
ss(I1
I0
I1
I2
I1
tp56
(dp57
g5
I0
sg6
I0
sg7
I0
sg8
I0
sg9
I0
ss(I0
I2
I0
I1
I1
tp58
(dp59
g5
F11.367189242343063
sg6
F2.6586874707674215
sg7
F-20.820918095475722
sg8
F21.407556868437638
sg9
I0
ss(I1
I1
I1
I2
I0
tp60
(dp61
g5
I0
sg6
I0
sg7
I0
sg8
I0
sg9
I0
ss(I1
I0
I0
I1
I1
tp62
(dp63
g5
F17.497944760599797
sg6
F15.452471124468918
sg7
F-20.710017989054418
sg8
F11.39840939250893
sg9
I0
ss(I2
I0
I2
I0
I0
tp64
(dp65
g5
I0
sg6
I0
sg7
I0
sg8
I0
sg9
I0
ss(I0
I0
I2
I1
I0
tp66
(dp67
g5
I0
sg6
I0
sg7
I0
sg8
I0
sg9
I0
ss(I1
I0
I0
I2
I1
tp68
(dp69
g5
F21.783522850722022
sg6
F17.678368039280773
sg7
F-19.26281543179624
sg8
F10.083724777610323
sg9
I0
ss(I2
I2
I0
I0
I1
tp70
(dp71
g5
I0
sg6
F4.482287036634846
sg7
I0
sg8
F3.9904799724495263
sg9
I0
ss(I1
I0
I1
I1
I1
tp72
(dp73
g5
I0
sg6
I0
sg7
I0
sg8
I0
sg9
I0
ss(I2
I2
I2
I1
I1
tp74
(dp75
g5
I0
sg6
I0
sg7
I0
sg8
I0
sg9
I0
ss(I2
I2
I1
I0
I1
tp76
(dp77
g5
I0
sg6
I0
sg7
I0
sg8
I0
sg9
I0
ss(I0
I0
I2
I0
I1
tp78
(dp79
g5
I0
sg6
I0
sg7
I0
sg8
I0
sg9
I0
ss(I1
I2
I2
I2
I1
tp80
(dp81
g5
I0
sg6
I0
sg7
I0
sg8
I0
sg9
I0
ss(I0
I1
I1
I0
I1
tp82
(dp83
g5
I0
sg6
I0
sg7
I0
sg8
I0
sg9
I0
ss(I1
I2
I0
I0
I0
tp84
(dp85
g5
I0
sg6
I0
sg7
I0
sg8
I0
sg9
I0
ss(I0
I1
I2
I1
I1
tp86
(dp87
g5
I0
sg6
I0
sg7
I0
sg8
I0
sg9
I0
ss(I1
I1
I1
I1
I1
tp88
(dp89
g5
I0
sg6
I0
sg7
I0
sg8
I0
sg9
I0
ss(I0
I1
I2
I2
I1
tp90
(dp91
g5
I0
sg6
I0
sg7
I0
sg8
I0
sg9
I0
ss(I1
I0
I2
I2
I0
tp92
(dp93
g5
I0
sg6
I0
sg7
I0
sg8
I0
sg9
I0
ss(I1
I1
I0
I2
I1
tp94
(dp95
g5
F12.93056272289824
sg6
F8.32664462408148
sg7
F-22.513718422743857
sg8
F12.687477129104021
sg9
I0
ss(I1
I1
I0
I1
I1
tp96
(dp97
g5
F9.647756993091347
sg6
F16.36857553243408
sg7
F-23.60168331311018
sg8
F11.317411023782693
sg9
I0
ss(I2
I0
I2
I1
I1
tp98
(dp99
g5
I0
sg6
I0
sg7
I0
sg8
I0
sg9
I0
ss(I0
I2
I2
I0
I0
tp100
(dp101
g5
I0
sg6
I0
sg7
I0
sg8
I0
sg9
I0
ss(I1
I0
I1
I2
I0
tp102
(dp103
g5
I0
sg6
I0
sg7
I0
sg8
I0
sg9
I0
ss(I1
I1
I1
I2
I1
tp104
(dp105
g5
I0
sg6
I0
sg7
I0
sg8
I0
sg9
I0
ss(I2
I0
I0
I1
I0
tp106
(dp107
g5
I0
sg6
I0
sg7
I0
sg8
I0
sg9
I0
ss(I0
I0
I2
I2
I1
tp108
(dp109
g5
I0
sg6
I0
sg7
I0
sg8
I0
sg9
I0
ss(I1
I0
I0
I1
I0
tp110
(dp111
g5
I0
sg6
I0
sg7
I0
sg8
I0
sg9
I0
ss(I0
I0
I2
I1
I1
tp112
(dp113
g5
I0
sg6
I0
sg7
I0
sg8
I0
sg9
I0
ss(I1
I1
I0
I0
I0
tp114
(dp115
g5
I0
sg6
I0
sg7
I0
sg8
I0
sg9
I0
ss(I2
I1
I2
I0
I0
tp116
(dp117
g5
I0
sg6
I0
sg7
I0
sg8
I0
sg9
I0
ss(I2
I2
I2
I2
I0
tp118
(dp119
g5
I0
sg6
I0
sg7
I0
sg8
I0
sg9
I0
ss(I1
I2
I2
I0
I1
tp120
(dp121
g5
I0
sg6
I0
sg7
I0
sg8
I0
sg9
I0
ss(I0
I0
I1
I0
I0
tp122
(dp123
g5
I0
sg6
I0
sg7
I0
sg8
I0
sg9
I0
ss(I1
I2
I1
I0
I1
tp124
(dp125
g5
I0
sg6
I0
sg7
I0
sg8
I0
sg9
I0
ss(I0
I1
I1
I0
I0
tp126
(dp127
g5
I0
sg6
I0
sg7
I0
sg8
I0
sg9
I0
ss(I1
I2
I2
I1
I1
tp128
(dp129
g5
I0
sg6
I0
sg7
I0
sg8
I0
sg9
I0
ss(I2
I1
I1
I0
I0
tp130
(dp131
g5
I0
sg6
I0
sg7
I0
sg8
I0
sg9
I0
ss(I1
I2
I0
I0
I1
tp132
(dp133
g5
F3.382481602586682
sg6
F4.915312937062015
sg7
F-22.47051910438214
sg8
F18.362445197318884
sg9
I0
ss(I1
I2
I2
I2
I0
tp134
(dp135
g5
I0
sg6
I0
sg7
I0
sg8
I0
sg9
I0
ss(I0
I1
I2
I1
I0
tp136
(dp137
g5
I0
sg6
I0
sg7
I0
sg8
I0
sg9
I0
ss(I2
I0
I1
I0
I0
tp138
(dp139
g5
I0
sg6
I0
sg7
I0
sg8
I0
sg9
I0
ss(I1
I1
I1
I1
I0
tp140
(dp141
g5
I0
sg6
I0
sg7
I0
sg8
I0
sg9
I0
ss(I2
I1
I2
I2
I0
tp142
(dp143
g5
I0
sg6
I0
sg7
I0
sg8
I0
sg9
I0
ss(I2
I1
I2
I1
I1
tp144
(dp145
g5
I0
sg6
I0
sg7
I0
sg8
I0
sg9
I0
ss(I2
I0
I2
I1
I0
tp146
(dp147
g5
I0
sg6
I0
sg7
I0
sg8
I0
sg9
I0
ss(I1
I1
I0
I2
I0
tp148
(dp149
g5
I0
sg6
I0
sg7
I0
sg8
I0
sg9
I0
ss(I2
I1
I2
I0
I1
tp150
(dp151
g5
I0
sg6
I0
sg7
I0
sg8
I0
sg9
I0
ss(I2
I1
I1
I0
I1
tp152
(dp153
g5
I0
sg6
I0
sg7
I0
sg8
I0
sg9
I0
ss(I1
I1
I2
I0
I0
tp154
(dp155
g5
I0
sg6
I0
sg7
I0
sg8
I0
sg9
I0
ss(I0
I0
I1
I0
I1
tp156
(dp157
g5
I0
sg6
I0
sg7
I0
sg8
I0
sg9
I0
ss(I0
I0
I2
I2
I0
tp158
(dp159
g5
I0
sg6
I0
sg7
I0
sg8
I0
sg9
I0
ss(I1
I1
I0
I0
I1
tp160
(dp161
g5
F10.199311165225039
sg6
F16.25614438906343
sg7
F-24.57830299987726
sg8
F14.105216196290574
sg9
I0
ss(I0
I1
I0
I0
I1
tp162
(dp163
g5
F12.552008469489536
sg6
F10.087454172909387
sg7
F-14.114296277715393
sg8
F13.040972025743379
sg9
I0
ss(I1
I2
I2
I0
I0
tp164
(dp165
g5
I0
sg6
I0
sg7
I0
sg8
I0
sg9
I0
ss(I2
I1
I0
I0
I0
tp166
(dp167
g5
I0
sg6
I0
sg7
I0
sg8
I0
sg9
I0
ss(I2
I1
I2
I2
I1
tp168
(dp169
g5
I0
sg6
I0
sg7
I0
sg8
I0
sg9
I0
ss(I1
I2
I1
I0
I0
tp170
(dp171
g5
I0
sg6
I0
sg7
I0
sg8
I0
sg9
I0
ss(I2
I0
I0
I0
I1
tp172
(dp173
g5
F9.59758537189274
sg6
F20.343158617998043
sg7
F-17.231471009188297
sg8
F8.750982176457429
sg9
I0
ss(I1
I2
I2
I1
I0
tp174
(dp175
g5
I0
sg6
I0
sg7
I0
sg8
I0
sg9
I0
ss(I0
I2
I2
I1
I0
tp176
(dp177
g5
I0
sg6
I0
sg7
I0
sg8
I0
sg9
I0
ss(I2
I0
I1
I0
I1
tp178
(dp179
g5
I0
sg6
I0
sg7
I0
sg8
I0
sg9
I0
ss(I2
I1
I2
I1
I0
tp180
(dp181
g5
I0
sg6
I0
sg7
I0
sg8
I0
sg9
I0
ss(I1
I0
I0
I0
I0
tp182
(dp183
g5
I0
sg6
I0
sg7
I0
sg8
I0
sg9
I0
ss(I0
I0
I0
I2
I0
tp184
(dp185
g5
I0
sg6
I0
sg7
I0
sg8
I0
sg9
I0
ss(I2
I2
I1
I2
I0
tp186
(dp187
g5
I0
sg6
I0
sg7
I0
sg8
I0
sg9
I0
ss(I0
I2
I1
I1
I0
tp188
(dp189
g5
I0
sg6
I0
sg7
I0
sg8
I0
sg9
I0
ss(I2
I2
I0
I1
I0
tp190
(dp191
g5
I0
sg6
I0
sg7
I0
sg8
I0
sg9
I0
ss(I1
I1
I2
I0
I1
tp192
(dp193
g5
I0
sg6
I0
sg7
I0
sg8
I0
sg9
I0
ss(I2
I1
I0
I0
I1
tp194
(dp195
g5
F6.687428487764789
sg6
F20.24001852994688
sg7
F-25.657999823928
sg8
F10.74184194992406
sg9
I0
ss(I0
I1
I0
I2
I1
tp196
(dp197
g5
F20.695389167632843
sg6
F5.459745334063651
sg7
F-23.11635079499763
sg8
F9.05725096194635
sg9
I0
ss(I0
I1
I1
I1
I0
tp198
(dp199
g5
I0
sg6
I0
sg7
I0
sg8
I0
sg9
I0
ss(I0
I1
I0
I0
I0
tp200
(dp201
g5
I0
sg6
I0
sg7
I0
sg8
I0
sg9
I0
ss(I0
I2
I0
I0
I1
tp202
(dp203
g5
F10.403370902988543
sg6
F7.3430665099445465
sg7
F-20.997929550252906
sg8
F21.229807540681133
sg9
I0
ss(I0
I1
I2
I0
I0
tp204
(dp205
g5
I0
sg6
I0
sg7
I0
sg8
I0
sg9
I0
ss(I1
I1
I1
I0
I0
tp206
(dp207
g5
I0
sg6
I0
sg7
I0
sg8
I0
sg9
I0
ss(I1
I0
I2
I1
I1
tp208
(dp209
g5
I0
sg6
I0
sg7
I0
sg8
I0
sg9
I0
ss(I2
I0
I0
I0
I0
tp210
(dp211
g5
I0
sg6
I0
sg7
I0
sg8
I0
sg9
I0
ss(I1
I1
I2
I1
I0
tp212
(dp213
g5
I0
sg6
I0
sg7
I0
sg8
I0
sg9
I0
ss(I1
I0
I2
I0
I0
tp214
(dp215
g5
I0
sg6
I0
sg7
I0
sg8
I0
sg9
I0
ss(I1
I0
I1
I0
I1
tp216
(dp217
g5
I0
sg6
I0
sg7
I0
sg8
I0
sg9
I0
ss(I0
I2
I2
I1
I1
tp218
(dp219
g5
I0
sg6
I0
sg7
I0
sg8
I0
sg9
I0
ss(I2
I2
I0
I2
I1
tp220
(dp221
g5
I0
sg6
I0
sg7
I0
sg8
I0
sg9
I0
ss(I0
I2
I0
I2
I0
tp222
(dp223
g5
I0
sg6
I0
sg7
I0
sg8
I0
sg9
I0
ss(I2
I2
I1
I1
I1
tp224
(dp225
g5
I0
sg6
I0
sg7
I0
sg8
I0
sg9
I0
ss(I1
I0
I0
I0
I1
tp226
(dp227
g5
F12.808505486630445
sg6
F18.142518237514196
sg7
F-16.36908837725147
sg8
F10.514263285167145
sg9
I0
ss(I2
I1
I0
I2
I0
tp228
(dp229
g5
I0
sg6
I0
sg7
I0
sg8
I0
sg9
I0
ss(I0
I2
I2
I2
I0
tp230
(dp231
g5
I0
sg6
I0
sg7
I0
sg8
I0
sg9
I0
ss(I0
I2
I2
I2
I1
tp232
(dp233
g5
I0
sg6
I0
sg7
I0
sg8
I0
sg9
I0
ss(I2
I2
I0
I1
I1
tp234
(dp235
g5
F2.3904266857255574
sg6
F2.674407609213099
sg7
F-12.392731638118125
sg8
F7.857431386745548
sg9
I0
ss(I2
I0
I2
I2
I1
tp236
(dp237
g5
I0
sg6
I0
sg7
I0
sg8
I0
sg9
I0
ss(I0
I1
I0
I1
I1
tp238
(dp239
g5
F17.532509987429115
sg6
F10.716908683324391
sg7
F-20.599770198189052
sg8
F16.918768653841283
sg9
I0
ss(I1
I2
I1
I1
I0
tp240
(dp241
g5
I0
sg6
I0
sg7
I0
sg8
I0
sg9
I0
ss(I0
I1
I0
I2
I0
tp242
(dp243
g5
I0
sg6
I0
sg7
I0
sg8
I0
sg9
I0
ss(I0
I1
I1
I2
I1
tp244
(dp245
g5
I0
sg6
I0
sg7
I0
sg8
I0
sg9
I0
ss(I1
I1
I2
I2
I1
tp246
(dp247
g5
I0
sg6
I0
sg7
I0
sg8
I0
sg9
I0
ss(I0
I1
I1
I1
I1
tp248
(dp249
g5
I0
sg6
I0
sg7
I0
sg8
I0
sg9
I0
ss(I1
I2
I0
I2
I0
tp250
(dp251
g5
I0
sg6
I0
sg7
I0
sg8
I0
sg9
I0
ss(I0
I0
I2
I0
I0
tp252
(dp253
g5
I0
sg6
I0
sg7
I0
sg8
I0
sg9
I0
ss(I0
I2
I0
I0
I0
tp254
(dp255
g5
I0
sg6
I0
sg7
I0
sg8
I0
sg9
I0
ss(I0
I1
I2
I0
I1
tp256
(dp257
g5
I0
sg6
I0
sg7
I0
sg8
I0
sg9
I0
ss(I1
I1
I1
I0
I1
tp258
(dp259
g5
I0
sg6
I0
sg7
I0
sg8
I0
sg9
I0
ss(I0
I0
I0
I2
I1
tp260
(dp261
g5
F21.47682151259967
sg6
F13.628433642887464
sg7
F-15.548688025895885
sg8
F12.561987329736754
sg9
I0
ss(I1
I0
I2
I1
I0
tp262
(dp263
g5
I0
sg6
I0
sg7
I0
sg8
I0
sg9
I0
ss(I1
I1
I2
I1
I1
tp264
(dp265
g5
I0
sg6
I0
sg7
I0
sg8
I0
sg9
I0
ss(I0
I0
I1
I1
I1
tp266
(dp267
g5
I0
sg6
I0
sg7
I0
sg8
I0
sg9
I0
ss(I1
I0
I1
I0
I0
tp268
(dp269
g5
I0
sg6
I0
sg7
I0
sg8
I0
sg9
I0
ss(I0
I0
I1
I2
I1
tp270
(dp271
g5
I0
sg6
I0
sg7
I0
sg8
I0
sg9
I0
ss(I2
I0
I2
I2
I0
tp272
(dp273
g5
I0
sg6
I0
sg7
I0
sg8
I0
sg9
I0
ss(I0
I2
I0
I2
I1
tp274
(dp275
g5
F9.356845314584085
sg6
F6.39267251481119
sg7
F-25.492335951066952
sg8
F13.941168988649
sg9
I0
ss(I0
I0
I0
I0
I1
tp276
(dp277
g5
F14.285514614206631
sg6
F14.036814673797254
sg7
F-17.6035931394972
sg8
F12.966682040792918
sg9
I0
ss(I2
I2
I1
I1
I0
tp278
(dp279
g5
I0
sg6
I0
sg7
I0
sg8
I0
sg9
I0
ss(I0
I0
I0
I0
I0
tp280
(dp281
g5
I0
sg6
I0
sg7
I0
sg8
I0
sg9
I0
ss(I2
I2
I0
I2
I0
tp282
(dp283
g5
I0
sg6
I0
sg7
I0
sg8
I0
sg9
I0
ss(I1
I2
I0
I1
I1
tp284
(dp285
g5
F10.094330582957905
sg6
F9.884774788785924
sg7
F-31.460313927165128
sg8
F15.987978358143561
sg9
I0
ss(I2
I0
I1
I1
I0
tp286
(dp287
g5
I0
sg6
I0
sg7
I0
sg8
I0
sg9
I0
ss(I0
I1
I0
I1
I0
tp288
(dp289
g5
I0
sg6
I0
sg7
I0
sg8
I0
sg9
I0
ss(I1
I2
I1
I2
I1
tp290
(dp291
g5
I0
sg6
I0
sg7
I0
sg8
I0
sg9
I0
ss(I1
I2
I1
I1
I1
tp292
(dp293
g5
I0
sg6
I0
sg7
I0
sg8
I0
sg9
I0
ss(I0
I2
I1
I0
I0
tp294
(dp295
g5
I0
sg6
I0
sg7
I0
sg8
I0
sg9
I0
ss(I0
I1
I1
I2
I0
tp296
(dp297
g5
I0
sg6
I0
sg7
I0
sg8
I0
sg9
I0
ss(I0
I0
I0
I1
I0
tp298
(dp299
g5
I0
sg6
I0
sg7
I0
sg8
I0
sg9
I0
ss(I1
I1
I2
I2
I0
tp300
(dp301
g5
I0
sg6
I0
sg7
I0
sg8
I0
sg9
I0
ss(I1
I2
I0
I2
I1
tp302
(dp303
g5
I0
sg6
F4.109417531318668
sg7
F-10.069669793606147
sg8
F8.064999400207647
sg9
I0
ss(I2
I1
I1
I2
I1
tp304
(dp305
g5
I0
sg6
I0
sg7
I0
sg8
I0
sg9
I0
ss(I2
I0
I1
I2
I0
tp306
(dp307
g5
I0
sg6
I0
sg7
I0
sg8
I0
sg9
I0
ss(I2
I1
I0
I1
I1
tp308
(dp309
g5
F7.496521381410014
sg6
F16.50536681216351
sg7
F-28.248952482327567
sg8
F8.096558005259302
sg9
I0
ss(I1
I2
I0
I1
I0
tp310
(dp311
g5
I0
sg6
I0
sg7
I0
sg8
I0
sg9
I0
ss(I2
I2
I2
I0
I1
tp312
(dp313
g5
I0
sg6
I0
sg7
I0
sg8
I0
sg9
I0
ss(I2
I1
I0
I2
I1
tp314
(dp315
g5
F7.583882327335658
sg6
F3.83457612754221
sg7
F-14.02991535558282
sg8
F5.105535912958423
sg9
I0
ss(I0
I2
I1
I2
I0
tp316
(dp317
g5
I0
sg6
I0
sg7
I0
sg8
I0
sg9
I0
ss(I0
I0
I1
I1
I0
tp318
(dp319
g5
I0
sg6
I0
sg7
I0
sg8
I0
sg9
I0
ss(I2
I2
I0
I0
I0
tp320
(dp321
g5
I0
sg6
I0
sg7
I0
sg8
I0
sg9
I0
ss(I0
I2
I1
I0
I1
tp322
(dp323
g5
I0
sg6
I0
sg7
I0
sg8
I0
sg9
I0
ss(I2
I0
I0
I2
I0
tp324
(dp325
g5
I0
sg6
I0
sg7
I0
sg8
I0
sg9
I0
ss(I0
I0
I0
I1
I1
tp326
(dp327
g5
F12.591221817279429
sg6
F12.89196187959059
sg7
F-17.1559275618946
sg8
F10.273803294967347
sg9
I0
ss(I0
I0
I1
I2
I0
tp328
(dp329
g5
I0
sg6
I0
sg7
I0
sg8
I0
sg9
I0
ss(I1
I0
I2
I0
I1
tp330
(dp331
g5
I0
sg6
I0
sg7
I0
sg8
I0
sg9
I0
ssa(dp332
(I0
I2
I0
I1
I0
tp333
(dp334
g5
I0
sg6
I0
sg7
I0
sg8
I0
sg9
I0
ss(I2
I0
I1
I1
I1
tp335
(dp336
g5
F17.062800224568097
sg6
F17.77200897832815
sg7
F-14.920963921392882
sg8
I0
sg9
F10.079156693840554
ss(I1
I2
I1
I2
I0
tp337
(dp338
g5
I0
sg6
I0
sg7
I0
sg8
I0
sg9
I0
ss(I2
I2
I2
I0
I0
tp339
(dp340
g5
I0
sg6
I0
sg7
I0
sg8
I0
sg9
I0
ss(I2
I0
I2
I0
I1
tp341
(dp342
g5
F4.62510664529687
sg6
F16.540469689214408
sg7
F-26.707759174820943
sg8
I0
sg9
F18.2575874029705
ss(I1
I0
I0
I2
I0
tp343
(dp344
g5
I0
sg6
I0
sg7
I0
sg8
I0
sg9
I0
ss(I2
I0
I0
I1
I1
tp345
(dp346
g5
F14.32561638085054
sg6
F29.292741530790202
sg7
F-16.866063942645834
sg8
I0
sg9
F19.64100627346527
ss(I2
I1
I1
I1
I0
tp347
(dp348
g5
I0
sg6
I0
sg7
I0
sg8
I0
sg9
I0
ss(I0
I2
I1
I2
I1
tp349
(dp350
g5
I0
sg6
I0
sg7
I0
sg8
I0
sg9
I0
ss(I2
I1
I1
I2
I0
tp351
(dp352
g5
I0
sg6
I0
sg7
I0
sg8
I0
sg9
I0
ss(I1
I0
I1
I1
I0
tp353
(dp354
g5
I0
sg6
I0
sg7
I0
sg8
I0
sg9
I0
ss(I2
I0
I1
I2
I1
tp355
(dp356
g5
F7.20916066331996
sg6
F0.5
sg7
F-23.387888632208295
sg8
I0
sg9
F3.2888239163455193
ss(I2
I2
I2
I1
I0
tp357
(dp358
g5
I0
sg6
I0
sg7
I0
sg8
I0
sg9
I0
ss(I2
I1
I0
I1
I0
tp359
(dp360
g5
I0
sg6
I0
sg7
I0
sg8
I0
sg9
I0
ss(I2
I2
I1
I0
I0
tp361
(dp362
g5
I0
sg6
I0
sg7
I0
sg8
I0
sg9
I0
ss(I0
I1
I2
I2
I0
tp363
(dp364
g5
I0
sg6
I0
sg7
I0
sg8
I0
sg9
I0
ss(I2
I2
I2
I2
I1
tp365
(dp366
g5
I0
sg6
I0
sg7
I0
sg8
I0
sg9
I0
ss(I1
I0
I2
I2
I1
tp367
(dp368
g5
F0.875
sg6
F0.6977979634395115
sg7
F-15.744266089202668
sg8
I0
sg9
F0.875
ss(I0
I2
I1
I1
I1
tp369
(dp370
g5
I0
sg6
I0
sg7
I0
sg8
I0
sg9
I0
ss(I2
I0
I0
I2
I1
tp371
(dp372
g5
F19.593424830773927
sg6
F15.71375706402562
sg7
F-31.260425568625507
sg8
I0
sg9
F-4.184099520018435
ss(I2
I1
I1
I1
I1
tp373
(dp374
g5
I0
sg6
I0
sg7
I0
sg8
I0
sg9
I0
ss(I1
I1
I0
I1
I0
tp375
(dp376
g5
I0
sg6
I0
sg7
I0
sg8
I0
sg9
I0
ss(I0
I2
I2
I0
I1
tp377
(dp378
g5
I0
sg6
I0
sg7
I0
sg8
I0
sg9
I0
ss(I2
I2
I1
I2
I1
tp379
(dp380
g5
I0
sg6
I0
sg7
I0
sg8
I0
sg9
I0
ss(I1
I0
I1
I2
I1
tp381
(dp382
g5
F15.718559287335164
sg6
F9.956409737479177
sg7
F-25.74119982435331
sg8
I0
sg9
F3.297789358999343
ss(I0
I2
I0
I1
I1
tp383
(dp384
g5
I0
sg6
I0
sg7
I0
sg8
I0
sg9
I0
ss(I1
I1
I1
I2
I0
tp385
(dp386
g5
I0
sg6
I0
sg7
I0
sg8
I0
sg9
I0
ss(I1
I0
I0
I1
I1
tp387
(dp388
g5
F22.282919212885307
sg6
F22.50889725898089
sg7
F-15.017009082169938
sg8
I0
sg9
F7.986980547812463
ss(I2
I0
I2
I0
I0
tp389
(dp390
g5
I0
sg6
I0
sg7
I0
sg8
I0
sg9
I0
ss(I0
I0
I2
I1
I0
tp391
(dp392
g5
I0
sg6
I0
sg7
I0
sg8
I0
sg9
I0
ss(I1
I0
I0
I2
I1
tp393
(dp394
g5
F21.03424590350112
sg6
F8.24480673708644
sg7
F-27.840882146917394
sg8
I0
sg9
F7.771981682621215
ss(I2
I2
I0
I0
I1
tp395
(dp396
g5
I0
sg6
I0
sg7
I0
sg8
I0
sg9
I0
ss(I1
I0
I1
I1
I1
tp397
(dp398
g5
F20.65610771124221
sg6
F10.669581623997235
sg7
F-14.358377872571507
sg8
I0
sg9
F17.369569562934466
ss(I2
I2
I2
I1
I1
tp399
(dp400
g5
I0
sg6
I0
sg7
I0
sg8
I0
sg9
I0
ss(I2
I2
I1
I0
I1
tp401
(dp402
g5
I0
sg6
I0
sg7
I0
sg8
I0
sg9
I0
ss(I0
I0
I2
I0
I1
tp403
(dp404
g5
F26.84805890012577
sg6
F27.288021336365638
sg7
F-7.683683838097579
sg8
I0
sg9
F36.24201476788841
ss(I1
I2
I2
I2
I1
tp405
(dp406
g5
I0
sg6
I0
sg7
I0
sg8
I0
sg9
I0
ss(I0
I1
I1
I0
I1
tp407
(dp408
g5
I0
sg6
I0
sg7
I0
sg8
I0
sg9
I0
ss(I1
I2
I0
I0
I0
tp409
(dp410
g5
I0
sg6
I0
sg7
I0
sg8
I0
sg9
I0
ss(I0
I1
I2
I1
I1
tp411
(dp412
g5
I0
sg6
I0
sg7
I0
sg8
I0
sg9
I0
ss(I1
I1
I1
I1
I1
tp413
(dp414
g5
I0
sg6
I0
sg7
I0
sg8
I0
sg9
I0
ss(I0
I1
I2
I2
I1
tp415
(dp416
g5
I0
sg6
I0
sg7
I0
sg8
I0
sg9
I0
ss(I1
I0
I2
I2
I0
tp417
(dp418
g5
I0
sg6
I0
sg7
I0
sg8
I0
sg9
I0
ss(I1
I1
I0
I2
I1
tp419
(dp420
g5
I0
sg6
I0
sg7
I0
sg8
I0
sg9
I0
ss(I1
I1
I0
I1
I1
tp421
(dp422
g5
I0
sg6
I0
sg7
I0
sg8
I0
sg9
I0
ss(I2
I0
I2
I1
I1
tp423
(dp424
g5
F6.848864639578814
sg6
F2.364039203171673
sg7
F-28.43797219036831
sg8
I0
sg9
F2.3809402171196297
ss(I0
I2
I2
I0
I0
tp425
(dp426
g5
I0
sg6
I0
sg7
I0
sg8
I0
sg9
I0
ss(I1
I0
I1
I2
I0
tp427
(dp428
g5
I0
sg6
I0
sg7
I0
sg8
I0
sg9
I0
ss(I1
I1
I1
I2
I1
tp429
(dp430
g5
I0
sg6
I0
sg7
I0
sg8
I0
sg9
I0
ss(I2
I0
I0
I1
I0
tp431
(dp432
g5
I0
sg6
I0
sg7
I0
sg8
I0
sg9
I0
ss(I0
I0
I2
I2
I1
tp433
(dp434
g5
F13.554353614198856
sg6
F-0.6838453833638383
sg7
F-22.36877724143951
sg8
I0
sg9
F9.778146434497293
ss(I1
I0
I0
I1
I0
tp435
(dp436
g5
I0
sg6
I0
sg7
I0
sg8
I0
sg9
I0
ss(I0
I0
I2
I1
I1
tp437
(dp438
g5
F28.213811753460682
sg6
F17.553698499333297
sg7
F-10.31619138615374
sg8
I0
sg9
F35.7217421771971
ss(I1
I1
I0
I0
I0
tp439
(dp440
g5
I0
sg6
I0
sg7
I0
sg8
I0
sg9
I0
ss(I2
I1
I2
I0
I0
tp441
(dp442
g5
I0
sg6
I0
sg7
I0
sg8
I0
sg9
I0
ss(I2
I2
I2
I2
I0
tp443
(dp444
g5
I0
sg6
I0
sg7
I0
sg8
I0
sg9
I0
ss(I1
I2
I2
I0
I1
tp445
(dp446
g5
I0
sg6
I0
sg7
I0
sg8
I0
sg9
I0
ss(I0
I0
I1
I0
I0
tp447
(dp448
g5
I0
sg6
I0
sg7
I0
sg8
I0
sg9
I0
ss(I1
I2
I1
I0
I1
tp449
(dp450
g5
I0
sg6
I0
sg7
I0
sg8
I0
sg9
I0
ss(I0
I1
I1
I0
I0
tp451
(dp452
g5
I0
sg6
I0
sg7
I0
sg8
I0
sg9
I0
ss(I1
I2
I2
I1
I1
tp453
(dp454
g5
I0
sg6
I0
sg7
I0
sg8
I0
sg9
I0
ss(I2
I1
I1
I0
I0
tp455
(dp456
g5
I0
sg6
I0
sg7
I0
sg8
I0
sg9
I0
ss(I1
I2
I0
I0
I1
tp457
(dp458
g5
I0
sg6
I0
sg7
I0
sg8
I0
sg9
I0
ss(I1
I2
I2
I2
I0
tp459
(dp460
g5
I0
sg6
I0
sg7
I0
sg8
I0
sg9
I0
ss(I0
I1
I2
I1
I0
tp461
(dp462
g5
I0
sg6
I0
sg7
I0
sg8
I0
sg9
I0
ss(I2
I0
I1
I0
I0
tp463
(dp464
g5
I0
sg6
I0
sg7
I0
sg8
I0
sg9
I0
ss(I1
I1
I1
I1
I0
tp465
(dp466
g5
I0
sg6
I0
sg7
I0
sg8
I0
sg9
I0
ss(I2
I1
I2
I2
I0
tp467
(dp468
g5
I0
sg6
I0
sg7
I0
sg8
I0
sg9
I0
ss(I2
I1
I2
I1
I1
tp469
(dp470
g5
I0
sg6
I0
sg7
I0
sg8
I0
sg9
I0
ss(I2
I0
I2
I1
I0
tp471
(dp472
g5
I0
sg6
I0
sg7
I0
sg8
I0
sg9
I0
ss(I1
I1
I0
I2
I0
tp473
(dp474
g5
I0
sg6
I0
sg7
I0
sg8
I0
sg9
I0
ss(I2
I1
I2
I0
I1
tp475
(dp476
g5
I0
sg6
I0
sg7
I0
sg8
I0
sg9
I0
ss(I2
I1
I1
I0
I1
tp477
(dp478
g5
I0
sg6
I0
sg7
I0
sg8
I0
sg9
I0
ss(I1
I1
I2
I0
I0
tp479
(dp480
g5
I0
sg6
I0
sg7
I0
sg8
I0
sg9
I0
ss(I0
I0
I1
I0
I1
tp481
(dp482
g5
F32.74978728037571
sg6
F33.68497048967637
sg7
F4.219574587950154
sg8
I0
sg9
F40.558098520454564
ss(I0
I0
I2
I2
I0
tp483
(dp484
g5
I0
sg6
I0
sg7
I0
sg8
I0
sg9
I0
ss(I1
I1
I0
I0
I1
tp485
(dp486
g5
I0
sg6
I0
sg7
I0
sg8
I0
sg9
I0
ss(I0
I1
I0
I0
I1
tp487
(dp488
g5
I0
sg6
I0
sg7
I0
sg8
I0
sg9
I0
ss(I1
I2
I2
I0
I0
tp489
(dp490
g5
I0
sg6
I0
sg7
I0
sg8
I0
sg9
I0
ss(I2
I1
I0
I0
I0
tp491
(dp492
g5
I0
sg6
I0
sg7
I0
sg8
I0
sg9
I0
ss(I2
I1
I2
I2
I1
tp493
(dp494
g5
I0
sg6
I0
sg7
I0
sg8
I0
sg9
I0
ss(I1
I2
I1
I0
I0
tp495
(dp496
g5
I0
sg6
I0
sg7
I0
sg8
I0
sg9
I0
ss(I2
I0
I0
I0
I1
tp497
(dp498
g5
F29.39547115665077
sg6
F44.670874081943055
sg7
F-0.5553139718175224
sg8
I0
sg9
F21.739325172871286
ss(I1
I2
I2
I1
I0
tp499
(dp500
g5
I0
sg6
I0
sg7
I0
sg8
I0
sg9
I0
ss(I0
I2
I2
I1
I0
tp501
(dp502
g5
I0
sg6
I0
sg7
I0
sg8
I0
sg9
I0
ss(I2
I0
I1
I0
I1
tp503
(dp504
g5
F5.285041203272879
sg6
F32.548510286592425
sg7
F-16.68015789822941
sg8
I0
sg9
F11.423953199982492
ss(I2
I1
I2
I1
I0
tp505
(dp506
g5
I0
sg6
I0
sg7
I0
sg8
I0
sg9
I0
ss(I1
I0
I0
I0
I0
tp507
(dp508
g5
I0
sg6
I0
sg7
I0
sg8
I0
sg9
I0
ss(I0
I0
I0
I2
I0
tp509
(dp510
g5
I0
sg6
I0
sg7
I0
sg8
I0
sg9
I0
ss(I2
I2
I1
I2
I0
tp511
(dp512
g5
I0
sg6
I0
sg7
I0
sg8
I0
sg9
I0
ss(I0
I2
I1
I1
I0
tp513
(dp514
g5
I0
sg6
I0
sg7
I0
sg8
I0
sg9
I0
ss(I2
I2
I0
I1
I0
tp515
(dp516
g5
I0
sg6
I0
sg7
I0
sg8
I0
sg9
I0
ss(I1
I1
I2
I0
I1
tp517
(dp518
g5
I0
sg6
I0
sg7
I0
sg8
I0
sg9
I0
ss(I2
I1
I0
I0
I1
tp519
(dp520
g5
I0
sg6
I0
sg7
I0
sg8
I0
sg9
I0
ss(I0
I1
I0
I2
I1
tp521
(dp522
g5
I0
sg6
I0
sg7
I0
sg8
I0
sg9
I0
ss(I0
I1
I1
I1
I0
tp523
(dp524
g5
I0
sg6
I0
sg7
I0
sg8
I0
sg9
I0
ss(I0
I1
I0
I0
I0
tp525
(dp526
g5
I0
sg6
I0
sg7
I0
sg8
I0
sg9
I0
ss(I0
I2
I0
I0
I1
tp527
(dp528
g5
I0
sg6
I0
sg7
I0
sg8
I0
sg9
I0
ss(I0
I1
I2
I0
I0
tp529
(dp530
g5
I0
sg6
I0
sg7
I0
sg8
I0
sg9
I0
ss(I1
I1
I1
I0
I0
tp531
(dp532
g5
I0
sg6
I0
sg7
I0
sg8
I0
sg9
I0
ss(I1
I0
I2
I1
I1
tp533
(dp534
g5
F14.661616293943625
sg6
F14.825826746933581
sg7
F-20.657053343420323
sg8
I0
sg9
F19.132892899261215
ss(I2
I0
I0
I0
I0
tp535
(dp536
g5
I0
sg6
I0
sg7
I0
sg8
I0
sg9
I0
ss(I1
I1
I2
I1
I0
tp537
(dp538
g5
I0
sg6
I0
sg7
I0
sg8
I0
sg9
I0
ss(I1
I0
I2
I0
I0
tp539
(dp540
g5
I0
sg6
I0
sg7
I0
sg8
I0
sg9
I0
ss(I1
I0
I1
I0
I1
tp541
(dp542
g5
F11.63546539554165
sg6
F31.668869569417332
sg7
F-9.313127355881623
sg8
I0
sg9
F34.44611792205318
ss(I0
I2
I2
I1
I1
tp543
(dp544
g5
I0
sg6
I0
sg7
I0
sg8
I0
sg9
I0
ss(I2
I2
I0
I2
I1
tp545
(dp546
g5
I0
sg6
I0
sg7
I0
sg8
I0
sg9
I0
ss(I0
I2
I0
I2
I0
tp547
(dp548
g5
I0
sg6
I0
sg7
I0
sg8
I0
sg9
I0
ss(I2
I2
I1
I1
I1
tp549
(dp550
g5
I0
sg6
I0
sg7
I0
sg8
I0
sg9
I0
ss(I1
I0
I0
I0
I1
tp551
(dp552
g5
F27.088305485730007
sg6
F35.05190261489908
sg7
F-7.938826395840348
sg8
I0
sg9
F24.66218864923998
ss(I2
I1
I0
I2
I0
tp553
(dp554
g5
I0
sg6
I0
sg7
I0
sg8
I0
sg9
I0
ss(I0
I2
I2
I2
I0
tp555
(dp556
g5
I0
sg6
I0
sg7
I0
sg8
I0
sg9
I0
ss(I0
I2
I2
I2
I1
tp557
(dp558
g5
I0
sg6
I0
sg7
I0
sg8
I0
sg9
I0
ss(I2
I2
I0
I1
I1
tp559
(dp560
g5
I0
sg6
I0
sg7
I0
sg8
I0
sg9
I0
ss(I2
I0
I2
I2
I1
tp561
(dp562
g5
I0
sg6
I0
sg7
I0
sg8
I0
sg9
I0
ss(I0
I1
I0
I1
I1
tp563
(dp564
g5
I0
sg6
I0
sg7
I0
sg8
I0
sg9
I0
ss(I1
I2
I1
I1
I0
tp565
(dp566
g5
I0
sg6
I0
sg7
I0
sg8
I0
sg9
I0
ss(I0
I1
I0
I2
I0
tp567
(dp568
g5
I0
sg6
I0
sg7
I0
sg8
I0
sg9
I0
ss(I0
I1
I1
I2
I1
tp569
(dp570
g5
I0
sg6
I0
sg7
I0
sg8
I0
sg9
I0
ss(I1
I1
I2
I2
I1
tp571
(dp572
g5
I0
sg6
I0
sg7
I0
sg8
I0
sg9
I0
ss(I0
I1
I1
I1
I1
tp573
(dp574
g5
I0
sg6
I0
sg7
I0
sg8
I0
sg9
I0
ss(I1
I2
I0
I2
I0
tp575
(dp576
g5
I0
sg6
I0
sg7
I0
sg8
I0
sg9
I0
ss(I0
I0
I2
I0
I0
tp577
(dp578
g5
I0
sg6
I0
sg7
I0
sg8
I0
sg9
I0
ss(I0
I2
I0
I0
I0
tp579
(dp580
g5
I0
sg6
I0
sg7
I0
sg8
I0
sg9
I0
ss(I0
I1
I2
I0
I1
tp581
(dp582
g5
I0
sg6
I0
sg7
I0
sg8
I0
sg9
I0
ss(I1
I1
I1
I0
I1
tp583
(dp584
g5
I0
sg6
I0
sg7
I0
sg8
I0
sg9
I0
ss(I0
I0
I0
I2
I1
tp585
(dp586
g5
F39.24473765736835
sg6
F20.894723523882437
sg7
F-18.380070688349107
sg8
I0
sg9
F11.795478339735485
ss(I1
I0
I2
I1
I0
tp587
(dp588
g5
I0
sg6
I0
sg7
I0
sg8
I0
sg9
I0
ss(I1
I1
I2
I1
I1
tp589
(dp590
g5
I0
sg6
I0
sg7
I0
sg8
I0
sg9
I0
ss(I0
I0
I1
I1
I1
tp591
(dp592
g5
F31.89317670636074
sg6
F29.179118889394644
sg7
F-0.42855260115363336
sg8
I0
sg9
F28.578200694897827
ss(I1
I0
I1
I0
I0
tp593
(dp594
g5
I0
sg6
I0
sg7
I0
sg8
I0
sg9
I0
ss(I0
I0
I1
I2
I1
tp595
(dp596
g5
F24.251865269022534
sg6
F9.134159449264814
sg7
F-21.499985449401834
sg8
I0
sg9
F10.691284229140077
ss(I2
I0
I2
I2
I0
tp597
(dp598
g5
I0
sg6
I0
sg7
I0
sg8
I0
sg9
I0
ss(I0
I2
I0
I2
I1
tp599
(dp600
g5
I0
sg6
I0
sg7
I0
sg8
I0
sg9
I0
ss(I0
I0
I0
I0
I1
tp601
(dp602
g5
F40.46764337714338
sg6
F39.11179580305257
sg7
F8.466237566207978
sg8
I0
sg9
F38.56108547675383
ss(I2
I2
I1
I1
I0
tp603
(dp604
g5
I0
sg6
I0
sg7
I0
sg8
I0
sg9
I0
ss(I0
I0
I0
I0
I0
tp605
(dp606
g5
I0
sg6
I0
sg7
I0
sg8
I0
sg9
I0
ss(I2
I2
I0
I2
I0
tp607
(dp608
g5
I0
sg6
I0
sg7
I0
sg8
I0
sg9
I0
ss(I1
I2
I0
I1
I1
tp609
(dp610
g5
I0
sg6
I0
sg7
I0
sg8
I0
sg9
I0
ss(I2
I0
I1
I1
I0
tp611
(dp612
g5
I0
sg6
I0
sg7
I0
sg8
I0
sg9
I0
ss(I0
I1
I0
I1
I0
tp613
(dp614
g5
I0
sg6
I0
sg7
I0
sg8
I0
sg9
I0
ss(I1
I2
I1
I2
I1
tp615
(dp616
g5
I0
sg6
I0
sg7
I0
sg8
I0
sg9
I0
ss(I1
I2
I1
I1
I1
tp617
(dp618
g5
I0
sg6
I0
sg7
I0
sg8
I0
sg9
I0
ss(I0
I2
I1
I0
I0
tp619
(dp620
g5
I0
sg6
I0
sg7
I0
sg8
I0
sg9
I0
ss(I0
I1
I1
I2
I0
tp621
(dp622
g5
I0
sg6
I0
sg7
I0
sg8
I0
sg9
I0
ss(I0
I0
I0
I1
I0
tp623
(dp624
g5
I0
sg6
I0
sg7
I0
sg8
I0
sg9
I0
ss(I1
I1
I2
I2
I0
tp625
(dp626
g5
I0
sg6
I0
sg7
I0
sg8
I0
sg9
I0
ss(I1
I2
I0
I2
I1
tp627
(dp628
g5
I0
sg6
I0
sg7
I0
sg8
I0
sg9
I0
ss(I2
I1
I1
I2
I1
tp629
(dp630
g5
I0
sg6
I0
sg7
I0
sg8
I0
sg9
I0
ss(I2
I0
I1
I2
I0
tp631
(dp632
g5
I0
sg6
I0
sg7
I0
sg8
I0
sg9
I0
ss(I2
I1
I0
I1
I1
tp633
(dp634
g5
I0
sg6
I0
sg7
I0
sg8
I0
sg9
I0
ss(I1
I2
I0
I1
I0
tp635
(dp636
g5
I0
sg6
I0
sg7
I0
sg8
I0
sg9
I0
ss(I2
I2
I2
I0
I1
tp637
(dp638
g5
I0
sg6
I0
sg7
I0
sg8
I0
sg9
I0
ss(I2
I1
I0
I2
I1
tp639
(dp640
g5
I0
sg6
I0
sg7
I0
sg8
I0
sg9
I0
ss(I0
I2
I1
I2
I0
tp641
(dp642
g5
I0
sg6
I0
sg7
I0
sg8
I0
sg9
I0
ss(I0
I0
I1
I1
I0
tp643
(dp644
g5
I0
sg6
I0
sg7
I0
sg8
I0
sg9
I0
ss(I2
I2
I0
I0
I0
tp645
(dp646
g5
I0
sg6
I0
sg7
I0
sg8
I0
sg9
I0
ss(I0
I2
I1
I0
I1
tp647
(dp648
g5
I0
sg6
I0
sg7
I0
sg8
I0
sg9
I0
ss(I2
I0
I0
I2
I0
tp649
(dp650
g5
I0
sg6
I0
sg7
I0
sg8
I0
sg9
I0
ss(I0
I0
I0
I1
I1
tp651
(dp652
g5
F43.3904041629089
sg6
F25.681064717889697
sg7
F2.4734774478498416
sg8
I0
sg9
F23.966480719577767
ss(I0
I0
I1
I2
I0
tp653
(dp654
g5
I0
sg6
I0
sg7
I0
sg8
I0
sg9
I0
ss(I1
I0
I2
I0
I1
tp655
(dp656
g5
F14.859957845407077
sg6
F18.393662489855597
sg7
F-17.88654615334744
sg8
I0
sg9
F28.368772806175762
ssa(dp657
(I0
I2
I0
I1
I0
tp658
(dp659
g5
I0
sg6
I0
sg7
I0
sg8
I0
sg9
I0
ss(I2
I0
I1
I1
I1
tp660
(dp661
g5
I0
sg6
I0
sg7
I0
sg8
I0
sg9
I0
ss(I1
I2
I1
I2
I0
tp662
(dp663
g5
I0
sg6
I0
sg7
I0
sg8
I0
sg9
I0
ss(I2
I2
I2
I0
I0
tp664
(dp665
g5
I0
sg6
I0
sg7
I0
sg8
I0
sg9
I0
ss(I2
I0
I2
I0
I1
tp666
(dp667
g5
I0
sg6
I0
sg7
I0
sg8
I0
sg9
I0
ss(I1
I0
I0
I2
I0
tp668
(dp669
g5
I0
sg6
I0
sg7
I0
sg8
I0
sg9
I0
ss(I2
I0
I0
I1
I1
tp670
(dp671
g5
I0
sg6
I0
sg7
I0
sg8
I0
sg9
I0
ss(I2
I1
I1
I1
I0
tp672
(dp673
g5
I0
sg6
I0
sg7
I0
sg8
I0
sg9
I0
ss(I0
I2
I1
I2
I1
tp674
(dp675
g5
I0
sg6
I0
sg7
F49.43866278360822
sg8
I0
sg9
I0
ss(I2
I1
I1
I2
I0
tp676
(dp677
g5
I0
sg6
I0
sg7
I0
sg8
I0
sg9
I0
ss(I1
I0
I1
I1
I0
tp678
(dp679
g5
I0
sg6
I0
sg7
I0
sg8
I0
sg9
I0
ss(I2
I0
I1
I2
I1
tp680
(dp681
g5
I0
sg6
I0
sg7
I0
sg8
I0
sg9
I0
ss(I2
I2
I2
I1
I0
tp682
(dp683
g5
I0
sg6
I0
sg7
I0
sg8
I0
sg9
I0
ss(I2
I1
I0
I1
I0
tp684
(dp685
g5
I0
sg6
I0
sg7
I0
sg8
I0
sg9
I0
ss(I2
I2
I1
I0
I0
tp686
(dp687
g5
I0
sg6
I0
sg7
I0
sg8
I0
sg9
I0
ss(I0
I1
I2
I2
I0
tp688
(dp689
g5
I0
sg6
I0
sg7
I0
sg8
I0
sg9
I0
ss(I2
I2
I2
I2
I1
tp690
(dp691
g5
I0
sg6
I0
sg7
I0
sg8
I0
sg9
I0
ss(I1
I0
I2
I2
I1
tp692
(dp693
g5
I0
sg6
I0
sg7
I0
sg8
I0
sg9
I0
ss(I0
I2
I1
I1
I1
tp694
(dp695
g5
F1761.5328859468077
sg6
I0
sg7
F1456.711837444831
sg8
F1276.6975118210607
sg9
F1333.8644884449582
ss(I2
I0
I0
I2
I1
tp696
(dp697
g5
I0
sg6
I0
sg7
I0
sg8
I0
sg9
I0
ss(I2
I1
I1
I1
I1
tp698
(dp699
g5
I0
sg6
I0
sg7
I0
sg8
I0
sg9
I0
ss(I1
I1
I0
I1
I0
tp700
(dp701
g5
I0
sg6
I0
sg7
I0
sg8
I0
sg9
I0
ss(I0
I2
I2
I0
I1
tp702
(dp703
g5
F35.130758308540265
sg6
I0
sg7
I0
sg8
F380.6733667562594
sg9
F865.0289428647598
ss(I2
I2
I1
I2
I1
tp704
(dp705
g5
I0
sg6
I0
sg7
I0
sg8
I0
sg9
I0
ss(I1
I0
I1
I2
I1
tp706
(dp707
g5
I0
sg6
I0
sg7
I0
sg8
I0
sg9
I0
ss(I0
I2
I0
I1
I1
tp708
(dp709
g5
F2147.3351420548374
sg6
I0
sg7
F2192.584016522903
sg8
F2204.0002650386646
sg9
F2181.0926125973865
ss(I1
I1
I1
I2
I0
tp710
(dp711
g5
I0
sg6
I0
sg7
I0
sg8
I0
sg9
I0
ss(I1
I0
I0
I1
I1
tp712
(dp713
g5
I0
sg6
I0
sg7
I0
sg8
I0
sg9
I0
ss(I2
I0
I2
I0
I0
tp714
(dp715
g5
I0
sg6
I0
sg7
I0
sg8
I0
sg9
I0
ss(I0
I0
I2
I1
I0
tp716
(dp717
g5
I0
sg6
I0
sg7
I0
sg8
I0
sg9
I0
ss(I1
I0
I0
I2
I1
tp718
(dp719
g5
I0
sg6
I0
sg7
I0
sg8
I0
sg9
I0
ss(I2
I2
I0
I0
I1
tp720
(dp721
g5
I0
sg6
I0
sg7
I0
sg8
I0
sg9
I0
ss(I1
I0
I1
I1
I1
tp722
(dp723
g5
I0
sg6
I0
sg7
I0
sg8
I0
sg9
I0
ss(I2
I2
I2
I1
I1
tp724
(dp725
g5
I0
sg6
I0
sg7
I0
sg8
I0
sg9
I0
ss(I2
I2
I1
I0
I1
tp726
(dp727
g5
I0
sg6
I0
sg7
I0
sg8
I0
sg9
I0
ss(I0
I0
I2
I0
I1
tp728
(dp729
g5
F2107.329093993995
sg6
I0
sg7
F2162.158728157259
sg8
F2130.9790021315653
sg9
F2415.2857402970535
ss(I1
I2
I2
I2
I1
tp730
(dp731
g5
I0
sg6
I0
sg7
I0
sg8
I0
sg9
I0
ss(I0
I1
I1
I0
I1
tp732
(dp733
g5
F2437.3785602343683
sg6
I0
sg7
F2400.3873974022636
sg8
F2443.6863985196624
sg9
F2438.1833547748383
ss(I1
I2
I0
I0
I0
tp734
(dp735
g5
I0
sg6
I0
sg7
I0
sg8
I0
sg9
I0
ss(I0
I1
I2
I1
I1
tp736
(dp737
g5
F1566.7038814539258
sg6
I0
sg7
F1175.7771230493502
sg8
F1015.3354498174295
sg9
F1253.6571188802832
ss(I1
I1
I1
I1
I1
tp738
(dp739
g5
I0
sg6
I0
sg7
I0
sg8
I0
sg9
I0
ss(I0
I1
I2
I2
I1
tp740
(dp741
g5
F557.5544510646786
sg6
I0
sg7
F100.95444190441913
sg8
I0
sg9
F50.12086480301083
ss(I1
I0
I2
I2
I0
tp742
(dp743
g5
I0
sg6
I0
sg7
I0
sg8
I0
sg9
I0
ss(I1
I1
I0
I2
I1
tp744
(dp745
g5
I0
sg6
I0
sg7
I0
sg8
I0
sg9
I0
ss(I1
I1
I0
I1
I1
tp746
(dp747
g5
I0
sg6
I0
sg7
I0
sg8
I0
sg9
I0
ss(I2
I0
I2
I1
I1
tp748
(dp749
g5
I0
sg6
I0
sg7
I0
sg8
I0
sg9
I0
ss(I0
I2
I2
I0
I0
tp750
(dp751
g5
I0
sg6
I0
sg7
I0
sg8
I0
sg9
I0
ss(I1
I0
I1
I2
I0
tp752
(dp753
g5
I0
sg6
I0
sg7
I0
sg8
I0
sg9
I0
ss(I1
I1
I1
I2
I1
tp754
(dp755
g5
I0
sg6
I0
sg7
I0
sg8
I0
sg9
I0
ss(I2
I0
I0
I1
I0
tp756
(dp757
g5
I0
sg6
I0
sg7
I0
sg8
I0
sg9
I0
ss(I0
I0
I2
I2
I1
tp758
(dp759
g5
I0
sg6
I0
sg7
F470.4359458894234
sg8
F93.15300209008521
sg9
F541.5142016905144
ss(I1
I0
I0
I1
I0
tp760
(dp761
g5
I0
sg6
I0
sg7
I0
sg8
I0
sg9
I0
ss(I0
I0
I2
I1
I1
tp762
(dp763
g5
F1657.8028682566196
sg6
I0
sg7
F1671.2999075277573
sg8
F1474.2754917600917
sg9
F2300.1378760715847
ss(I1
I1
I0
I0
I0
tp764
(dp765
g5
I0
sg6
I0
sg7
I0
sg8
I0
sg9
I0
ss(I2
I1
I2
I0
I0
tp766
(dp767
g5
I0
sg6
I0
sg7
I0
sg8
I0
sg9
I0
ss(I2
I2
I2
I2
I0
tp768
(dp769
g5
I0
sg6
I0
sg7
I0
sg8
I0
sg9
I0
ss(I1
I2
I2
I0
I1
tp770
(dp771
g5
I0
sg6
I0
sg7
I0
sg8
I0
sg9
I0
ss(I0
I0
I1
I0
I0
tp772
(dp773
g5
I0
sg6
I0
sg7
I0
sg8
I0
sg9
I0
ss(I1
I2
I1
I0
I1
tp774
(dp775
g5
I0
sg6
I0
sg7
I0
sg8
I0
sg9
I0
ss(I0
I1
I1
I0
I0
tp776
(dp777
g5
I0
sg6
I0
sg7
I0
sg8
I0
sg9
I0
ss(I1
I2
I2
I1
I1
tp778
(dp779
g5
I0
sg6
I0
sg7
I0
sg8
I0
sg9
I0
ss(I2
I1
I1
I0
I0
tp780
(dp781
g5
I0
sg6
I0
sg7
I0
sg8
I0
sg9
I0
ss(I1
I2
I0
I0
I1
tp782
(dp783
g5
I0
sg6
I0
sg7
I0
sg8
I0
sg9
I0
ss(I1
I2
I2
I2
I0
tp784
(dp785
g5
I0
sg6
I0
sg7
I0
sg8
I0
sg9
I0
ss(I0
I1
I2
I1
I0
tp786
(dp787
g5
I0
sg6
I0
sg7
I0
sg8
I0
sg9
I0
ss(I2
I0
I1
I0
I0
tp788
(dp789
g5
I0
sg6
I0
sg7
I0
sg8
I0
sg9
I0
ss(I1
I1
I1
I1
I0
tp790
(dp791
g5
I0
sg6
I0
sg7
I0
sg8
I0
sg9
I0
ss(I2
I1
I2
I2
I0
tp792
(dp793
g5
I0
sg6
I0
sg7
I0
sg8
I0
sg9
I0
ss(I2
I1
I2
I1
I1
tp794
(dp795
g5
I0
sg6
I0
sg7
I0
sg8
I0
sg9
I0
ss(I2
I0
I2
I1
I0
tp796
(dp797
g5
I0
sg6
I0
sg7
I0
sg8
I0
sg9
I0
ss(I1
I1
I0
I2
I0
tp798
(dp799
g5
I0
sg6
I0
sg7
I0
sg8
I0
sg9
I0
ss(I2
I1
I2
I0
I1
tp800
(dp801
g5
I0
sg6
I0
sg7
I0
sg8
I0
sg9
I0
ss(I2
I1
I1
I0
I1
tp802
(dp803
g5
I0
sg6
I0
sg7
I0
sg8
I0
sg9
I0
ss(I1
I1
I2
I0
I0
tp804
(dp805
g5
I0
sg6
I0
sg7
I0
sg8
I0
sg9
I0
ss(I0
I0
I1
I0
I1
tp806
(dp807
g5
F2443.218933505285
sg6
I0
sg7
F2406.461045562275
sg8
F2433.074456229042
sg9
F2459.5502381298274
ss(I0
I0
I2
I2
I0
tp808
(dp809
g5
I0
sg6
I0
sg7
I0
sg8
I0
sg9
I0
ss(I1
I1
I0
I0
I1
tp810
(dp811
g5
I0
sg6
I0
sg7
I0
sg8
I0
sg9
I0
ss(I0
I1
I0
I0
I1
tp812
(dp813
g5
F2444.571129990675
sg6
I0
sg7
F2416.245533263029
sg8
F2453.0373889057582
sg9
F2446.735142221875
ss(I1
I2
I2
I0
I0
tp814
(dp815
g5
I0
sg6
I0
sg7
I0
sg8
I0
sg9
I0
ss(I2
I1
I0
I0
I0
tp816
(dp817
g5
I0
sg6
I0
sg7
I0
sg8
I0
sg9
I0
ss(I2
I1
I2
I2
I1
tp818
(dp819
g5
I0
sg6
I0
sg7
I0
sg8
I0
sg9
I0
ss(I1
I2
I1
I0
I0
tp820
(dp821
g5
I0
sg6
I0
sg7
I0
sg8
I0
sg9
I0
ss(I2
I0
I0
I0
I1
tp822
(dp823
g5
I0
sg6
I0
sg7
I0
sg8
I0
sg9
I0
ss(I1
I2
I2
I1
I0
tp824
(dp825
g5
I0
sg6
I0
sg7
I0
sg8
I0
sg9
I0
ss(I0
I2
I2
I1
I0
tp826
(dp827
g5
I0
sg6
I0
sg7
I0
sg8
I0
sg9
I0
ss(I2
I0
I1
I0
I1
tp828
(dp829
g5
I0
sg6
I0
sg7
I0
sg8
I0
sg9
I0
ss(I2
I1
I2
I1
I0
tp830
(dp831
g5
I0
sg6
I0
sg7
I0
sg8
I0
sg9
I0
ss(I1
I0
I0
I0
I0
tp832
(dp833
g5
I0
sg6
I0
sg7
I0
sg8
I0
sg9
I0
ss(I0
I0
I0
I2
I0
tp834
(dp835
g5
I0
sg6
I0
sg7
I0
sg8
I0
sg9
I0
ss(I2
I2
I1
I2
I0
tp836
(dp837
g5
I0
sg6
I0
sg7
I0
sg8
I0
sg9
I0
ss(I0
I2
I1
I1
I0
tp838
(dp839
g5
I0
sg6
I0
sg7
I0
sg8
I0
sg9
I0
ss(I2
I2
I0
I1
I0
tp840
(dp841
g5
I0
sg6
I0
sg7
I0
sg8
I0
sg9
I0
ss(I1
I1
I2
I0
I1
tp842
(dp843
g5
I0
sg6
I0
sg7
I0
sg8
I0
sg9
I0
ss(I2
I1
I0
I0
I1
tp844
(dp845
g5
I0
sg6
I0
sg7
I0
sg8
I0
sg9
I0
ss(I0
I1
I0
I2
I1
tp846
(dp847
g5
F2248.2403040245654
sg6
I0
sg7
F2172.0542964916604
sg8
F2071.1590723972417
sg9
F1910.7652049968208
ss(I0
I1
I1
I1
I0
tp848
(dp849
g5
I0
sg6
I0
sg7
I0
sg8
I0
sg9
I0
ss(I0
I1
I0
I0
I0
tp850
(dp851
g5
I0
sg6
I0
sg7
I0
sg8
I0
sg9
I0
ss(I0
I2
I0
I0
I1
tp852
(dp853
g5
F2362.5344245630017
sg6
I0
sg7
F2348.154568620569
sg8
F2369.5459655298264
sg9
F2365.833725082842
ss(I0
I1
I2
I0
I0
tp854
(dp855
g5
I0
sg6
I0
sg7
I0
sg8
I0
sg9
I0
ss(I1
I1
I1
I0
I0
tp856
(dp857
g5
I0
sg6
I0
sg7
I0
sg8
I0
sg9
I0
ss(I1
I0
I2
I1
I1
tp858
(dp859
g5
I0
sg6
I0
sg7
I0
sg8
I0
sg9
I0
ss(I2
I0
I0
I0
I0
tp860
(dp861
g5
I0
sg6
I0
sg7
I0
sg8
I0
sg9
I0
ss(I1
I1
I2
I1
I0
tp862
(dp863
g5
I0
sg6
I0
sg7
I0
sg8
I0
sg9
I0
ss(I1
I0
I2
I0
I0
tp864
(dp865
g5
I0
sg6
I0
sg7
I0
sg8
I0
sg9
I0
ss(I1
I0
I1
I0
I1
tp866
(dp867
g5
I0
sg6
I0
sg7
I0
sg8
I0
sg9
I0
ss(I0
I2
I2
I1
I1
tp868
(dp869
g5
I0
sg6
I0
sg7
F20.913891820652637
sg8
F444.1290834062071
sg9
F380.84252329943456
ss(I2
I2
I0
I2
I1
tp870
(dp871
g5
I0
sg6
I0
sg7
I0
sg8
I0
sg9
I0
ss(I0
I2
I0
I2
I0
tp872
(dp873
g5
I0
sg6
I0
sg7
I0
sg8
I0
sg9
I0
ss(I2
I2
I1
I1
I1
tp874
(dp875
g5
I0
sg6
I0
sg7
I0
sg8
I0
sg9
I0
ss(I1
I0
I0
I0
I1
tp876
(dp877
g5
I0
sg6
I0
sg7
I0
sg8
I0
sg9
I0
ss(I2
I1
I0
I2
I0
tp878
(dp879
g5
I0
sg6
I0
sg7
I0
sg8
I0
sg9
I0
ss(I0
I2
I2
I2
I0
tp880
(dp881
g5
I0
sg6
I0
sg7
I0
sg8
I0
sg9
I0
ss(I0
I2
I2
I2
I1
tp882
(dp883
g5
I0
sg6
I0
sg7
I0
sg8
I0
sg9
I0
ss(I2
I2
I0
I1
I1
tp884
(dp885
g5
I0
sg6
I0
sg7
I0
sg8
I0
sg9
I0
ss(I2
I0
I2
I2
I1
tp886
(dp887
g5
I0
sg6
I0
sg7
I0
sg8
I0
sg9
I0
ss(I0
I1
I0
I1
I1
tp888
(dp889
g5
F2437.7276781217934
sg6
I0
sg7
F2400.3102865821884
sg8
F2428.2119796279167
sg9
F2430.923141554361
ss(I1
I2
I1
I1
I0
tp890
(dp891
g5
I0
sg6
I0
sg7
I0
sg8
I0
sg9
I0
ss(I0
I1
I0
I2
I0
tp892
(dp893
g5
I0
sg6
I0
sg7
I0
sg8
I0
sg9
I0
ss(I0
I1
I1
I2
I1
tp894
(dp895
g5
F943.9121544428162
sg6
I0
sg7
F1164.597136024135
sg8
F1501.47802564091
sg9
F1195.0919733054313
ss(I1
I1
I2
I2
I1
tp896
(dp897
g5
I0
sg6
I0
sg7
I0
sg8
I0
sg9
I0
ss(I0
I1
I1
I1
I1
tp898
(dp899
g5
F2334.717918179208
sg6
I0
sg7
F2322.287307031675
sg8
F2363.462681990779
sg9
F2351.0991429092546
ss(I1
I2
I0
I2
I0
tp900
(dp901
g5
I0
sg6
I0
sg7
I0
sg8
I0
sg9
I0
ss(I0
I0
I2
I0
I0
tp902
(dp903
g5
I0
sg6
I0
sg7
I0
sg8
I0
sg9
I0
ss(I0
I2
I0
I0
I0
tp904
(dp905
g5
I0
sg6
I0
sg7
I0
sg8
I0
sg9
I0
ss(I0
I1
I2
I0
I1
tp906
(dp907
g5
F2175.453340307675
sg6
I0
sg7
F2163.0636922736776
sg8
F2078.869693222736
sg9
F2262.7402176619335
ss(I1
I1
I1
I0
I1
tp908
(dp909
g5
I0
sg6
I0
sg7
I0
sg8
I0
sg9
I0
ss(I0
I0
I0
I2
I1
tp910
(dp911
g5
F2432.3572397304474
sg6
I0
sg7
F2067.3497208731187
sg8
F2084.2075625039924
sg9
F2263.7702211663272
ss(I1
I0
I2
I1
I0
tp912
(dp913
g5
I0
sg6
I0
sg7
I0
sg8
I0
sg9
I0
ss(I1
I1
I2
I1
I1
tp914
(dp915
g5
I0
sg6
I0
sg7
I0
sg8
I0
sg9
I0
ss(I0
I0
I1
I1
I1
tp916
(dp917
g5
F2436.3037828666643
sg6
I0
sg7
F2338.2519704128163
sg8
F2320.3305571997334
sg9
F2451.304070300869
ss(I1
I0
I1
I0
I0
tp918
(dp919
g5
I0
sg6
I0
sg7
I0
sg8
I0
sg9
I0
ss(I0
I0
I1
I2
I1
tp920
(dp921
g5
F2268.0678142820225
sg6
I0
sg7
F1653.8484131571072
sg8
F1940.1303734648109
sg9
F1555.3776033419363
ss(I2
I0
I2
I2
I0
tp922
(dp923
g5
I0
sg6
I0
sg7
I0
sg8
I0
sg9
I0
ss(I0
I2
I0
I2
I1
tp924
(dp925
g5
I0
sg6
I0
sg7
F418.54091768577337
sg8
F793.4227249711792
sg9
F389.58717112891946
ss(I0
I0
I0
I0
I1
tp926
(dp927
g5
F2455.7844256612343
sg6
I0
sg7
F2420.9517095970514
sg8
F2453.7984382249642
sg9
F2455.935245779343
ss(I2
I2
I1
I1
I0
tp928
(dp929
g5
I0
sg6
I0
sg7
I0
sg8
I0
sg9
I0
ss(I0
I0
I0
I0
I0
tp930
(dp931
g5
I0
sg6
I0
sg7
I0
sg8
I0
sg9
I0
ss(I2
I2
I0
I2
I0
tp932
(dp933
g5
I0
sg6
I0
sg7
I0
sg8
I0
sg9
I0
ss(I1
I2
I0
I1
I1
tp934
(dp935
g5
I0
sg6
I0
sg7
I0
sg8
I0
sg9
I0
ss(I2
I0
I1
I1
I0
tp936
(dp937
g5
I0
sg6
I0
sg7
I0
sg8
I0
sg9
I0
ss(I0
I1
I0
I1
I0
tp938
(dp939
g5
I0
sg6
I0
sg7
I0
sg8
I0
sg9
I0
ss(I1
I2
I1
I2
I1
tp940
(dp941
g5
I0
sg6
I0
sg7
I0
sg8
I0
sg9
I0
ss(I1
I2
I1
I1
I1
tp942
(dp943
g5
I0
sg6
I0
sg7
I0
sg8
I0
sg9
I0
ss(I0
I2
I1
I0
I0
tp944
(dp945
g5
I0
sg6
I0
sg7
I0
sg8
I0
sg9
I0
ss(I0
I1
I1
I2
I0
tp946
(dp947
g5
I0
sg6
I0
sg7
I0
sg8
I0
sg9
I0
ss(I0
I0
I0
I1
I0
tp948
(dp949
g5
I0
sg6
I0
sg7
I0
sg8
I0
sg9
I0
ss(I1
I1
I2
I2
I0
tp950
(dp951
g5
I0
sg6
I0
sg7
I0
sg8
I0
sg9
I0
ss(I1
I2
I0
I2
I1
tp952
(dp953
g5
I0
sg6
I0
sg7
I0
sg8
I0
sg9
I0
ss(I2
I1
I1
I2
I1
tp954
(dp955
g5
I0
sg6
I0
sg7
I0
sg8
I0
sg9
I0
ss(I2
I0
I1
I2
I0
tp956
(dp957
g5
I0
sg6
I0
sg7
I0
sg8
I0
sg9
I0
ss(I2
I1
I0
I1
I1
tp958
(dp959
g5
I0
sg6
I0
sg7
I0
sg8
I0
sg9
I0
ss(I1
I2
I0
I1
I0
tp960
(dp961
g5
I0
sg6
I0
sg7
I0
sg8
I0
sg9
I0
ss(I2
I2
I2
I0
I1
tp962
(dp963
g5
I0
sg6
I0
sg7
I0
sg8
I0
sg9
I0
ss(I2
I1
I0
I2
I1
tp964
(dp965
g5
I0
sg6
I0
sg7
I0
sg8
I0
sg9
I0
ss(I0
I2
I1
I2
I0
tp966
(dp967
g5
I0
sg6
I0
sg7
I0
sg8
I0
sg9
I0
ss(I0
I0
I1
I1
I0
tp968
(dp969
g5
I0
sg6
I0
sg7
I0
sg8
I0
sg9
I0
ss(I2
I2
I0
I0
I0
tp970
(dp971
g5
I0
sg6
I0
sg7
I0
sg8
I0
sg9
I0
ss(I0
I2
I1
I0
I1
tp972
(dp973
g5
F2290.442917365295
sg6
I0
sg7
F2255.374843196178
sg8
F2196.538393366643
sg9
F2312.96050213119
ss(I2
I0
I0
I2
I0
tp974
(dp975
g5
I0
sg6
I0
sg7
I0
sg8
I0
sg9
I0
ss(I0
I0
I0
I1
I1
tp976
(dp977
g5
F2460.021759961559
sg6
I0
sg7
F2413.638300571888
sg8
F2443.409613948844
sg9
F2441.912459748313
ss(I0
I0
I1
I2
I0
tp978
(dp979
g5
I0
sg6
I0
sg7
I0
sg8
I0
sg9
I0
ss(I1
I0
I2
I0
I1
tp980
(dp981
g5
I0
sg6
I0
sg7
I0
sg8
I0
sg9
I0
ssaa(lp982
(dp983
(I0
I2
I0
I1
I0
tp984
(dp985
g5
I0
sg6
I0
sg7
I0
sg8
I0
sg9
I0
ss(I2
I0
I1
I1
I1
tp986
(dp987
g5
I0
sg6
I0
sg7
I0
sg8
I0
sg9
I0
ss(I1
I2
I1
I2
I0
tp988
(dp989
g5
I0
sg6
I0
sg7
I0
sg8
I0
sg9
I0
ss(I2
I2
I2
I0
I0
tp990
(dp991
g5
I0
sg6
I0
sg7
I0
sg8
I0
sg9
I0
ss(I2
I0
I2
I0
I1
tp992
(dp993
g5
I0
sg6
I0
sg7
I0
sg8
I0
sg9
I0
ss(I1
I0
I0
I2
I0
tp994
(dp995
g5
I0
sg6
I0
sg7
I0
sg8
I0
sg9
I0
ss(I2
I0
I0
I1
I1
tp996
(dp997
g5
I0
sg6
I0
sg7
I0
sg8
I0
sg9
I0
ss(I2
I1
I1
I1
I0
tp998
(dp999
g5
I0
sg6
I0
sg7
I0
sg8
I0
sg9
I0
ss(I0
I2
I1
I2
I1
tp1000
(dp1001
g5
F6.0629080355397855
sg6
I0
sg7
F-9.34356177927014
sg8
F3.261904959028435
sg9
F3.104367925639247
ss(I2
I1
I1
I2
I0
tp1002
(dp1003
g5
I0
sg6
I0
sg7
I0
sg8
I0
sg9
I0
ss(I1
I0
I1
I1
I0
tp1004
(dp1005
g5
I0
sg6
I0
sg7
I0
sg8
I0
sg9
I0
ss(I2
I0
I1
I2
I1
tp1006
(dp1007
g5
I0
sg6
I0
sg7
I0
sg8
I0
sg9
I0
ss(I2
I2
I2
I1
I0
tp1008
(dp1009
g5
I0
sg6
I0
sg7
I0
sg8
I0
sg9
I0
ss(I2
I1
I0
I1
I0
tp1010
(dp1011
g5
I0
sg6
I0
sg7
I0
sg8
I0
sg9
I0
ss(I2
I2
I1
I0
I0
tp1012
(dp1013
g5
I0
sg6
I0
sg7
I0
sg8
I0
sg9
I0
ss(I0
I1
I2
I2
I0
tp1014
(dp1015
g5
I0
sg6
I0
sg7
I0
sg8
I0
sg9
I0
ss(I2
I2
I2
I2
I1
tp1016
(dp1017
g5
I0
sg6
I0
sg7
I0
sg8
I0
sg9
I0
ss(I1
I0
I2
I2
I1
tp1018
(dp1019
g5
I0
sg6
I0
sg7
I0
sg8
I0
sg9
I0
ss(I0
I2
I1
I1
I1
tp1020
(dp1021
g5
F16.789165398001675
sg6
I0
sg7
F-24.98429948738135
sg8
F13.23559148456361
sg9
F11.356654863133516
ss(I2
I0
I0
I2
I1
tp1022
(dp1023
g5
I0
sg6
I0
sg7
I0
sg8
I0
sg9
I0
ss(I2
I1
I1
I1
I1
tp1024
(dp1025
g5
I0
sg6
I0
sg7
I0
sg8
I0
sg9
I0
ss(I1
I1
I0
I1
I0
tp1026
(dp1027
g5
I0
sg6
I0
sg7
I0
sg8
I0
sg9
I0
ss(I0
I2
I2
I0
I1
tp1028
(dp1029
g5
F4.520037516688665
sg6
I0
sg7
F-27.41271407331778
sg8
F16.37199962575861
sg9
F22.53162970812415
ss(I2
I2
I1
I2
I1
tp1030
(dp1031
g5
I0
sg6
I0
sg7
I0
sg8
I0
sg9
I0
ss(I1
I0
I1
I2
I1
tp1032
(dp1033
g5
I0
sg6
I0
sg7
I0
sg8
I0
sg9
I0
ss(I0
I2
I0
I1
I1
tp1034
(dp1035
g5
F26.635369500369045
sg6
I0
sg7
F-16.456297691488643
sg8
F37.18306072550894
sg9
F21.15047588464281
ss(I1
I1
I1
I2
I0
tp1036
(dp1037
g5
I0
sg6
I0
sg7
I0
sg8
I0
sg9
I0
ss(I1
I0
I0
I1
I1
tp1038
(dp1039
g5
I0
sg6
I0
sg7
I0
sg8
I0
sg9
I0
ss(I2
I0
I2
I0
I0
tp1040
(dp1041
g5
I0
sg6
I0
sg7
I0
sg8
I0
sg9
I0
ss(I0
I0
I2
I1
I0
tp1042
(dp1043
g5
I0
sg6
I0
sg7
I0
sg8
I0
sg9
I0
ss(I1
I0
I0
I2
I1
tp1044
(dp1045
g5
I0
sg6
I0
sg7
I0
sg8
I0
sg9
I0
ss(I2
I2
I0
I0
I1
tp1046
(dp1047
g5
I0
sg6
I0
sg7
I0
sg8
I0
sg9
I0
ss(I1
I0
I1
I1
I1
tp1048
(dp1049
g5
I0
sg6
I0
sg7
I0
sg8
I0
sg9
I0
ss(I2
I2
I2
I1
I1
tp1050
(dp1051
g5
I0
sg6
I0
sg7
I0
sg8
I0
sg9
I0
ss(I2
I2
I1
I0
I1
tp1052
(dp1053
g5
I0
sg6
I0
sg7
I0
sg8
I0
sg9
I0
ss(I0
I0
I2
I0
I1
tp1054
(dp1055
g5
F19.601470045634198
sg6
I0
sg7
F-6.540523169536703
sg8
F24.783166439837082
sg9
F12.630429184893513
ss(I1
I2
I2
I2
I1
tp1056
(dp1057
g5
I0
sg6
I0
sg7
I0
sg8
I0
sg9
I0
ss(I0
I1
I1
I0
I1
tp1058
(dp1059
g5
F36.522924075833984
sg6
I0
sg7
F6.807202375841378
sg8
F44.474754136616454
sg9
F53.097596438195055
ss(I1
I2
I0
I0
I0
tp1060
(dp1061
g5
I0
sg6
I0
sg7
I0
sg8
I0
sg9
I0
ss(I0
I1
I2
I1
I1
tp1062
(dp1063
g5
F7.263192239394355
sg6
I0
sg7
F-27.72133424454568
sg8
F22.709132169576396
sg9
F18.17756772096976
ss(I1
I1
I1
I1
I1
tp1064
(dp1065
g5
I0
sg6
I0
sg7
I0
sg8
I0
sg9
I0
ss(I0
I1
I2
I2
I1
tp1066
(dp1067
g5
F5.06261417913614
sg6
I0
sg7
F-11.439318173945662
sg8
F4.780186698204298
sg9
F7.14140898135286
ss(I1
I0
I2
I2
I0
tp1068
(dp1069
g5
I0
sg6
I0
sg7
I0
sg8
I0
sg9
I0
ss(I1
I1
I0
I2
I1
tp1070
(dp1071
g5
I0
sg6
I0
sg7
I0
sg8
I0
sg9
I0
ss(I1
I1
I0
I1
I1
tp1072
(dp1073
g5
I0
sg6
I0
sg7
I0
sg8
I0
sg9
I0
ss(I2
I0
I2
I1
I1
tp1074
(dp1075
g5
I0
sg6
I0
sg7
I0
sg8
I0
sg9
I0
ss(I0
I2
I2
I0
I0
tp1076
(dp1077
g5
I0
sg6
I0
sg7
I0
sg8
I0
sg9
I0
ss(I1
I0
I1
I2
I0
tp1078
(dp1079
g5
I0
sg6
I0
sg7
I0
sg8
I0
sg9
I0
ss(I1
I1
I1
I2
I1
tp1080
(dp1081
g5
I0
sg6
I0
sg7
I0
sg8
I0
sg9
I0
ss(I2
I0
I0
I1
I0
tp1082
(dp1083
g5
I0
sg6
I0
sg7
I0
sg8
I0
sg9
I0
ss(I0
I0
I2
I2
I1
tp1084
(dp1085
g5
F10.509500476220486
sg6
I0
sg7
F-25.896550621904346
sg8
F0.5690292366650009
sg9
F10.155745731191917
ss(I1
I0
I0
I1
I0
tp1086
(dp1087
g5
I0
sg6
I0
sg7
I0
sg8
I0
sg9
I0
ss(I0
I0
I2
I1
I1
tp1088
(dp1089
g5
F33.82794898439833
sg6
I0
sg7
F-17.499856062302108
sg8
F11.429182838641188
sg9
F34.78090565240485
ss(I1
I1
I0
I0
I0
tp1090
(dp1091
g5
I0
sg6
I0
sg7
I0
sg8
I0
sg9
I0
ss(I2
I1
I2
I0
I0
tp1092
(dp1093
g5
I0
sg6
I0
sg7
I0
sg8
I0
sg9
I0
ss(I2
I2
I2
I2
I0
tp1094
(dp1095
g5
I0
sg6
I0
sg7
I0
sg8
I0
sg9
I0
ss(I1
I2
I2
I0
I1
tp1096
(dp1097
g5
I0
sg6
I0
sg7
I0
sg8
I0
sg9
I0
ss(I0
I0
I1
I0
I0
tp1098
(dp1099
g5
I0
sg6
I0
sg7
I0
sg8
I0
sg9
I0
ss(I1
I2
I1
I0
I1
tp1100
(dp1101
g5
I0
sg6
I0
sg7
I0
sg8
I0
sg9
I0
ss(I0
I1
I1
I0
I0
tp1102
(dp1103
g5
I0
sg6
I0
sg7
I0
sg8
I0
sg9
I0
ss(I1
I2
I2
I1
I1
tp1104
(dp1105
g5
I0
sg6
I0
sg7
I0
sg8
I0
sg9
I0
ss(I2
I1
I1
I0
I0
tp1106
(dp1107
g5
I0
sg6
I0
sg7
I0
sg8
I0
sg9
I0
ss(I1
I2
I0
I0
I1
tp1108
(dp1109
g5
I0
sg6
I0
sg7
I0
sg8
I0
sg9
I0
ss(I1
I2
I2
I2
I0
tp1110
(dp1111
g5
I0
sg6
I0
sg7
I0
sg8
I0
sg9
I0
ss(I0
I1
I2
I1
I0
tp1112
(dp1113
g5
I0
sg6
I0
sg7
I0
sg8
I0
sg9
I0
ss(I2
I0
I1
I0
I0
tp1114
(dp1115
g5
I0
sg6
I0
sg7
I0
sg8
I0
sg9
I0
ss(I1
I1
I1
I1
I0
tp1116
(dp1117
g5
I0
sg6
I0
sg7
I0
sg8
I0
sg9
I0
ss(I2
I1
I2
I2
I0
tp1118
(dp1119
g5
I0
sg6
I0
sg7
I0
sg8
I0
sg9
I0
ss(I2
I1
I2
I1
I1
tp1120
(dp1121
g5
I0
sg6
I0
sg7
I0
sg8
I0
sg9
I0
ss(I2
I0
I2
I1
I0
tp1122
(dp1123
g5
I0
sg6
I0
sg7
I0
sg8
I0
sg9
I0
ss(I1
I1
I0
I2
I0
tp1124
(dp1125
g5
I0
sg6
I0
sg7
I0
sg8
I0
sg9
I0
ss(I2
I1
I2
I0
I1
tp1126
(dp1127
g5
I0
sg6
I0
sg7
I0
sg8
I0
sg9
I0
ss(I2
I1
I1
I0
I1
tp1128
(dp1129
g5
I0
sg6
I0
sg7
I0
sg8
I0
sg9
I0
ss(I1
I1
I2
I0
I0
tp1130
(dp1131
g5
I0
sg6
I0
sg7
I0
sg8
I0
sg9
I0
ss(I0
I0
I1
I0
I1
tp1132
(dp1133
g5
F49.51137464721331
sg6
I0
sg7
F9.697713446532603
sg8
F47.656665212528765
sg9
F44.68985806163853
ss(I0
I0
I2
I2
I0
tp1134
(dp1135
g5
I0
sg6
I0
sg7
I0
sg8
I0
sg9
I0
ss(I1
I1
I0
I0
I1
tp1136
(dp1137
g5
I0
sg6
I0
sg7
I0
sg8
I0
sg9
I0
ss(I0
I1
I0
I0
I1
tp1138
(dp1139
g5
F48.188065612629
sg6
I0
sg7
F13.08440970230125
sg8
F48.98295523118179
sg9
F43.99182977110081
ss(I1
I2
I2
I0
I0
tp1140
(dp1141
g5
I0
sg6
I0
sg7
I0
sg8
I0
sg9
I0
ss(I2
I1
I0
I0
I0
tp1142
(dp1143
g5
I0
sg6
I0
sg7
I0
sg8
I0
sg9
I0
ss(I2
I1
I2
I2
I1
tp1144
(dp1145
g5
I0
sg6
I0
sg7
I0
sg8
I0
sg9
I0
ss(I1
I2
I1
I0
I0
tp1146
(dp1147
g5
I0
sg6
I0
sg7
I0
sg8
I0
sg9
I0
ss(I2
I0
I0
I0
I1
tp1148
(dp1149
g5
I0
sg6
I0
sg7
I0
sg8
I0
sg9
I0
ss(I1
I2
I2
I1
I0
tp1150
(dp1151
g5
I0
sg6
I0
sg7
I0
sg8
I0
sg9
I0
ss(I0
I2
I2
I1
I0
tp1152
(dp1153
g5
I0
sg6
I0
sg7
I0
sg8
I0
sg9
I0
ss(I2
I0
I1
I0
I1
tp1154
(dp1155
g5
I0
sg6
I0
sg7
I0
sg8
I0
sg9
I0
ss(I2
I1
I2
I1
I0
tp1156
(dp1157
g5
I0
sg6
I0
sg7
I0
sg8
I0
sg9
I0
ss(I1
I0
I0
I0
I0
tp1158
(dp1159
g5
I0
sg6
I0
sg7
I0
sg8
I0
sg9
I0
ss(I0
I0
I0
I2
I0
tp1160
(dp1161
g5
I0
sg6
I0
sg7
I0
sg8
I0
sg9
I0
ss(I2
I2
I1
I2
I0
tp1162
(dp1163
g5
I0
sg6
I0
sg7
I0
sg8
I0
sg9
I0
ss(I0
I2
I1
I1
I0
tp1164
(dp1165
g5
I0
sg6
I0
sg7
I0
sg8
I0
sg9
I0
ss(I2
I2
I0
I1
I0
tp1166
(dp1167
g5
I0
sg6
I0
sg7
I0
sg8
I0
sg9
I0
ss(I1
I1
I2
I0
I1
tp1168
(dp1169
g5
I0
sg6
I0
sg7
I0
sg8
I0
sg9
I0
ss(I2
I1
I0
I0
I1
tp1170
(dp1171
g5
I0
sg6
I0
sg7
I0
sg8
I0
sg9
I0
ss(I0
I1
I0
I2
I1
tp1172
(dp1173
g5
F31.863489432474957
sg6
I0
sg7
F-16.728240757019343
sg8
F15.895950873982787
sg9
F20.529721563664356
ss(I0
I1
I1
I1
I0
tp1174
(dp1175
g5
I0
sg6
I0
sg7
I0
sg8
I0
sg9
I0
ss(I0
I1
I0
I0
I0
tp1176
(dp1177
g5
I0
sg6
I0
sg7
I0
sg8
I0
sg9
I0
ss(I0
I2
I0
I0
I1
tp1178
(dp1179
g5
F21.464052985552172
sg6
I0
sg7
F-6.250937105695108
sg8
F58.7973445835011
sg9
F31.616397856960106
ss(I0
I1
I2
I0
I0
tp1180
(dp1181
g5
I0
sg6
I0
sg7
I0
sg8
I0
sg9
I0
ss(I1
I1
I1
I0
I0
tp1182
(dp1183
g5
I0
sg6
I0
sg7
I0
sg8
I0
sg9
I0
ss(I1
I0
I2
I1
I1
tp1184
(dp1185
g5
I0
sg6
I0
sg7
I0
sg8
I0
sg9
I0
ss(I2
I0
I0
I0
I0
tp1186
(dp1187
g5
I0
sg6
I0
sg7
I0
sg8
I0
sg9
I0
ss(I1
I1
I2
I1
I0
tp1188
(dp1189
g5
I0
sg6
I0
sg7
I0
sg8
I0
sg9
I0
ss(I1
I0
I2
I0
I0
tp1190
(dp1191
g5
I0
sg6
I0
sg7
I0
sg8
I0
sg9
I0
ss(I1
I0
I1
I0
I1
tp1192
(dp1193
g5
I0
sg6
I0
sg7
I0
sg8
I0
sg9
I0
ss(I0
I2
I2
I1
I1
tp1194
(dp1195
g5
F-1.75
sg6
I0
sg7
F-17.572445316740534
sg8
F3.559910539491465
sg9
F3.085496227267992
ss(I2
I2
I0
I2
I1
tp1196
(dp1197
g5
I0
sg6
I0
sg7
I0
sg8
I0
sg9
I0
ss(I0
I2
I0
I2
I0
tp1198
(dp1199
g5
I0
sg6
I0
sg7
I0
sg8
I0
sg9
I0
ss(I2
I2
I1
I1
I1
tp1200
(dp1201
g5
I0
sg6
I0
sg7
I0
sg8
I0
sg9
I0
ss(I1
I0
I0
I0
I1
tp1202
(dp1203
g5
I0
sg6
I0
sg7
I0
sg8
I0
sg9
I0
ss(I2
I1
I0
I2
I0
tp1204
(dp1205
g5
I0
sg6
I0
sg7
I0
sg8
I0
sg9
I0
ss(I0
I2
I2
I2
I0
tp1206
(dp1207
g5
I0
sg6
I0
sg7
I0
sg8
I0
sg9
I0
ss(I0
I2
I2
I2
I1
tp1208
(dp1209
g5
F0.0
sg6
I0
sg7
I0
sg8
I0
sg9
I0
ss(I2
I2
I0
I1
I1
tp1210
(dp1211
g5
I0
sg6
I0
sg7
I0
sg8
I0
sg9
I0
ss(I2
I0
I2
I2
I1
tp1212
(dp1213
g5
I0
sg6
I0
sg7
I0
sg8
I0
sg9
I0
ss(I0
I1
I0
I1
I1
tp1214
(dp1215
g5
F39.69865514766526
sg6
I0
sg7
F7.742448232590186
sg8
F53.236889061521964
sg9
F49.34880744401551
ss(I1
I2
I1
I1
I0
tp1216
(dp1217
g5
I0
sg6
I0
sg7
I0
sg8
I0
sg9
I0
ss(I0
I1
I0
I2
I0
tp1218
(dp1219
g5
I0
sg6
I0
sg7
I0
sg8
I0
sg9
I0
ss(I0
I1
I1
I2
I1
tp1220
(dp1221
g5
F17.81384363707658
sg6
I0
sg7
F-27.960068370688795
sg8
F16.726833268990497
sg9
F9.17182710334838
ss(I1
I1
I2
I2
I1
tp1222
(dp1223
g5
I0
sg6
I0
sg7
I0
sg8
I0
sg9
I0
ss(I0
I1
I1
I1
I1
tp1224
(dp1225
g5
F18.075926655423345
sg6
I0
sg7
F1.402044122373706
sg8
F42.737587010632254
sg9
F43.87045373493454
ss(I1
I2
I0
I2
I0
tp1226
(dp1227
g5
I0
sg6
I0
sg7
I0
sg8
I0
sg9
I0
ss(I0
I0
I2
I0
I0
tp1228
(dp1229
g5
I0
sg6
I0
sg7
I0
sg8
I0
sg9
I0
ss(I0
I2
I0
I0
I0
tp1230
(dp1231
g5
I0
sg6
I0
sg7
I0
sg8
I0
sg9
I0
ss(I0
I1
I2
I0
I1
tp1232
(dp1233
g5
F26.091803303618544
sg6
I0
sg7
F-21.0892036893562
sg8
F28.28565777188518
sg9
F35.01842628021454
ss(I1
I1
I1
I0
I1
tp1234
(dp1235
g5
I0
sg6
I0
sg7
I0
sg8
I0
sg9
I0
ss(I0
I0
I0
I2
I1
tp1236
(dp1237
g5
F58.92833984485644
sg6
I0
sg7
F-3.4429665987886047
sg8
F35.18682474848452
sg9
F23.878568374982247
ss(I1
I0
I2
I1
I0
tp1238
(dp1239
g5
I0
sg6
I0
sg7
I0
sg8
I0
sg9
I0
ss(I1
I1
I2
I1
I1
tp1240
(dp1241
g5
I0
sg6
I0
sg7
I0
sg8
I0
sg9
I0
ss(I0
I0
I1
I1
I1
tp1242
(dp1243
g5
F53.6982679620505
sg6
I0
sg7
F10.817984217421094
sg8
F41.26780599701228
sg9
F48.41416571403653
ss(I1
I0
I1
I0
I0
tp1244
(dp1245
g5
I0
sg6
I0
sg7
I0
sg8
I0
sg9
I0
ss(I0
I0
I1
I2
I1
tp1246
(dp1247
g5
F36.51189768166746
sg6
I0
sg7
F-20.316836701030674
sg8
F14.468770178541831
sg9
F19.288793994238528
ss(I2
I0
I2
I2
I0
tp1248
(dp1249
g5
I0
sg6
I0
sg7
I0
sg8
I0
sg9
I0
ss(I0
I2
I0
I2
I1
tp1250
(dp1251
g5
F12.221245998808126
sg6
I0
sg7
F-6.830114616251368
sg8
F16.68352254809087
sg9
F-2.0
ss(I0
I0
I0
I0
I1
tp1252
(dp1253
g5
F44.247889949448876
sg6
I0
sg7
F17.314425209205034
sg8
F43.14240949994645
sg9
F48.30889037937764
ss(I2
I2
I1
I1
I0
tp1254
(dp1255
g5
I0
sg6
I0
sg7
I0
sg8
I0
sg9
I0
ss(I0
I0
I0
I0
I0
tp1256
(dp1257
g5
I0
sg6
I0
sg7
I0
sg8
I0
sg9
I0
ss(I2
I2
I0
I2
I0
tp1258
(dp1259
g5
I0
sg6
I0
sg7
I0
sg8
I0
sg9
I0
ss(I1
I2
I0
I1
I1
tp1260
(dp1261
g5
I0
sg6
I0
sg7
I0
sg8
I0
sg9
I0
ss(I2
I0
I1
I1
I0
tp1262
(dp1263
g5
I0
sg6
I0
sg7
I0
sg8
I0
sg9
I0
ss(I0
I1
I0
I1
I0
tp1264
(dp1265
g5
I0
sg6
I0
sg7
I0
sg8
I0
sg9
I0
ss(I1
I2
I1
I2
I1
tp1266
(dp1267
g5
I0
sg6
I0
sg7
I0
sg8
I0
sg9
I0
ss(I1
I2
I1
I1
I1
tp1268
(dp1269
g5
I0
sg6
I0
sg7
I0
sg8
I0
sg9
I0
ss(I0
I2
I1
I0
I0
tp1270
(dp1271
g5
I0
sg6
I0
sg7
I0
sg8
I0
sg9
I0
ss(I0
I1
I1
I2
I0
tp1272
(dp1273
g5
I0
sg6
I0
sg7
I0
sg8
I0
sg9
I0
ss(I0
I0
I0
I1
I0
tp1274
(dp1275
g5
I0
sg6
I0
sg7
I0
sg8
I0
sg9
I0
ss(I1
I1
I2
I2
I0
tp1276
(dp1277
g5
I0
sg6
I0
sg7
I0
sg8
I0
sg9
I0
ss(I1
I2
I0
I2
I1
tp1278
(dp1279
g5
I0
sg6
I0
sg7
I0
sg8
I0
sg9
I0
ss(I2
I1
I1
I2
I1
tp1280
(dp1281
g5
I0
sg6
I0
sg7
I0
sg8
I0
sg9
I0
ss(I2
I0
I1
I2
I0
tp1282
(dp1283
g5
I0
sg6
I0
sg7
I0
sg8
I0
sg9
I0
ss(I2
I1
I0
I1
I1
tp1284
(dp1285
g5
I0
sg6
I0
sg7
I0
sg8
I0
sg9
I0
ss(I1
I2
I0
I1
I0
tp1286
(dp1287
g5
I0
sg6
I0
sg7
I0
sg8
I0
sg9
I0
ss(I2
I2
I2
I0
I1
tp1288
(dp1289
g5
I0
sg6
I0
sg7
I0
sg8
I0
sg9
I0
ss(I2
I1
I0
I2
I1
tp1290
(dp1291
g5
I0
sg6
I0
sg7
I0
sg8
I0
sg9
I0
ss(I0
I2
I1
I2
I0
tp1292
(dp1293
g5
I0
sg6
I0
sg7
I0
sg8
I0
sg9
I0
ss(I0
I0
I1
I1
I0
tp1294
(dp1295
g5
I0
sg6
I0
sg7
I0
sg8
I0
sg9
I0
ss(I2
I2
I0
I0
I0
tp1296
(dp1297
g5
I0
sg6
I0
sg7
I0
sg8
I0
sg9
I0
ss(I0
I2
I1
I0
I1
tp1298
(dp1299
g5
F33.819074822198885
sg6
I0
sg7
F-11.12807941350789
sg8
F15.901528823251587
sg9
F21.887448761096316
ss(I2
I0
I0
I2
I0
tp1300
(dp1301
g5
I0
sg6
I0
sg7
I0
sg8
I0
sg9
I0
ss(I0
I0
I0
I1
I1
tp1302
(dp1303
g5
F31.555201351266007
sg6
I0
sg7
F21.034719356460577
sg8
F43.91426658118179
sg9
F50.08705108264957
ss(I0
I0
I1
I2
I0
tp1304
(dp1305
g5
I0
sg6
I0
sg7
I0
sg8
I0
sg9
I0
ss(I1
I0
I2
I0
I1
tp1306
(dp1307
g5
I0
sg6
I0
sg7
I0
sg8
I0
sg9
I0
ssa(dp1308
(I0
I2
I0
I1
I0
tp1309
(dp1310
g5
I0
sg6
I0
sg7
I0
sg8
I0
sg9
I0
ss(I2
I0
I1
I1
I1
tp1311
(dp1312
g5
F8.577338016234831
sg6
F11.341881213955261
sg7
F-27.17504329750794
sg8
I0
sg9
F10.058260800301678
ss(I1
I2
I1
I2
I0
tp1313
(dp1314
g5
I0
sg6
I0
sg7
I0
sg8
I0
sg9
I0
ss(I2
I2
I2
I0
I0
tp1315
(dp1316
g5
I0
sg6
I0
sg7
I0
sg8
I0
sg9
I0
ss(I2
I0
I2
I0
I1
tp1317
(dp1318
g5
F2.31483941020075
sg6
F8.661363887960482
sg7
I0
sg8
I0
sg9
F5.0997365404476716
ss(I1
I0
I0
I2
I0
tp1319
(dp1320
g5
I0
sg6
I0
sg7
I0
sg8
I0
sg9
I0
ss(I2
I0
I0
I1
I1
tp1321
(dp1322
g5
F18.189224529590383
sg6
F21.102206543638353
sg7
F-18.773556769560972
sg8
I0
sg9
F12.017198111059171
ss(I2
I1
I1
I1
I0
tp1323
(dp1324
g5
I0
sg6
I0
sg7
I0
sg8
I0
sg9
I0
ss(I0
I2
I1
I2
I1
tp1325
(dp1326
g5
I0
sg6
I0
sg7
I0
sg8
I0
sg9
I0
ss(I2
I1
I1
I2
I0
tp1327
(dp1328
g5
I0
sg6
I0
sg7
I0
sg8
I0
sg9
I0
ss(I1
I0
I1
I1
I0
tp1329
(dp1330
g5
I0
sg6
I0
sg7
I0
sg8
I0
sg9
I0
ss(I2
I0
I1
I2
I1
tp1331
(dp1332
g5
I0
sg6
I0
sg7
I0
sg8
I0
sg9
I0
ss(I2
I2
I2
I1
I0
tp1333
(dp1334
g5
I0
sg6
I0
sg7
I0
sg8
I0
sg9
I0
ss(I2
I1
I0
I1
I0
tp1335
(dp1336
g5
I0
sg6
I0
sg7
I0
sg8
I0
sg9
I0
ss(I2
I2
I1
I0
I0
tp1337
(dp1338
g5
I0
sg6
I0
sg7
I0
sg8
I0
sg9
I0
ss(I0
I1
I2
I2
I0
tp1339
(dp1340
g5
I0
sg6
I0
sg7
I0
sg8
I0
sg9
I0
ss(I2
I2
I2
I2
I1
tp1341
(dp1342
g5
I0
sg6
I0
sg7
I0
sg8
I0
sg9
I0
ss(I1
I0
I2
I2
I1
tp1343
(dp1344
g5
I0
sg6
I0
sg7
I0
sg8
I0
sg9
I0
ss(I0
I2
I1
I1
I1
tp1345
(dp1346
g5
I0
sg6
I0
sg7
I0
sg8
I0
sg9
I0
ss(I2
I0
I0
I2
I1
tp1347
(dp1348
g5
I0
sg6
F8.406024986351397
sg7
F-5.649657702908689
sg8
I0
sg9
F2.1536999990499055
ss(I2
I1
I1
I1
I1
tp1349
(dp1350
g5
I0
sg6
I0
sg7
I0
sg8
I0
sg9
I0
ss(I1
I1
I0
I1
I0
tp1351
(dp1352
g5
I0
sg6
I0
sg7
I0
sg8
I0
sg9
I0
ss(I0
I2
I2
I0
I1
tp1353
(dp1354
g5
I0
sg6
I0
sg7
I0
sg8
I0
sg9
I0
ss(I2
I2
I1
I2
I1
tp1355
(dp1356
g5
I0
sg6
I0
sg7
I0
sg8
I0
sg9
I0
ss(I1
I0
I1
I2
I1
tp1357
(dp1358
g5
F18.636844756750826
sg6
F9.652868478305907
sg7
F-27.61027342177384
sg8
I0
sg9
F9.38625682156825
ss(I0
I2
I0
I1
I1
tp1359
(dp1360
g5
I0
sg6
I0
sg7
I0
sg8
I0
sg9
I0
ss(I1
I1
I1
I2
I0
tp1361
(dp1362
g5
I0
sg6
I0
sg7
I0
sg8
I0
sg9
I0
ss(I1
I0
I0
I1
I1
tp1363
(dp1364
g5
F25.899833927458342
sg6
F23.87356817339598
sg7
F-21.6705057768614
sg8
I0
sg9
F21.221823988854425
ss(I2
I0
I2
I0
I0
tp1365
(dp1366
g5
I0
sg6
I0
sg7
I0
sg8
I0
sg9
I0
ss(I0
I0
I2
I1
I0
tp1367
(dp1368
g5
I0
sg6
I0
sg7
I0
sg8
I0
sg9
I0
ss(I1
I0
I0
I2
I1
tp1369
(dp1370
g5
F23.51968373195989
sg6
F13.74680227763005
sg7
F-18.577272721319822
sg8
I0
sg9
F2.475721721935379
ss(I2
I2
I0
I0
I1
tp1371
(dp1372
g5
I0
sg6
I0
sg7
I0
sg8
I0
sg9
I0
ss(I1
I0
I1
I1
I1
tp1373
(dp1374
g5
F17.03586718093107
sg6
F13.88858642529584
sg7
F-20.244776623405606
sg8
I0
sg9
F20.1499074766854
ss(I2
I2
I2
I1
I1
tp1375
(dp1376
g5
I0
sg6
I0
sg7
I0
sg8
I0
sg9
I0
ss(I2
I2
I1
I0
I1
tp1377
(dp1378
g5
I0
sg6
I0
sg7
I0
sg8
I0
sg9
I0
ss(I0
I0
I2
I0
I1
tp1379
(dp1380
g5
F20.34289398538955
sg6
F12.815929912710557
sg7
F-18.45870390392126
sg8
I0
sg9
F27.05254964135785
ss(I1
I2
I2
I2
I1
tp1381
(dp1382
g5
I0
sg6
I0
sg7
I0
sg8
I0
sg9
I0
ss(I0
I1
I1
I0
I1
tp1383
(dp1384
g5
I0
sg6
I0
sg7
I0
sg8
I0
sg9
I0
ss(I1
I2
I0
I0
I0
tp1385
(dp1386
g5
I0
sg6
I0
sg7
I0
sg8
I0
sg9
I0
ss(I0
I1
I2
I1
I1
tp1387
(dp1388
g5
I0
sg6
I0
sg7
I0
sg8
I0
sg9
I0
ss(I1
I1
I1
I1
I1
tp1389
(dp1390
g5
I0
sg6
I0
sg7
I0
sg8
I0
sg9
I0
ss(I0
I1
I2
I2
I1
tp1391
(dp1392
g5
I0
sg6
I0
sg7
I0
sg8
I0
sg9
I0
ss(I1
I0
I2
I2
I0
tp1393
(dp1394
g5
I0
sg6
I0
sg7
I0
sg8
I0
sg9
I0
ss(I1
I1
I0
I2
I1
tp1395
(dp1396
g5
I0
sg6
I0
sg7
I0
sg8
I0
sg9
I0
ss(I1
I1
I0
I1
I1
tp1397
(dp1398
g5
I0
sg6
I0
sg7
I0
sg8
I0
sg9
I0
ss(I2
I0
I2
I1
I1
tp1399
(dp1400
g5
F1.726493094518374
sg6
I0
sg7
I0
sg8
I0
sg9
F3.8641743850268755
ss(I0
I2
I2
I0
I0
tp1401
(dp1402
g5
I0
sg6
I0
sg7
I0
sg8
I0
sg9
I0
ss(I1
I0
I1
I2
I0
tp1403
(dp1404
g5
I0
sg6
I0
sg7
I0
sg8
I0
sg9
I0
ss(I1
I1
I1
I2
I1
tp1405
(dp1406
g5
I0
sg6
I0
sg7
I0
sg8
I0
sg9
I0
ss(I2
I0
I0
I1
I0
tp1407
(dp1408
g5
I0
sg6
I0
sg7
I0
sg8
I0
sg9
I0
ss(I0
I0
I2
I2
I1
tp1409
(dp1410
g5
F12.275683823324483
sg6
F0.9782578656446401
sg7
I0
sg8
I0
sg9
F3.6934476510195
ss(I1
I0
I0
I1
I0
tp1411
(dp1412
g5
I0
sg6
I0
sg7
I0
sg8
I0
sg9
I0
ss(I0
I0
I2
I1
I1
tp1413
(dp1414
g5
F13.8669008245098
sg6
F4.826452211162957
sg7
F-24.813610732517446
sg8
I0
sg9
F20.028001797541894
ss(I1
I1
I0
I0
I0
tp1415
(dp1416
g5
I0
sg6
I0
sg7
I0
sg8
I0
sg9
I0
ss(I2
I1
I2
I0
I0
tp1417
(dp1418
g5
I0
sg6
I0
sg7
I0
sg8
I0
sg9
I0
ss(I2
I2
I2
I2
I0
tp1419
(dp1420
g5
I0
sg6
I0
sg7
I0
sg8
I0
sg9
I0
ss(I1
I2
I2
I0
I1
tp1421
(dp1422
g5
I0
sg6
I0
sg7
I0
sg8
I0
sg9
I0
ss(I0
I0
I1
I0
I0
tp1423
(dp1424
g5
I0
sg6
I0
sg7
I0
sg8
I0
sg9
I0
ss(I1
I2
I1
I0
I1
tp1425
(dp1426
g5
I0
sg6
I0
sg7
I0
sg8
I0
sg9
I0
ss(I0
I1
I1
I0
I0
tp1427
(dp1428
g5
I0
sg6
I0
sg7
I0
sg8
I0
sg9
I0
ss(I1
I2
I2
I1
I1
tp1429
(dp1430
g5
I0
sg6
I0
sg7
I0
sg8
I0
sg9
I0
ss(I2
I1
I1
I0
I0
tp1431
(dp1432
g5
I0
sg6
I0
sg7
I0
sg8
I0
sg9
I0
ss(I1
I2
I0
I0
I1
tp1433
(dp1434
g5
I0
sg6
I0
sg7
I0
sg8
I0
sg9
I0
ss(I1
I2
I2
I2
I0
tp1435
(dp1436
g5
I0
sg6
I0
sg7
I0
sg8
I0
sg9
I0
ss(I0
I1
I2
I1
I0
tp1437
(dp1438
g5
I0
sg6
I0
sg7
I0
sg8
I0
sg9
I0
ss(I2
I0
I1
I0
I0
tp1439
(dp1440
g5
I0
sg6
I0
sg7
I0
sg8
I0
sg9
I0
ss(I1
I1
I1
I1
I0
tp1441
(dp1442
g5
I0
sg6
I0
sg7
I0
sg8
I0
sg9
I0
ss(I2
I1
I2
I2
I0
tp1443
(dp1444
g5
I0
sg6
I0
sg7
I0
sg8
I0
sg9
I0
ss(I2
I1
I2
I1
I1
tp1445
(dp1446
g5
I0
sg6
I0
sg7
I0
sg8
I0
sg9
I0
ss(I2
I0
I2
I1
I0
tp1447
(dp1448
g5
I0
sg6
I0
sg7
I0
sg8
I0
sg9
I0
ss(I1
I1
I0
I2
I0
tp1449
(dp1450
g5
I0
sg6
I0
sg7
I0
sg8
I0
sg9
I0
ss(I2
I1
I2
I0
I1
tp1451
(dp1452
g5
I0
sg6
I0
sg7
I0
sg8
I0
sg9
I0
ss(I2
I1
I1
I0
I1
tp1453
(dp1454
g5
I0
sg6
I0
sg7
I0
sg8
I0
sg9
I0
ss(I1
I1
I2
I0
I0
tp1455
(dp1456
g5
I0
sg6
I0
sg7
I0
sg8
I0
sg9
I0
ss(I0
I0
I1
I0
I1
tp1457
(dp1458
g5
F25.59574373695432
sg6
F5.671581311184755
sg7
F-11.800070316000987
sg8
I0
sg9
F33.948010041345256
ss(I0
I0
I2
I2
I0
tp1459
(dp1460
g5
I0
sg6
I0
sg7
I0
sg8
I0
sg9
I0
ss(I1
I1
I0
I0
I1
tp1461
(dp1462
g5
I0
sg6
I0
sg7
I0
sg8
I0
sg9
I0
ss(I0
I1
I0
I0
I1
tp1463
(dp1464
g5
I0
sg6
I0
sg7
I0
sg8
I0
sg9
I0
ss(I1
I2
I2
I0
I0
tp1465
(dp1466
g5
I0
sg6
I0
sg7
I0
sg8
I0
sg9
I0
ss(I2
I1
I0
I0
I0
tp1467
(dp1468
g5
I0
sg6
I0
sg7
I0
sg8
I0
sg9
I0
ss(I2
I1
I2
I2
I1
tp1469
(dp1470
g5
I0
sg6
I0
sg7
I0
sg8
I0
sg9
I0
ss(I1
I2
I1
I0
I0
tp1471
(dp1472
g5
I0
sg6
I0
sg7
I0
sg8
I0
sg9
I0
ss(I2
I0
I0
I0
I1
tp1473
(dp1474
g5
F11.838392305330917
sg6
F21.467466844179864
sg7
F-19.1792537586724
sg8
I0
sg9
F14.621985617307736
ss(I1
I2
I2
I1
I0
tp1475
(dp1476
g5
I0
sg6
I0
sg7
I0
sg8
I0
sg9
I0
ss(I0
I2
I2
I1
I0
tp1477
(dp1478
g5
I0
sg6
I0
sg7
I0
sg8
I0
sg9
I0
ss(I2
I0
I1
I0
I1
tp1479
(dp1480
g5
F11.329485068851788
sg6
F20.228161070894792
sg7
F-24.90771868519174
sg8
I0
sg9
F13.671320801966885
ss(I2
I1
I2
I1
I0
tp1481
(dp1482
g5
I0
sg6
I0
sg7
I0
sg8
I0
sg9
I0
ss(I1
I0
I0
I0
I0
tp1483
(dp1484
g5
I0
sg6
I0
sg7
I0
sg8
I0
sg9
I0
ss(I0
I0
I0
I2
I0
tp1485
(dp1486
g5
I0
sg6
I0
sg7
I0
sg8
I0
sg9
I0
ss(I2
I2
I1
I2
I0
tp1487
(dp1488
g5
I0
sg6
I0
sg7
I0
sg8
I0
sg9
I0
ss(I0
I2
I1
I1
I0
tp1489
(dp1490
g5
I0
sg6
I0
sg7
I0
sg8
I0
sg9
I0
ss(I2
I2
I0
I1
I0
tp1491
(dp1492
g5
I0
sg6
I0
sg7
I0
sg8
I0
sg9
I0
ss(I1
I1
I2
I0
I1
tp1493
(dp1494
g5
I0
sg6
I0
sg7
I0
sg8
I0
sg9
I0
ss(I2
I1
I0
I0
I1
tp1495
(dp1496
g5
I0
sg6
I0
sg7
I0
sg8
I0
sg9
I0
ss(I0
I1
I0
I2
I1
tp1497
(dp1498
g5
I0
sg6
I0
sg7
I0
sg8
I0
sg9
I0
ss(I0
I1
I1
I1
I0
tp1499
(dp1500
g5
I0
sg6
I0
sg7
I0
sg8
I0
sg9
I0
ss(I0
I1
I0
I0
I0
tp1501
(dp1502
g5
I0
sg6
I0
sg7
I0
sg8
I0
sg9
I0
ss(I0
I2
I0
I0
I1
tp1503
(dp1504
g5
I0
sg6
I0
sg7
I0
sg8
I0
sg9
I0
ss(I0
I1
I2
I0
I0
tp1505
(dp1506
g5
I0
sg6
I0
sg7
I0
sg8
I0
sg9
I0
ss(I1
I1
I1
I0
I0
tp1507
(dp1508
g5
I0
sg6
I0
sg7
I0
sg8
I0
sg9
I0
ss(I1
I0
I2
I1
I1
tp1509
(dp1510
g5
F10.840473967632786
sg6
F9.561483206813522
sg7
F-32.33359146765361
sg8
I0
sg9
F18.43805565880363
ss(I2
I0
I0
I0
I0
tp1511
(dp1512
g5
I0
sg6
I0
sg7
I0
sg8
I0
sg9
I0
ss(I1
I1
I2
I1
I0
tp1513
(dp1514
g5
I0
sg6
I0
sg7
I0
sg8
I0
sg9
I0
ss(I1
I0
I2
I0
I0
tp1515
(dp1516
g5
I0
sg6
I0
sg7
I0
sg8
I0
sg9
I0
ss(I1
I0
I1
I0
I1
tp1517
(dp1518
g5
F10.422222957638017
sg6
F27.94875586583966
sg7
F-18.376827627809863
sg8
I0
sg9
F26.36194710063012
ss(I0
I2
I2
I1
I1
tp1519
(dp1520
g5
I0
sg6
I0
sg7
I0
sg8
I0
sg9
I0
ss(I2
I2
I0
I2
I1
tp1521
(dp1522
g5
I0
sg6
I0
sg7
I0
sg8
I0
sg9
I0
ss(I0
I2
I0
I2
I0
tp1523
(dp1524
g5
I0
sg6
I0
sg7
I0
sg8
I0
sg9
I0
ss(I2
I2
I1
I1
I1
tp1525
(dp1526
g5
I0
sg6
I0
sg7
I0
sg8
I0
sg9
I0
ss(I1
I0
I0
I0
I1
tp1527
(dp1528
g5
F27.562652132512298
sg6
F25.417542420507058
sg7
F-8.137104548102826
sg8
I0
sg9
F19.645366782182798
ss(I2
I1
I0
I2
I0
tp1529
(dp1530
g5
I0
sg6
I0
sg7
I0
sg8
I0
sg9
I0
ss(I0
I2
I2
I2
I0
tp1531
(dp1532
g5
I0
sg6
I0
sg7
I0
sg8
I0
sg9
I0
ss(I0
I2
I2
I2
I1
tp1533
(dp1534
g5
I0
sg6
I0
sg7
I0
sg8
I0
sg9
I0
ss(I2
I2
I0
I1
I1
tp1535
(dp1536
g5
I0
sg6
I0
sg7
I0
sg8
I0
sg9
I0
ss(I2
I0
I2
I2
I1
tp1537
(dp1538
g5
F3.241531501495545
sg6
I0
sg7
I0
sg8
I0
sg9
I0
ss(I0
I1
I0
I1
I1
tp1539
(dp1540
g5
I0
sg6
I0
sg7
I0
sg8
I0
sg9
I0
ss(I1
I2
I1
I1
I0
tp1541
(dp1542
g5
I0
sg6
I0
sg7
I0
sg8
I0
sg9
I0
ss(I0
I1
I0
I2
I0
tp1543
(dp1544
g5
I0
sg6
I0
sg7
I0
sg8
I0
sg9
I0
ss(I0
I1
I1
I2
I1
tp1545
(dp1546
g5
I0
sg6
I0
sg7
I0
sg8
I0
sg9
I0
ss(I1
I1
I2
I2
I1
tp1547
(dp1548
g5
I0
sg6
I0
sg7
I0
sg8
I0
sg9
I0
ss(I0
I1
I1
I1
I1
tp1549
(dp1550
g5
I0
sg6
I0
sg7
I0
sg8
I0
sg9
I0
ss(I1
I2
I0
I2
I0
tp1551
(dp1552
g5
I0
sg6
I0
sg7
I0
sg8
I0
sg9
I0
ss(I0
I0
I2
I0
I0
tp1553
(dp1554
g5
I0
sg6
I0
sg7
I0
sg8
I0
sg9
I0
ss(I0
I2
I0
I0
I0
tp1555
(dp1556
g5
I0
sg6
I0
sg7
I0
sg8
I0
sg9
I0
ss(I0
I1
I2
I0
I1
tp1557
(dp1558
g5
I0
sg6
I0
sg7
I0
sg8
I0
sg9
I0
ss(I1
I1
I1
I0
I1
tp1559
(dp1560
g5
I0
sg6
I0
sg7
I0
sg8
I0
sg9
I0
ss(I0
I0
I0
I2
I1
tp1561
(dp1562
g5
F34.015695716129
sg6
F2.7561828994015154
sg7
F-20.08412778845529
sg8
I0
sg9
F14.181409666411952
ss(I1
I0
I2
I1
I0
tp1563
(dp1564
g5
I0
sg6
I0
sg7
I0
sg8
I0
sg9
I0
ss(I1
I1
I2
I1
I1
tp1565
(dp1566
g5
I0
sg6
I0
sg7
I0
sg8
I0
sg9
I0
ss(I0
I0
I1
I1
I1
tp1567
(dp1568
g5
F23.070238986746702
sg6
F11.87012639683741
sg7
F-15.320748228754843
sg8
I0
sg9
F24.65203143440151
ss(I1
I0
I1
I0
I0
tp1569
(dp1570
g5
I0
sg6
I0
sg7
I0
sg8
I0
sg9
I0
ss(I0
I0
I1
I2
I1
tp1571
(dp1572
g5
F20.032527536042068
sg6
F7.51566481958765
sg7
F-26.06049137298194
sg8
I0
sg9
F16.19537290373481
ss(I2
I0
I2
I2
I0
tp1573
(dp1574
g5
I0
sg6
I0
sg7
I0
sg8
I0
sg9
I0
ss(I0
I2
I0
I2
I1
tp1575
(dp1576
g5
I0
sg6
I0
sg7
I0
sg8
I0
sg9
I0
ss(I0
I0
I0
I0
I1
tp1577
(dp1578
g5
F13.305571677764004
sg6
F29.178038516288908
sg7
F-1.7522694026617245
sg8
I0
sg9
F26.704406294667997
ss(I2
I2
I1
I1
I0
tp1579
(dp1580
g5
I0
sg6
I0
sg7
I0
sg8
I0
sg9
I0
ss(I0
I0
I0
I0
I0
tp1581
(dp1582
g5
I0
sg6
I0
sg7
I0
sg8
I0
sg9
I0
ss(I2
I2
I0
I2
I0
tp1583
(dp1584
g5
I0
sg6
I0
sg7
I0
sg8
I0
sg9
I0
ss(I1
I2
I0
I1
I1
tp1585
(dp1586
g5
I0
sg6
I0
sg7
I0
sg8
I0
sg9
I0
ss(I2
I0
I1
I1
I0
tp1587
(dp1588
g5
I0
sg6
I0
sg7
I0
sg8
I0
sg9
I0
ss(I0
I1
I0
I1
I0
tp1589
(dp1590
g5
I0
sg6
I0
sg7
I0
sg8
I0
sg9
I0
ss(I1
I2
I1
I2
I1
tp1591
(dp1592
g5
I0
sg6
I0
sg7
I0
sg8
I0
sg9
I0
ss(I1
I2
I1
I1
I1
tp1593
(dp1594
g5
I0
sg6
I0
sg7
I0
sg8
I0
sg9
I0
ss(I0
I2
I1
I0
I0
tp1595
(dp1596
g5
I0
sg6
I0
sg7
I0
sg8
I0
sg9
I0
ss(I0
I1
I1
I2
I0
tp1597
(dp1598
g5
I0
sg6
I0
sg7
I0
sg8
I0
sg9
I0
ss(I0
I0
I0
I1
I0
tp1599
(dp1600
g5
I0
sg6
I0
sg7
I0
sg8
I0
sg9
I0
ss(I1
I1
I2
I2
I0
tp1601
(dp1602
g5
I0
sg6
I0
sg7
I0
sg8
I0
sg9
I0
ss(I1
I2
I0
I2
I1
tp1603
(dp1604
g5
I0
sg6
I0
sg7
I0
sg8
I0
sg9
I0
ss(I2
I1
I1
I2
I1
tp1605
(dp1606
g5
I0
sg6
I0
sg7
I0
sg8
I0
sg9
I0
ss(I2
I0
I1
I2
I0
tp1607
(dp1608
g5
I0
sg6
I0
sg7
I0
sg8
I0
sg9
I0
ss(I2
I1
I0
I1
I1
tp1609
(dp1610
g5
I0
sg6
I0
sg7
I0
sg8
I0
sg9
I0
ss(I1
I2
I0
I1
I0
tp1611
(dp1612
g5
I0
sg6
I0
sg7
I0
sg8
I0
sg9
I0
ss(I2
I2
I2
I0
I1
tp1613
(dp1614
g5
I0
sg6
I0
sg7
I0
sg8
I0
sg9
I0
ss(I2
I1
I0
I2
I1
tp1615
(dp1616
g5
I0
sg6
I0
sg7
I0
sg8
I0
sg9
I0
ss(I0
I2
I1
I2
I0
tp1617
(dp1618
g5
I0
sg6
I0
sg7
I0
sg8
I0
sg9
I0
ss(I0
I0
I1
I1
I0
tp1619
(dp1620
g5
I0
sg6
I0
sg7
I0
sg8
I0
sg9
I0
ss(I2
I2
I0
I0
I0
tp1621
(dp1622
g5
I0
sg6
I0
sg7
I0
sg8
I0
sg9
I0
ss(I0
I2
I1
I0
I1
tp1623
(dp1624
g5
I0
sg6
I0
sg7
I0
sg8
I0
sg9
I0
ss(I2
I0
I0
I2
I0
tp1625
(dp1626
g5
I0
sg6
I0
sg7
I0
sg8
I0
sg9
I0
ss(I0
I0
I0
I1
I1
tp1627
(dp1628
g5
F19.24954190279229
sg6
F24.467015201156997
sg7
F-7.8745920573252945
sg8
I0
sg9
F21.505037360779056
ss(I0
I0
I1
I2
I0
tp1629
(dp1630
g5
I0
sg6
I0
sg7
I0
sg8
I0
sg9
I0
ss(I1
I0
I2
I0
I1
tp1631
(dp1632
g5
F9.293937683875829
sg6
F11.711708516523446
sg7
F-20.08959677028344
sg8
I0
sg9
F19.48586331029138
ssa(dp1633
(I0
I2
I0
I1
I0
tp1634
(dp1635
g5
I0
sg6
I0
sg7
I0
sg8
I0
sg9
I0
ss(I2
I0
I1
I1
I1
tp1636
(dp1637
g5
F975.6598024154755
sg6
F2849.3760284472564
sg7
I0
sg8
F1073.4110390998899
sg9
F1506.1012665548628
ss(I1
I2
I1
I2
I0
tp1638
(dp1639
g5
I0
sg6
I0
sg7
I0
sg8
I0
sg9
I0
ss(I2
I2
I2
I0
I0
tp1640
(dp1641
g5
I0
sg6
I0
sg7
I0
sg8
I0
sg9
I0
ss(I2
I0
I2
I0
I1
tp1642
(dp1643
g5
F227.0280029915959
sg6
F1283.920783708188
sg7
I0
sg8
F420.8703885058802
sg9
F1095.6934245867783
ss(I1
I0
I0
I2
I0
tp1644
(dp1645
g5
I0
sg6
I0
sg7
I0
sg8
I0
sg9
I0
ss(I2
I0
I0
I1
I1
tp1646
(dp1647
g5
F2380.403536785634
sg6
F3004.26945504397
sg7
I0
sg8
F2506.149532951383
sg9
F2202.0551260391903
ss(I2
I1
I1
I1
I0
tp1648
(dp1649
g5
I0
sg6
I0
sg7
I0
sg8
I0
sg9
I0
ss(I0
I2
I1
I2
I1
tp1650
(dp1651
g5
F402.59177060808395
sg6
I0
sg7
I0
sg8
F851.3181673150996
sg9
I0
ss(I2
I1
I1
I2
I0
tp1652
(dp1653
g5
I0
sg6
I0
sg7
I0
sg8
I0
sg9
I0
ss(I1
I0
I1
I1
I0
tp1654
(dp1655
g5
I0
sg6
I0
sg7
I0
sg8
I0
sg9
I0
ss(I2
I0
I1
I2
I1
tp1656
(dp1657
g5
F477.62281753867217
sg6
I0
sg7
I0
sg8
I0
sg9
I0
ss(I2
I2
I2
I1
I0
tp1658
(dp1659
g5
I0
sg6
I0
sg7
I0
sg8
I0
sg9
I0
ss(I2
I1
I0
I1
I0
tp1660
(dp1661
g5
I0
sg6
I0
sg7
I0
sg8
I0
sg9
I0
ss(I2
I2
I1
I0
I0
tp1662
(dp1663
g5
I0
sg6
I0
sg7
I0
sg8
I0
sg9
I0
ss(I0
I1
I2
I2
I0
tp1664
(dp1665
g5
I0
sg6
I0
sg7
I0
sg8
I0
sg9
I0
ss(I2
I2
I2
I2
I1
tp1666
(dp1667
g5
I0
sg6
I0
sg7
I0
sg8
I0
sg9
I0
ss(I1
I0
I2
I2
I1
tp1668
(dp1669
g5
F331.92216391575346
sg6
F767.2133154899649
sg7
I0
sg8
F21.780794943166487
sg9
I0
ss(I0
I2
I1
I1
I1
tp1670
(dp1671
g5
F2121.077617209757
sg6
F2353.502398912408
sg7
I0
sg8
F2325.0265764927326
sg9
F2290.0566963882156
ss(I2
I0
I0
I2
I1
tp1672
(dp1673
g5
F141.16797472292646
sg6
F1048.4881711841076
sg7
I0
sg8
F423.20764007780707
sg9
I0
ss(I2
I1
I1
I1
I1
tp1674
(dp1675
g5
F426.7846937831595
sg6
F977.5551898617352
sg7
I0
sg8
F629.8210933009942
sg9
F975.972730231371
ss(I1
I1
I0
I1
I0
tp1676
(dp1677
g5
I0
sg6
I0
sg7
I0
sg8
I0
sg9
I0
ss(I0
I2
I2
I0
I1
tp1678
(dp1679
g5
F1337.8566830759955
sg6
F568.5698773865804
sg7
I0
sg8
F718.2000839844513
sg9
F1461.1088619221875
ss(I2
I2
I1
I2
I1
tp1680
(dp1681
g5
I0
sg6
I0
sg7
I0
sg8
I0
sg9
I0
ss(I1
I0
I1
I2
I1
tp1682
(dp1683
g5
F2784.5596562147366
sg6
F1287.7740699229762
sg7
I0
sg8
F1601.8308378658285
sg9
F1303.4317300197
ss(I0
I2
I0
I1
I1
tp1684
(dp1685
g5
F2941.189852172377
sg6
F2920.23378824663
sg7
I0
sg8
F2960.0477162650704
sg9
F2920.048473810279
ss(I1
I1
I1
I2
I0
tp1686
(dp1687
g5
I0
sg6
I0
sg7
I0
sg8
I0
sg9
I0
ss(I1
I0
I0
I1
I1
tp1688
(dp1689
g5
F3199.664779047983
sg6
F3181.1387915098467
sg7
I0
sg8
F3159.752980706936
sg9
F3057.0097843415106
ss(I2
I0
I2
I0
I0
tp1690
(dp1691
g5
I0
sg6
I0
sg7
I0
sg8
I0
sg9
I0
ss(I0
I0
I2
I1
I0
tp1692
(dp1693
g5
I0
sg6
I0
sg7
I0
sg8
I0
sg9
I0
ss(I1
I0
I0
I2
I1
tp1694
(dp1695
g5
F2984.813080637251
sg6
F1960.3402658473271
sg7
I0
sg8
F2435.753956460288
sg9
F2394.8982486489895
ss(I2
I2
I0
I0
I1
tp1696
(dp1697
g5
F559.7364886743865
sg6
F288.19642015280454
sg7
I0
sg8
F1213.3519092510173
sg9
I0
ss(I1
I0
I1
I1
I1
tp1698
(dp1699
g5
F3104.9477089642614
sg6
F2746.4255425493056
sg7
I0
sg8
F2767.496164062585
sg9
F3033.8949290977425
ss(I2
I2
I2
I1
I1
tp1700
(dp1701
g5
I0
sg6
I0
sg7
I0
sg8
I0
sg9
I0
ss(I2
I2
I1
I0
I1
tp1702
(dp1703
g5
I0
sg6
F246.71160049063448
sg7
I0
sg8
F497.93720433975864
sg9
F187.98559757209344
ss(I0
I0
I2
I0
I1
tp1704
(dp1705
g5
F2861.7561806962285
sg6
F2866.943612008552
sg7
I0
sg8
F3020.506118813396
sg9
F3178.004172769335
ss(I1
I2
I2
I2
I1
tp1706
(dp1707
g5
I0
sg6
I0
sg7
I0
sg8
I0
sg9
I0
ss(I0
I1
I1
I0
I1
tp1708
(dp1709
g5
F3178.3356759512503
sg6
F3179.565991573977
sg7
I0
sg8
F3183.693439656108
sg9
F3180.707345249223
ss(I1
I2
I0
I0
I0
tp1710
(dp1711
g5
I0
sg6
I0
sg7
I0
sg8
I0
sg9
I0
ss(I0
I1
I2
I1
I1
tp1712
(dp1713
g5
F2208.748617899227
sg6
F2210.8792922752464
sg7
I0
sg8
F1690.779430248264
sg9
F1607.846311750115
ss(I1
I1
I1
I1
I1
tp1714
(dp1715
g5
F2823.3915634140353
sg6
F2818.8070039271024
sg7
I0
sg8
F2404.851840332038
sg9
F2837.8263828280938
ss(I0
I1
I2
I2
I1
tp1716
(dp1717
g5
I0
sg6
I0
sg7
I0
sg8
I0
sg9
F383.50808473626205
ss(I1
I0
I2
I2
I0
tp1718
(dp1719
g5
I0
sg6
I0
sg7
I0
sg8
I0
sg9
I0
ss(I1
I1
I0
I2
I1
tp1720
(dp1721
g5
F1456.9416448843704
sg6
F1641.1331714785479
sg7
I0
sg8
F1707.1163262442046
sg9
F2280.5777738799834
ss(I1
I1
I0
I1
I1
tp1722
(dp1723
g5
F3078.530154893327
sg6
F3059.074384235278
sg7
I0
sg8
F3099.9716982643527
sg9
F3088.5234764666616
ss(I2
I0
I2
I1
I1
tp1724
(dp1725
g5
F64.31139547822542
sg6
I0
sg7
I0
sg8
I0
sg9
F432.1782731043687
ss(I0
I2
I2
I0
I0
tp1726
(dp1727
g5
I0
sg6
I0
sg7
I0
sg8
I0
sg9
I0
ss(I1
I0
I1
I2
I0
tp1728
(dp1729
g5
I0
sg6
I0
sg7
I0
sg8
I0
sg9
I0
ss(I1
I1
I1
I2
I1
tp1730
(dp1731
g5
F1083.2615576684493
sg6
F771.9370031823117
sg7
I0
sg8
F1452.9961903339038
sg9
F1466.4741382984678
ss(I2
I0
I0
I1
I0
tp1732
(dp1733
g5
I0
sg6
I0
sg7
I0
sg8
I0
sg9
I0
ss(I0
I0
I2
I2
I1
tp1734
(dp1735
g5
F1434.3918360605198
sg6
F1190.3597356249263
sg7
I0
sg8
F628.9108099990588
sg9
F340.1370755018643
ss(I1
I0
I0
I1
I0
tp1736
(dp1737
g5
I0
sg6
I0
sg7
I0
sg8
I0
sg9
I0
ss(I0
I0
I2
I1
I1
tp1738
(dp1739
g5
F2473.0600665202883
sg6
F2237.6478884224266
sg7
I0
sg8
F2479.581207135133
sg9
F3022.8707919454637
ss(I1
I1
I0
I0
I0
tp1740
(dp1741
g5
I0
sg6
I0
sg7
I0
sg8
I0
sg9
I0
ss(I2
I1
I2
I0
I0
tp1742
(dp1743
g5
I0
sg6
I0
sg7
I0
sg8
I0
sg9
I0
ss(I2
I2
I2
I2
I0
tp1744
(dp1745
g5
I0
sg6
I0
sg7
I0
sg8
I0
sg9
I0
ss(I1
I2
I2
I0
I1
tp1746
(dp1747
g5
I0
sg6
I0
sg7
I0
sg8
I0
sg9
F500.17805871080924
ss(I0
I0
I1
I0
I0
tp1748
(dp1749
g5
I0
sg6
I0
sg7
I0
sg8
I0
sg9
I0
ss(I1
I2
I1
I0
I1
tp1750
(dp1751
g5
F2291.927425217006
sg6
F2330.911815910411
sg7
I0
sg8
F2603.9619245138074
sg9
F1840.2050383274432
ss(I0
I1
I1
I0
I0
tp1752
(dp1753
g5
I0
sg6
I0
sg7
I0
sg8
I0
sg9
I0
ss(I1
I2
I2
I1
I1
tp1754
(dp1755
g5
I0
sg6
I0
sg7
I0
sg8
I0
sg9
I0
ss(I2
I1
I1
I0
I0
tp1756
(dp1757
g5
I0
sg6
I0
sg7
I0
sg8
I0
sg9
I0
ss(I1
I2
I0
I0
I1
tp1758
(dp1759
g5
F2987.379338861066
sg6
F3025.7193078199034
sg7
I0
sg8
F2943.851595029895
sg9
F2943.85955662023
ss(I1
I2
I2
I2
I0
tp1760
(dp1761
g5
I0
sg6
I0
sg7
I0
sg8
I0
sg9
I0
ss(I0
I1
I2
I1
I0
tp1762
(dp1763
g5
I0
sg6
I0
sg7
I0
sg8
I0
sg9
I0
ss(I2
I0
I1
I0
I0
tp1764
(dp1765
g5
I0
sg6
I0
sg7
I0
sg8
I0
sg9
I0
ss(I1
I1
I1
I1
I0
tp1766
(dp1767
g5
I0
sg6
I0
sg7
I0
sg8
I0
sg9
I0
ss(I2
I1
I2
I2
I0
tp1768
(dp1769
g5
I0
sg6
I0
sg7
I0
sg8
I0
sg9
I0
ss(I2
I1
I2
I1
I1
tp1770
(dp1771
g5
I0
sg6
I0
sg7
I0
sg8
F314.9442003288594
sg9
I0
ss(I2
I0
I2
I1
I0
tp1772
(dp1773
g5
I0
sg6
I0
sg7
I0
sg8
I0
sg9
I0
ss(I1
I1
I0
I2
I0
tp1774
(dp1775
g5
I0
sg6
I0
sg7
I0
sg8
I0
sg9
I0
ss(I2
I1
I2
I0
I1
tp1776
(dp1777
g5
I0
sg6
F163.4617423749702
sg7
I0
sg8
I0
sg9
I0
ss(I2
I1
I1
I0
I1
tp1778
(dp1779
g5
F1921.270367447765
sg6
F1789.1407421843778
sg7
I0
sg8
F1599.405021735584
sg9
F1786.2035753398027
ss(I1
I1
I2
I0
I0
tp1780
(dp1781
g5
I0
sg6
I0
sg7
I0
sg8
I0
sg9
I0
ss(I0
I0
I1
I0
I1
tp1782
(dp1783
g5
F3202.745827194231
sg6
F3200.919055802623
sg7
I0
sg8
F3192.014579377709
sg9
F3214.855947030161
ss(I0
I0
I2
I2
I0
tp1784
(dp1785
g5
I0
sg6
I0
sg7
I0
sg8
I0
sg9
I0
ss(I1
I1
I0
I0
I1
tp1786
(dp1787
g5
F3173.714390682554
sg6
F3184.5591698459702
sg7
I0
sg8
F3190.65697807952
sg9
F3176.9514260951673
ss(I0
I1
I0
I0
I1
tp1788
(dp1789
g5
F3202.854979394691
sg6
F3207.094388430056
sg7
I0
sg8
F3212.031372801399
sg9
F3205.462562471211
ss(I1
I2
I2
I0
I0
tp1790
(dp1791
g5
I0
sg6
I0
sg7
I0
sg8
I0
sg9
I0
ss(I2
I1
I0
I0
I0
tp1792
(dp1793
g5
I0
sg6
I0
sg7
I0
sg8
I0
sg9
I0
ss(I2
I1
I2
I2
I1
tp1794
(dp1795
g5
I0
sg6
I0
sg7
I0
sg8
I0
sg9
I0
ss(I1
I2
I1
I0
I0
tp1796
(dp1797
g5
I0
sg6
I0
sg7
I0
sg8
I0
sg9
I0
ss(I2
I0
I0
I0
I1
tp1798
(dp1799
g5
F2785.0450466040074
sg6
F3183.5797606834994
sg7
I0
sg8
F2976.504669562413
sg9
F2931.1249744542847
ss(I1
I2
I2
I1
I0
tp1800
(dp1801
g5
I0
sg6
I0
sg7
I0
sg8
I0
sg9
I0
ss(I0
I2
I2
I1
I0
tp1802
(dp1803
g5
I0
sg6
I0
sg7
I0
sg8
I0
sg9
I0
ss(I2
I0
I1
I0
I1
tp1804
(dp1805
g5
F2251.678962753185
sg6
F2971.6337096311454
sg7
I0
sg8
F2325.3768164902167
sg9
F2332.884020826609
ss(I2
I1
I2
I1
I0
tp1806
(dp1807
g5
I0
sg6
I0
sg7
I0
sg8
I0
sg9
I0
ss(I1
I0
I0
I0
I0
tp1808
(dp1809
g5
I0
sg6
I0
sg7
I0
sg8
I0
sg9
I0
ss(I0
I0
I0
I2
I0
tp1810
(dp1811
g5
I0
sg6
I0
sg7
I0
sg8
I0
sg9
I0
ss(I2
I2
I1
I2
I0
tp1812
(dp1813
g5
I0
sg6
I0
sg7
I0
sg8
I0
sg9
I0
ss(I0
I2
I1
I1
I0
tp1814
(dp1815
g5
I0
sg6
I0
sg7
I0
sg8
I0
sg9
I0
ss(I2
I2
I0
I1
I0
tp1816
(dp1817
g5
I0
sg6
I0
sg7
I0
sg8
I0
sg9
I0
ss(I1
I1
I2
I0
I1
tp1818
(dp1819
g5
F1906.2864542454965
sg6
F2141.5393453856286
sg7
I0
sg8
F1877.1057675226627
sg9
F2494.928172664664
ss(I2
I1
I0
I0
I1
tp1820
(dp1821
g5
F2501.06161789879
sg6
F2761.305276137663
sg7
I0
sg8
F2660.4004197785407
sg9
F2767.8243586140143
ss(I0
I1
I0
I2
I1
tp1822
(dp1823
g5
F3065.4918437968363
sg6
F2746.575731721575
sg7
I0
sg8
F2997.5618552789356
sg9
F2751.0271932853775
ss(I0
I1
I1
I1
I0
tp1824
(dp1825
g5
I0
sg6
I0
sg7
I0
sg8
I0
sg9
I0
ss(I0
I1
I0
I0
I0
tp1826
(dp1827
g5
I0
sg6
I0
sg7
I0
sg8
I0
sg9
I0
ss(I0
I2
I0
I0
I1
tp1828
(dp1829
g5
F3164.967016578852
sg6
F3161.028267923849
sg7
I0
sg8
F3178.0747040453234
sg9
F3133.1587535338795
ss(I0
I1
I2
I0
I0
tp1830
(dp1831
g5
I0
sg6
I0
sg7
I0
sg8
I0
sg9
I0
ss(I1
I1
I1
I0
I0
tp1832
(dp1833
g5
I0
sg6
I0
sg7
I0
sg8
I0
sg9
I0
ss(I1
I0
I2
I1
I1
tp1834
(dp1835
g5
F1512.0192032901687
sg6
F1492.1593118991418
sg7
I0
sg8
F1757.517844087406
sg9
F2452.170649815653
ss(I2
I0
I0
I0
I0
tp1836
(dp1837
g5
I0
sg6
I0
sg7
I0
sg8
I0
sg9
I0
ss(I1
I1
I2
I1
I0
tp1838
(dp1839
g5
I0
sg6
I0
sg7
I0
sg8
I0
sg9
I0
ss(I1
I0
I2
I0
I0
tp1840
(dp1841
g5
I0
sg6
I0
sg7
I0
sg8
I0
sg9
I0
ss(I1
I0
I1
I0
I1
tp1842
(dp1843
g5
F3009.1139904930205
sg6
F3199.989412802719
sg7
I0
sg8
F3012.664815985231
sg9
F3127.0158773243156
ss(I0
I2
I2
I1
I1
tp1844
(dp1845
g5
I0
sg6
F69.18604858861089
sg7
I0
sg8
F403.5483292496033
sg9
F192.17488786617778
ss(I2
I2
I0
I2
I1
tp1846
(dp1847
g5
I0
sg6
I0
sg7
I0
sg8
I0
sg9
I0
ss(I0
I2
I0
I2
I0
tp1848
(dp1849
g5
I0
sg6
I0
sg7
I0
sg8
I0
sg9
I0
ss(I2
I2
I1
I1
I1
tp1850
(dp1851
g5
I0
sg6
I0
sg7
I0
sg8
I0
sg9
I0
ss(I1
I0
I0
I0
I1
tp1852
(dp1853
g5
F3196.7926681707463
sg6
F3214.0859360085014
sg7
I0
sg8
F3183.1421777854903
sg9
F3195.6572043772017
ss(I2
I1
I0
I2
I0
tp1854
(dp1855
g5
I0
sg6
I0
sg7
I0
sg8
I0
sg9
I0
ss(I0
I2
I2
I2
I0
tp1856
(dp1857
g5
I0
sg6
I0
sg7
I0
sg8
I0
sg9
I0
ss(I0
I2
I2
I2
I1
tp1858
(dp1859
g5
I0
sg6
I0
sg7
I0
sg8
I0
sg9
I0
ss(I2
I2
I0
I1
I1
tp1860
(dp1861
g5
I0
sg6
I0
sg7
I0
sg8
I0
sg9
F1.9830115154752237
ss(I2
I0
I2
I2
I1
tp1862
(dp1863
g5
I0
sg6
I0
sg7
I0
sg8
I0
sg9
F343.22927662145696
ss(I0
I1
I0
I1
I1
tp1864
(dp1865
g5
F3199.006295253416
sg6
F3161.3033681125003
sg7
I0
sg8
F3168.422028228746
sg9
F3194.599744149905
ss(I1
I2
I1
I1
I0
tp1866
(dp1867
g5
I0
sg6
I0
sg7
I0
sg8
I0
sg9
I0
ss(I0
I1
I0
I2
I0
tp1868
(dp1869
g5
I0
sg6
I0
sg7
I0
sg8
I0
sg9
I0
ss(I0
I1
I1
I2
I1
tp1870
(dp1871
g5
F1921.1009290877812
sg6
F2277.1511819904163
sg7
I0
sg8
F2517.6717999479115
sg9
F1389.2830783654697
ss(I1
I1
I2
I2
I1
tp1872
(dp1873
g5
I0
sg6
I0
sg7
I0
sg8
I0
sg9
I0
ss(I0
I1
I1
I1
I1
tp1874
(dp1875
g5
F3109.473811468098
sg6
F2985.8917430081096
sg7
I0
sg8
F3041.194950432063
sg9
F3101.061935508393
ss(I1
I2
I0
I2
I0
tp1876
(dp1877
g5
I0
sg6
I0
sg7
I0
sg8
I0
sg9
I0
ss(I0
I0
I2
I0
I0
tp1878
(dp1879
g5
I0
sg6
I0
sg7
I0
sg8
I0
sg9
I0
ss(I0
I2
I0
I0
I0
tp1880
(dp1881
g5
I0
sg6
I0
sg7
I0
sg8
I0
sg9
I0
ss(I0
I1
I2
I0
I1
tp1882
(dp1883
g5
F2625.9335521535795
sg6
F3027.0986957238715
sg7
I0
sg8
F2716.3071985221814
sg9
F2937.8255629392183
ss(I1
I1
I1
I0
I1
tp1884
(dp1885
g5
F2988.01100938392
sg6
F3019.0868140253374
sg7
I0
sg8
F3123.1589425346924
sg9
F3073.134917698622
ss(I0
I0
I0
I2
I1
tp1886
(dp1887
g5
F3203.9390624787075
sg6
F2853.1366971658167
sg7
I0
sg8
F2870.0961751351065
sg9
F2883.1002994104406
ss(I1
I0
I2
I1
I0
tp1888
(dp1889
g5
I0
sg6
I0
sg7
I0
sg8
I0
sg9
I0
ss(I1
I1
I2
I1
I1
tp1890
(dp1891
g5
F1336.084120273748
sg6
F1022.4919748256705
sg7
I0
sg8
F580.4763368358718
sg9
F1084.1499903438703
ss(I0
I0
I1
I1
I1
tp1892
(dp1893
g5
F3189.130276452468
sg6
F3155.301602114968
sg7
I0
sg8
F3114.9459474689347
sg9
F3210.173224898471
ss(I1
I0
I1
I0
I0
tp1894
(dp1895
g5
I0
sg6
I0
sg7
I0
sg8
I0
sg9
I0
ss(I0
I0
I1
I2
I1
tp1896
(dp1897
g5
F3095.1895982199976
sg6
F2627.2653239919696
sg7
I0
sg8
F2900.7047239474077
sg9
F2614.521683124841
ss(I2
I0
I2
I2
I0
tp1898
(dp1899
g5
I0
sg6
I0
sg7
I0
sg8
I0
sg9
I0
ss(I0
I2
I0
I2
I1
tp1900
(dp1901
g5
F1127.742203910737
sg6
F458.7449354620379
sg7
I0
sg8
F1308.7433640891322
sg9
F1023.7437303195136
ss(I0
I0
I0
I0
I1
tp1902
(dp1903
g5
F3210.1784220933437
sg6
F3210.9956215709403
sg7
I0
sg8
F3206.6197074318243
sg9
F3211.0411644860833
ss(I2
I2
I1
I1
I0
tp1904
(dp1905
g5
I0
sg6
I0
sg7
I0
sg8
I0
sg9
I0
ss(I0
I0
I0
I0
I0
tp1906
(dp1907
g5
I0
sg6
I0
sg7
I0
sg8
I0
sg9
I0
ss(I2
I2
I0
I2
I0
tp1908
(dp1909
g5
I0
sg6
I0
sg7
I0
sg8
I0
sg9
I0
ss(I1
I2
I0
I1
I1
tp1910
(dp1911
g5
F1376.0158743233842
sg6
F1661.8981685266613
sg7
I0
sg8
F1830.238954296281
sg9
F2425.7764193623743
ss(I2
I0
I1
I1
I0
tp1912
(dp1913
g5
I0
sg6
I0
sg7
I0
sg8
I0
sg9
I0
ss(I0
I1
I0
I1
I0
tp1914
(dp1915
g5
I0
sg6
I0
sg7
I0
sg8
I0
sg9
I0
ss(I1
I2
I1
I2
I1
tp1916
(dp1917
g5
I0
sg6
I0
sg7
I0
sg8
I0
sg9
I0
ss(I1
I2
I1
I1
I1
tp1918
(dp1919
g5
F848.3837531362892
sg6
F650.2330785824173
sg7
I0
sg8
F916.9775797463748
sg9
F555.8499673064678
ss(I0
I2
I1
I0
I0
tp1920
(dp1921
g5
I0
sg6
I0
sg7
I0
sg8
I0
sg9
I0
ss(I0
I1
I1
I2
I0
tp1922
(dp1923
g5
I0
sg6
I0
sg7
I0
sg8
I0
sg9
I0
ss(I0
I0
I0
I1
I0
tp1924
(dp1925
g5
I0
sg6
I0
sg7
I0
sg8
I0
sg9
I0
ss(I1
I1
I2
I2
I0
tp1926
(dp1927
g5
I0
sg6
I0
sg7
I0
sg8
I0
sg9
I0
ss(I1
I2
I0
I2
I1
tp1928
(dp1929
g5
I0
sg6
F740.9483648099022
sg7
I0
sg8
F550.2628073435076
sg9
F120.86532148559243
ss(I2
I1
I1
I2
I1
tp1930
(dp1931
g5
I0
sg6
I0
sg7
I0
sg8
I0
sg9
I0
ss(I2
I0
I1
I2
I0
tp1932
(dp1933
g5
I0
sg6
I0
sg7
I0
sg8
I0
sg9
I0
ss(I2
I1
I0
I1
I1
tp1934
(dp1935
g5
F1808.847346495314
sg6
F2264.5504616655694
sg7
I0
sg8
F2136.606973739539
sg9
F1841.2917655885594
ss(I1
I2
I0
I1
I0
tp1936
(dp1937
g5
I0
sg6
I0
sg7
I0
sg8
I0
sg9
I0
ss(I2
I2
I2
I0
I1
tp1938
(dp1939
g5
I0
sg6
I0
sg7
I0
sg8
I0
sg9
I0
ss(I2
I1
I0
I2
I1
tp1940
(dp1941
g5
I0
sg6
F534.2435303582973
sg7
I0
sg8
F164.14060330159515
sg9
F412.5049479105866
ss(I0
I2
I1
I2
I0
tp1942
(dp1943
g5
I0
sg6
I0
sg7
I0
sg8
I0
sg9
I0
ss(I0
I0
I1
I1
I0
tp1944
(dp1945
g5
I0
sg6
I0
sg7
I0
sg8
I0
sg9
I0
ss(I2
I2
I0
I0
I0
tp1946
(dp1947
g5
I0
sg6
I0
sg7
I0
sg8
I0
sg9
I0
ss(I0
I2
I1
I0
I1
tp1948
(dp1949
g5
F2851.319251035849
sg6
F2978.6577507960806
sg7
I0
sg8
F2965.26645156584
sg9
F2980.4887572927837
ss(I2
I0
I0
I2
I0
tp1950
(dp1951
g5
I0
sg6
I0
sg7
I0
sg8
I0
sg9
I0
ss(I0
I0
I0
I1
I1
tp1952
(dp1953
g5
F3212.6128114207595
sg6
F3202.941065686624
sg7
I0
sg8
F3186.0009304748082
sg9
F3202.2021427457803
ss(I0
I0
I1
I2
I0
tp1954
(dp1955
g5
I0
sg6
I0
sg7
I0
sg8
I0
sg9
I0
ss(I1
I0
I2
I0
I1
tp1956
(dp1957
g5
F2036.7571265330164
sg6
F2493.2887792470638
sg7
I0
sg8
F2348.3581975057414
sg9
F3086.1681937905
ssaa(lp1958
(dp1959
(I0
I2
I0
I1
I0
tp1960
(dp1961
g5
I0
sg6
I0
sg7
I0
sg8
I0
sg9
I0
ss(I2
I0
I1
I1
I1
tp1962
(dp1963
g5
I0
sg6
I0
sg7
I0
sg8
I0
sg9
I0
ss(I1
I2
I1
I2
I0
tp1964
(dp1965
g5
I0
sg6
I0
sg7
I0
sg8
I0
sg9
I0
ss(I2
I2
I2
I0
I0
tp1966
(dp1967
g5
I0
sg6
I0
sg7
I0
sg8
I0
sg9
I0
ss(I2
I0
I2
I0
I1
tp1968
(dp1969
g5
I0
sg6
I0
sg7
I0
sg8
I0
sg9
I0
ss(I1
I0
I0
I2
I0
tp1970
(dp1971
g5
I0
sg6
I0
sg7
I0
sg8
I0
sg9
I0
ss(I2
I0
I0
I1
I1
tp1972
(dp1973
g5
F17.165816752781858
sg6
F30.973970120515283
sg7
F-18.233047751457374
sg8
F14.5114977230776
sg9
I0
ss(I2
I1
I1
I1
I0
tp1974
(dp1975
g5
I0
sg6
I0
sg7
I0
sg8
I0
sg9
I0
ss(I0
I2
I1
I2
I1
tp1976
(dp1977
g5
I0
sg6
I0
sg7
I0
sg8
I0
sg9
I0
ss(I2
I1
I1
I2
I0
tp1978
(dp1979
g5
I0
sg6
I0
sg7
I0
sg8
I0
sg9
I0
ss(I1
I0
I1
I1
I0
tp1980
(dp1981
g5
I0
sg6
I0
sg7
I0
sg8
I0
sg9
I0
ss(I2
I0
I1
I2
I1
tp1982
(dp1983
g5
I0
sg6
I0
sg7
I0
sg8
I0
sg9
I0
ss(I2
I2
I2
I1
I0
tp1984
(dp1985
g5
I0
sg6
I0
sg7
I0
sg8
I0
sg9
I0
ss(I2
I1
I0
I1
I0
tp1986
(dp1987
g5
I0
sg6
I0
sg7
I0
sg8
I0
sg9
I0
ss(I2
I2
I1
I0
I0
tp1988
(dp1989
g5
I0
sg6
I0
sg7
I0
sg8
I0
sg9
I0
ss(I0
I1
I2
I2
I0
tp1990
(dp1991
g5
I0
sg6
I0
sg7
I0
sg8
I0
sg9
I0
ss(I2
I2
I2
I2
I1
tp1992
(dp1993
g5
I0
sg6
I0
sg7
I0
sg8
I0
sg9
I0
ss(I1
I0
I2
I2
I1
tp1994
(dp1995
g5
I0
sg6
I0
sg7
I0
sg8
I0
sg9
I0
ss(I0
I2
I1
I1
I1
tp1996
(dp1997
g5
I0
sg6
I0
sg7
I0
sg8
I0
sg9
I0
ss(I2
I0
I0
I2
I1
tp1998
(dp1999
g5
F9.817665882108033
sg6
F13.964386975776767
sg7
F-5.499603143832494
sg8
F4.1741333575440756
sg9
I0
ss(I2
I1
I1
I1
I1
tp2000
(dp2001
g5
I0
sg6
I0
sg7
I0
sg8
I0
sg9
I0
ss(I1
I1
I0
I1
I0
tp2002
(dp2003
g5
I0
sg6
I0
sg7
I0
sg8
I0
sg9
I0
ss(I0
I2
I2
I0
I1
tp2004
(dp2005
g5
I0
sg6
I0
sg7
I0
sg8
I0
sg9
I0
ss(I2
I2
I1
I2
I1
tp2006
(dp2007
g5
I0
sg6
I0
sg7
I0
sg8
I0
sg9
I0
ss(I1
I0
I1
I2
I1
tp2008
(dp2009
g5
I0
sg6
I0
sg7
I0
sg8
I0
sg9
I0
ss(I0
I2
I0
I1
I1
tp2010
(dp2011
g5
F9.749921804156823
sg6
F19.101045488130527
sg7
F-22.72945382905945
sg8
F22.789003293602303
sg9
I0
ss(I1
I1
I1
I2
I0
tp2012
(dp2013
g5
I0
sg6
I0
sg7
I0
sg8
I0
sg9
I0
ss(I1
I0
I0
I1
I1
tp2014
(dp2015
g5
F21.11427499201119
sg6
F27.307105475706855
sg7
F-12.467320612145402
sg8
F20.49410221319976
sg9
I0
ss(I2
I0
I2
I0
I0
tp2016
(dp2017
g5
I0
sg6
I0
sg7
I0
sg8
I0
sg9
I0
ss(I0
I0
I2
I1
I0
tp2018
(dp2019
g5
I0
sg6
I0
sg7
I0
sg8
I0
sg9
I0
ss(I1
I0
I0
I2
I1
tp2020
(dp2021
g5
F24.768332290782837
sg6
F12.449195586879728
sg7
F-22.367765544653007
sg8
F5.906186852112761
sg9
I0
ss(I2
I2
I0
I0
I1
tp2022
(dp2023
g5
F3.6064149752626258
sg6
F3.969491487788273
sg7
F-16.043473911846597
sg8
F8.87279981233953
sg9
I0
ss(I1
I0
I1
I1
I1
tp2024
(dp2025
g5
I0
sg6
I0
sg7
I0
sg8
I0
sg9
I0
ss(I2
I2
I2
I1
I1
tp2026
(dp2027
g5
I0
sg6
I0
sg7
I0
sg8
I0
sg9
I0
ss(I2
I2
I1
I0
I1
tp2028
(dp2029
g5
I0
sg6
I0
sg7
I0
sg8
I0
sg9
I0
ss(I0
I0
I2
I0
I1
tp2030
(dp2031
g5
I0
sg6
I0
sg7
I0
sg8
I0
sg9
I0
ss(I1
I2
I2
I2
I1
tp2032
(dp2033
g5
I0
sg6
I0
sg7
I0
sg8
I0
sg9
I0
ss(I0
I1
I1
I0
I1
tp2034
(dp2035
g5
I0
sg6
I0
sg7
I0
sg8
I0
sg9
I0
ss(I1
I2
I0
I0
I0
tp2036
(dp2037
g5
I0
sg6
I0
sg7
I0
sg8
I0
sg9
I0
ss(I0
I1
I2
I1
I1
tp2038
(dp2039
g5
I0
sg6
I0
sg7
I0
sg8
I0
sg9
I0
ss(I1
I1
I1
I1
I1
tp2040
(dp2041
g5
I0
sg6
I0
sg7
I0
sg8
I0
sg9
I0
ss(I0
I1
I2
I2
I1
tp2042
(dp2043
g5
I0
sg6
I0
sg7
I0
sg8
I0
sg9
I0
ss(I1
I0
I2
I2
I0
tp2044
(dp2045
g5
I0
sg6
I0
sg7
I0
sg8
I0
sg9
I0
ss(I1
I1
I0
I2
I1
tp2046
(dp2047
g5
F17.278933836432078
sg6
F15.302701035887846
sg7
F-23.773992545727218
sg8
F14.41227332294415
sg9
I0
ss(I1
I1
I0
I1
I1
tp2048
(dp2049
g5
F17.55314419166121
sg6
F21.54393444347399
sg7
F-9.201621974942258
sg8
F16.634049944746884
sg9
I0
ss(I2
I0
I2
I1
I1
tp2050
(dp2051
g5
I0
sg6
I0
sg7
I0
sg8
I0
sg9
I0
ss(I0
I2
I2
I0
I0
tp2052
(dp2053
g5
I0
sg6
I0
sg7
I0
sg8
I0
sg9
I0
ss(I1
I0
I1
I2
I0
tp2054
(dp2055
g5
I0
sg6
I0
sg7
I0
sg8
I0
sg9
I0
ss(I1
I1
I1
I2
I1
tp2056
(dp2057
g5
I0
sg6
I0
sg7
I0
sg8
I0
sg9
I0
ss(I2
I0
I0
I1
I0
tp2058
(dp2059
g5
I0
sg6
I0
sg7
I0
sg8
I0
sg9
I0
ss(I0
I0
I2
I2
I1
tp2060
(dp2061
g5
I0
sg6
I0
sg7
I0
sg8
I0
sg9
I0
ss(I1
I0
I0
I1
I0
tp2062
(dp2063
g5
I0
sg6
I0
sg7
I0
sg8
I0
sg9
I0
ss(I0
I0
I2
I1
I1
tp2064
(dp2065
g5
I0
sg6
I0
sg7
I0
sg8
I0
sg9
I0
ss(I1
I1
I0
I0
I0
tp2066
(dp2067
g5
I0
sg6
I0
sg7
I0
sg8
I0
sg9
I0
ss(I2
I1
I2
I0
I0
tp2068
(dp2069
g5
I0
sg6
I0
sg7
I0
sg8
I0
sg9
I0
ss(I2
I2
I2
I2
I0
tp2070
(dp2071
g5
I0
sg6
I0
sg7
I0
sg8
I0
sg9
I0
ss(I1
I2
I2
I0
I1
tp2072
(dp2073
g5
I0
sg6
I0
sg7
I0
sg8
I0
sg9
I0
ss(I0
I0
I1
I0
I0
tp2074
(dp2075
g5
I0
sg6
I0
sg7
I0
sg8
I0
sg9
I0
ss(I1
I2
I1
I0
I1
tp2076
(dp2077
g5
I0
sg6
I0
sg7
I0
sg8
I0
sg9
I0
ss(I0
I1
I1
I0
I0
tp2078
(dp2079
g5
I0
sg6
I0
sg7
I0
sg8
I0
sg9
I0
ss(I1
I2
I2
I1
I1
tp2080
(dp2081
g5
I0
sg6
I0
sg7
I0
sg8
I0
sg9
I0
ss(I2
I1
I1
I0
I0
tp2082
(dp2083
g5
I0
sg6
I0
sg7
I0
sg8
I0
sg9
I0
ss(I1
I2
I0
I0
I1
tp2084
(dp2085
g5
F15.854793918973183
sg6
F19.958256387221613
sg7
F-18.221325965912897
sg8
F22.80546699055806
sg9
I0
ss(I1
I2
I2
I2
I0
tp2086
(dp2087
g5
I0
sg6
I0
sg7
I0
sg8
I0
sg9
I0
ss(I0
I1
I2
I1
I0
tp2088
(dp2089
g5
I0
sg6
I0
sg7
I0
sg8
I0
sg9
I0
ss(I2
I0
I1
I0
I0
tp2090
(dp2091
g5
I0
sg6
I0
sg7
I0
sg8
I0
sg9
I0
ss(I1
I1
I1
I1
I0
tp2092
(dp2093
g5
I0
sg6
I0
sg7
I0
sg8
I0
sg9
I0
ss(I2
I1
I2
I2
I0
tp2094
(dp2095
g5
I0
sg6
I0
sg7
I0
sg8
I0
sg9
I0
ss(I2
I1
I2
I1
I1
tp2096
(dp2097
g5
I0
sg6
I0
sg7
I0
sg8
I0
sg9
I0
ss(I2
I0
I2
I1
I0
tp2098
(dp2099
g5
I0
sg6
I0
sg7
I0
sg8
I0
sg9
I0
ss(I1
I1
I0
I2
I0
tp2100
(dp2101
g5
I0
sg6
I0
sg7
I0
sg8
I0
sg9
I0
ss(I2
I1
I2
I0
I1
tp2102
(dp2103
g5
I0
sg6
I0
sg7
I0
sg8
I0
sg9
I0
ss(I2
I1
I1
I0
I1
tp2104
(dp2105
g5
I0
sg6
I0
sg7
I0
sg8
I0
sg9
I0
ss(I1
I1
I2
I0
I0
tp2106
(dp2107
g5
I0
sg6
I0
sg7
I0
sg8
I0
sg9
I0
ss(I0
I0
I1
I0
I1
tp2108
(dp2109
g5
I0
sg6
I0
sg7
I0
sg8
I0
sg9
I0
ss(I0
I0
I2
I2
I0
tp2110
(dp2111
g5
I0
sg6
I0
sg7
I0
sg8
I0
sg9
I0
ss(I1
I1
I0
I0
I1
tp2112
(dp2113
g5
F21.76110776510739
sg6
F32.407418890264175
sg7
F-6.491291504226368
sg8
F19.704573458110875
sg9
I0
ss(I0
I1
I0
I0
I1
tp2114
(dp2115
g5
F20.279216528378825
sg6
F13.548099867563378
sg7
F-16.162757001128274
sg8
F27.82443994565913
sg9
I0
ss(I1
I2
I2
I0
I0
tp2116
(dp2117
g5
I0
sg6
I0
sg7
I0
sg8
I0
sg9
I0
ss(I2
I1
I0
I0
I0
tp2118
(dp2119
g5
I0
sg6
I0
sg7
I0
sg8
I0
sg9
I0
ss(I2
I1
I2
I2
I1
tp2120
(dp2121
g5
I0
sg6
I0
sg7
I0
sg8
I0
sg9
I0
ss(I1
I2
I1
I0
I0
tp2122
(dp2123
g5
I0
sg6
I0
sg7
I0
sg8
I0
sg9
I0
ss(I2
I0
I0
I0
I1
tp2124
(dp2125
g5
F18.120829343389758
sg6
F26.851016996826317
sg7
F-11.06514758210881
sg8
F18.61033397684299
sg9
I0
ss(I1
I2
I2
I1
I0
tp2126
(dp2127
g5
I0
sg6
I0
sg7
I0
sg8
I0
sg9
I0
ss(I0
I2
I2
I1
I0
tp2128
(dp2129
g5
I0
sg6
I0
sg7
I0
sg8
I0
sg9
I0
ss(I2
I0
I1
I0
I1
tp2130
(dp2131
g5
I0
sg6
I0
sg7
I0
sg8
I0
sg9
I0
ss(I2
I1
I2
I1
I0
tp2132
(dp2133
g5
I0
sg6
I0
sg7
I0
sg8
I0
sg9
I0
ss(I1
I0
I0
I0
I0
tp2134
(dp2135
g5
I0
sg6
I0
sg7
I0
sg8
I0
sg9
I0
ss(I0
I0
I0
I2
I0
tp2136
(dp2137
g5
I0
sg6
I0
sg7
I0
sg8
I0
sg9
I0
ss(I2
I2
I1
I2
I0
tp2138
(dp2139
g5
I0
sg6
I0
sg7
I0
sg8
I0
sg9
I0
ss(I0
I2
I1
I1
I0
tp2140
(dp2141
g5
I0
sg6
I0
sg7
I0
sg8
I0
sg9
I0
ss(I2
I2
I0
I1
I0
tp2142
(dp2143
g5
I0
sg6
I0
sg7
I0
sg8
I0
sg9
I0
ss(I1
I1
I2
I0
I1
tp2144
(dp2145
g5
I0
sg6
I0
sg7
I0
sg8
I0
sg9
I0
ss(I2
I1
I0
I0
I1
tp2146
(dp2147
g5
F14.416305395754698
sg6
F25.814034227217824
sg7
F-27.075481172910884
sg8
F12.302642714883481
sg9
I0
ss(I0
I1
I0
I2
I1
tp2148
(dp2149
g5
F22.576843915060778
sg6
F12.245748897523393
sg7
F-18.774203122911935
sg8
F13.94047825333718
sg9
I0
ss(I0
I1
I1
I1
I0
tp2150
(dp2151
g5
I0
sg6
I0
sg7
I0
sg8
I0
sg9
I0
ss(I0
I1
I0
I0
I0
tp2152
(dp2153
g5
I0
sg6
I0
sg7
I0
sg8
I0
sg9
I0
ss(I0
I2
I0
I0
I1
tp2154
(dp2155
g5
F26.830274706571256
sg6
F12.631625667471873
sg7
F-17.034882928387372
sg8
F28.90146790125134
sg9
I0
ss(I0
I1
I2
I0
I0
tp2156
(dp2157
g5
I0
sg6
I0
sg7
I0
sg8
I0
sg9
I0
ss(I1
I1
I1
I0
I0
tp2158
(dp2159
g5
I0
sg6
I0
sg7
I0
sg8
I0
sg9
I0
ss(I1
I0
I2
I1
I1
tp2160
(dp2161
g5
I0
sg6
I0
sg7
I0
sg8
I0
sg9
I0
ss(I2
I0
I0
I0
I0
tp2162
(dp2163
g5
I0
sg6
I0
sg7
I0
sg8
I0
sg9
I0
ss(I1
I1
I2
I1
I0
tp2164
(dp2165
g5
I0
sg6
I0
sg7
I0
sg8
I0
sg9
I0
ss(I1
I0
I2
I0
I0
tp2166
(dp2167
g5
I0
sg6
I0
sg7
I0
sg8
I0
sg9
I0
ss(I1
I0
I1
I0
I1
tp2168
(dp2169
g5
I0
sg6
I0
sg7
I0
sg8
I0
sg9
I0
ss(I0
I2
I2
I1
I1
tp2170
(dp2171
g5
I0
sg6
I0
sg7
I0
sg8
I0
sg9
I0
ss(I2
I2
I0
I2
I1
tp2172
(dp2173
g5
I0
sg6
I0
sg7
I0
sg8
I0
sg9
I0
ss(I0
I2
I0
I2
I0
tp2174
(dp2175
g5
I0
sg6
I0
sg7
I0
sg8
I0
sg9
I0
ss(I2
I2
I1
I1
I1
tp2176
(dp2177
g5
I0
sg6
I0
sg7
I0
sg8
I0
sg9
I0
ss(I1
I0
I0
I0
I1
tp2178
(dp2179
g5
F23.409231941035628
sg6
F26.295070988253723
sg7
F-10.766377395964497
sg8
F23.93923523589308
sg9
I0
ss(I2
I1
I0
I2
I0
tp2180
(dp2181
g5
I0
sg6
I0
sg7
I0
sg8
I0
sg9
I0
ss(I0
I2
I2
I2
I0
tp2182
(dp2183
g5
I0
sg6
I0
sg7
I0
sg8
I0
sg9
I0
ss(I0
I2
I2
I2
I1
tp2184
(dp2185
g5
I0
sg6
I0
sg7
I0
sg8
I0
sg9
I0
ss(I2
I2
I0
I1
I1
tp2186
(dp2187
g5
I0
sg6
I0
sg7
I0
sg8
I0
sg9
I0
ss(I2
I0
I2
I2
I1
tp2188
(dp2189
g5
I0
sg6
I0
sg7
I0
sg8
I0
sg9
I0
ss(I0
I1
I0
I1
I1
tp2190
(dp2191
g5
F24.361798048592757
sg6
F17.92254046405724
sg7
F-11.74372572974471
sg8
F33.956514769239625
sg9
I0
ss(I1
I2
I1
I1
I0
tp2192
(dp2193
g5
I0
sg6
I0
sg7
I0
sg8
I0
sg9
I0
ss(I0
I1
I0
I2
I0
tp2194
(dp2195
g5
I0
sg6
I0
sg7
I0
sg8
I0
sg9
I0
ss(I0
I1
I1
I2
I1
tp2196
(dp2197
g5
I0
sg6
I0
sg7
I0
sg8
I0
sg9
I0
ss(I1
I1
I2
I2
I1
tp2198
(dp2199
g5
I0
sg6
I0
sg7
I0
sg8
I0
sg9
I0
ss(I0
I1
I1
I1
I1
tp2200
(dp2201
g5
I0
sg6
I0
sg7
I0
sg8
I0
sg9
I0
ss(I1
I2
I0
I2
I0
tp2202
(dp2203
g5
I0
sg6
I0
sg7
I0
sg8
I0
sg9
I0
ss(I0
I0
I2
I0
I0
tp2204
(dp2205
g5
I0
sg6
I0
sg7
I0
sg8
I0
sg9
I0
ss(I0
I2
I0
I0
I0
tp2206
(dp2207
g5
I0
sg6
I0
sg7
I0
sg8
I0
sg9
I0
ss(I0
I1
I2
I0
I1
tp2208
(dp2209
g5
I0
sg6
I0
sg7
I0
sg8
I0
sg9
I0
ss(I1
I1
I1
I0
I1
tp2210
(dp2211
g5
I0
sg6
I0
sg7
I0
sg8
I0
sg9
I0
ss(I0
I0
I0
I2
I1
tp2212
(dp2213
g5
F29.611678781207814
sg6
F11.723478398529954
sg7
F-17.749979786110586
sg8
F17.438885159791475
sg9
I0
ss(I1
I0
I2
I1
I0
tp2214
(dp2215
g5
I0
sg6
I0
sg7
I0
sg8
I0
sg9
I0
ss(I1
I1
I2
I1
I1
tp2216
(dp2217
g5
I0
sg6
I0
sg7
I0
sg8
I0
sg9
I0
ss(I0
I0
I1
I1
I1
tp2218
(dp2219
g5
I0
sg6
I0
sg7
I0
sg8
I0
sg9
I0
ss(I1
I0
I1
I0
I0
tp2220
(dp2221
g5
I0
sg6
I0
sg7
I0
sg8
I0
sg9
I0
ss(I0
I0
I1
I2
I1
tp2222
(dp2223
g5
I0
sg6
I0
sg7
I0
sg8
I0
sg9
I0
ss(I2
I0
I2
I2
I0
tp2224
(dp2225
g5
I0
sg6
I0
sg7
I0
sg8
I0
sg9
I0
ss(I0
I2
I0
I2
I1
tp2226
(dp2227
g5
I0
sg6
F6.449290960487691
sg7
F-9.5
sg8
F4.961244772668687
sg9
I0
ss(I0
I0
I0
I0
I1
tp2228
(dp2229
g5
F25.161496321390526
sg6
F25.379427119745078
sg7
F-15.010695800095544
sg8
F21.258322981888597
sg9
I0
ss(I2
I2
I1
I1
I0
tp2230
(dp2231
g5
I0
sg6
I0
sg7
I0
sg8
I0
sg9
I0
ss(I0
I0
I0
I0
I0
tp2232
(dp2233
g5
I0
sg6
I0
sg7
I0
sg8
I0
sg9
I0
ss(I2
I2
I0
I2
I0
tp2234
(dp2235
g5
I0
sg6
I0
sg7
I0
sg8
I0
sg9
I0
ss(I1
I2
I0
I1
I1
tp2236
(dp2237
g5
F16.97356111005631
sg6
F16.284169986583066
sg7
F-28.009230908451684
sg8
F22.429399223157613
sg9
I0
ss(I2
I0
I1
I1
I0
tp2238
(dp2239
g5
I0
sg6
I0
sg7
I0
sg8
I0
sg9
I0
ss(I0
I1
I0
I1
I0
tp2240
(dp2241
g5
I0
sg6
I0
sg7
I0
sg8
I0
sg9
I0
ss(I1
I2
I1
I2
I1
tp2242
(dp2243
g5
I0
sg6
I0
sg7
I0
sg8
I0
sg9
I0
ss(I1
I2
I1
I1
I1
tp2244
(dp2245
g5
I0
sg6
I0
sg7
I0
sg8
I0
sg9
I0
ss(I0
I2
I1
I0
I0
tp2246
(dp2247
g5
I0
sg6
I0
sg7
I0
sg8
I0
sg9
I0
ss(I0
I1
I1
I2
I0
tp2248
(dp2249
g5
I0
sg6
I0
sg7
I0
sg8
I0
sg9
I0
ss(I0
I0
I0
I1
I0
tp2250
(dp2251
g5
I0
sg6
I0
sg7
I0
sg8
I0
sg9
I0
ss(I1
I1
I2
I2
I0
tp2252
(dp2253
g5
I0
sg6
I0
sg7
I0
sg8
I0
sg9
I0
ss(I1
I2
I0
I2
I1
tp2254
(dp2255
g5
I0
sg6
I0
sg7
I0
sg8
I0
sg9
I0
ss(I2
I1
I1
I2
I1
tp2256
(dp2257
g5
I0
sg6
I0
sg7
I0
sg8
I0
sg9
I0
ss(I2
I0
I1
I2
I0
tp2258
(dp2259
g5
I0
sg6
I0
sg7
I0
sg8
I0
sg9
I0
ss(I2
I1
I0
I1
I1
tp2260
(dp2261
g5
F7.341134714206143
sg6
F17.9785110348805
sg7
F-16.18240634148012
sg8
F17.019023011229827
sg9
I0
ss(I1
I2
I0
I1
I0
tp2262
(dp2263
g5
I0
sg6
I0
sg7
I0
sg8
I0
sg9
I0
ss(I2
I2
I2
I0
I1
tp2264
(dp2265
g5
I0
sg6
I0
sg7
I0
sg8
I0
sg9
I0
ss(I2
I1
I0
I2
I1
tp2266
(dp2267
g5
I0
sg6
I0
sg7
I0
sg8
I0
sg9
I0
ss(I0
I2
I1
I2
I0
tp2268
(dp2269
g5
I0
sg6
I0
sg7
I0
sg8
I0
sg9
I0
ss(I0
I0
I1
I1
I0
tp2270
(dp2271
g5
I0
sg6
I0
sg7
I0
sg8
I0
sg9
I0
ss(I2
I2
I0
I0
I0
tp2272
(dp2273
g5
I0
sg6
I0
sg7
I0
sg8
I0
sg9
I0
ss(I0
I2
I1
I0
I1
tp2274
(dp2275
g5
I0
sg6
I0
sg7
I0
sg8
I0
sg9
I0
ss(I2
I0
I0
I2
I0
tp2276
(dp2277
g5
I0
sg6
I0
sg7
I0
sg8
I0
sg9
I0
ss(I0
I0
I0
I1
I1
tp2278
(dp2279
g5
F28.032033086448983
sg6
F17.060146706350974
sg7
F-18.077220267017342
sg8
F17.490231988608134
sg9
I0
ss(I0
I0
I1
I2
I0
tp2280
(dp2281
g5
I0
sg6
I0
sg7
I0
sg8
I0
sg9
I0
ss(I1
I0
I2
I0
I1
tp2282
(dp2283
g5
I0
sg6
I0
sg7
I0
sg8
I0
sg9
I0
ssa(dp2284
(I0
I2
I0
I1
I0
tp2285
(dp2286
g5
I0
sg6
I0
sg7
I0
sg8
I0
sg9
I0
ss(I2
I0
I1
I1
I1
tp2287
(dp2288
g5
I0
sg6
I0
sg7
I0
sg8
I0
sg9
I0
ss(I1
I2
I1
I2
I0
tp2289
(dp2290
g5
I0
sg6
I0
sg7
I0
sg8
I0
sg9
I0
ss(I2
I2
I2
I0
I0
tp2291
(dp2292
g5
I0
sg6
I0
sg7
I0
sg8
I0
sg9
I0
ss(I2
I0
I2
I0
I1
tp2293
(dp2294
g5
I0
sg6
F988.7965731050801
sg7
F200.96448498851646
sg8
I0
sg9
F568.73557638024
ss(I1
I0
I0
I2
I0
tp2295
(dp2296
g5
I0
sg6
I0
sg7
I0
sg8
I0
sg9
I0
ss(I2
I0
I0
I1
I1
tp2297
(dp2298
g5
I0
sg6
I0
sg7
I0
sg8
I0
sg9
I0
ss(I2
I1
I1
I1
I0
tp2299
(dp2300
g5
I0
sg6
I0
sg7
I0
sg8
I0
sg9
I0
ss(I0
I2
I1
I2
I1
tp2301
(dp2302
g5
I0
sg6
I0
sg7
I0
sg8
I0
sg9
I0
ss(I2
I1
I1
I2
I0
tp2303
(dp2304
g5
I0
sg6
I0
sg7
I0
sg8
I0
sg9
I0
ss(I1
I0
I1
I1
I0
tp2305
(dp2306
g5
I0
sg6
I0
sg7
I0
sg8
I0
sg9
I0
ss(I2
I0
I1
I2
I1
tp2307
(dp2308
g5
I0
sg6
I0
sg7
I0
sg8
I0
sg9
I0
ss(I2
I2
I2
I1
I0
tp2309
(dp2310
g5
I0
sg6
I0
sg7
I0
sg8
I0
sg9
I0
ss(I2
I1
I0
I1
I0
tp2311
(dp2312
g5
I0
sg6
I0
sg7
I0
sg8
I0
sg9
I0
ss(I2
I2
I1
I0
I0
tp2313
(dp2314
g5
I0
sg6
I0
sg7
I0
sg8
I0
sg9
I0
ss(I0
I1
I2
I2
I0
tp2315
(dp2316
g5
I0
sg6
I0
sg7
I0
sg8
I0
sg9
I0
ss(I2
I2
I2
I2
I1
tp2317
(dp2318
g5
I0
sg6
I0
sg7
I0
sg8
I0
sg9
I0
ss(I1
I0
I2
I2
I1
tp2319
(dp2320
g5
I0
sg6
I0
sg7
I0
sg8
I0
sg9
I0
ss(I0
I2
I1
I1
I1
tp2321
(dp2322
g5
I0
sg6
I0
sg7
I0
sg8
I0
sg9
I0
ss(I2
I0
I0
I2
I1
tp2323
(dp2324
g5
I0
sg6
I0
sg7
I0
sg8
I0
sg9
I0
ss(I2
I1
I1
I1
I1
tp2325
(dp2326
g5
I0
sg6
I0
sg7
I0
sg8
I0
sg9
I0
ss(I1
I1
I0
I1
I0
tp2327
(dp2328
g5
I0
sg6
I0
sg7
I0
sg8
I0
sg9
I0
ss(I0
I2
I2
I0
I1
tp2329
(dp2330
g5
I0
sg6
F999.9148031185313
sg7
F1576.0692372095077
sg8
F577.5659263677279
sg9
F891.0097830201128
ss(I2
I2
I1
I2
I1
tp2331
(dp2332
g5
I0
sg6
I0
sg7
I0
sg8
I0
sg9
I0
ss(I1
I0
I1
I2
I1
tp2333
(dp2334
g5
I0
sg6
I0
sg7
I0
sg8
I0
sg9
I0
ss(I0
I2
I0
I1
I1
tp2335
(dp2336
g5
I0
sg6
I0
sg7
I0
sg8
I0
sg9
I0
ss(I1
I1
I1
I2
I0
tp2337
(dp2338
g5
I0
sg6
I0
sg7
I0
sg8
I0
sg9
I0
ss(I1
I0
I0
I1
I1
tp2339
(dp2340
g5
I0
sg6
I0
sg7
I0
sg8
I0
sg9
I0
ss(I2
I0
I2
I0
I0
tp2341
(dp2342
g5
I0
sg6
I0
sg7
I0
sg8
I0
sg9
I0
ss(I0
I0
I2
I1
I0
tp2343
(dp2344
g5
I0
sg6
I0
sg7
I0
sg8
I0
sg9
I0
ss(I1
I0
I0
I2
I1
tp2345
(dp2346
g5
I0
sg6
I0
sg7
I0
sg8
I0
sg9
I0
ss(I2
I2
I0
I0
I1
tp2347
(dp2348
g5
I0
sg6
F1003.1506090548061
sg7
F1030.2050993787955
sg8
F1027.9558781690241
sg9
F1094.6039211771051
ss(I1
I0
I1
I1
I1
tp2349
(dp2350
g5
I0
sg6
I0
sg7
I0
sg8
I0
sg9
I0
ss(I2
I2
I2
I1
I1
tp2351
(dp2352
g5
I0
sg6
I0
sg7
I0
sg8
I0
sg9
I0
ss(I2
I2
I1
I0
I1
tp2353
(dp2354
g5
I0
sg6
F729.7280083532696
sg7
F79.46906052484832
sg8
F720.1059798310489
sg9
I0
ss(I0
I0
I2
I0
I1
tp2355
(dp2356
g5
I0
sg6
F2867.205863769712
sg7
F2822.1927693404587
sg8
F2823.244185521968
sg9
F2837.0750295130747
ss(I1
I2
I2
I2
I1
tp2357
(dp2358
g5
I0
sg6
I0
sg7
I0
sg8
I0
sg9
I0
ss(I0
I1
I1
I0
I1
tp2359
(dp2360
g5
I0
sg6
F2880.5374639875618
sg7
F2848.9875248832896
sg8
F2884.813889971552
sg9
F2886.8231030343068
ss(I1
I2
I0
I0
I0
tp2361
(dp2362
g5
I0
sg6
I0
sg7
I0
sg8
I0
sg9
I0
ss(I0
I1
I2
I1
I1
tp2363
(dp2364
g5
I0
sg6
I0
sg7
I0
sg8
I0
sg9
I0
ss(I1
I1
I1
I1
I1
tp2365
(dp2366
g5
I0
sg6
I0
sg7
I0
sg8
I0
sg9
I0
ss(I0
I1
I2
I2
I1
tp2367
(dp2368
g5
I0
sg6
I0
sg7
I0
sg8
I0
sg9
I0
ss(I1
I0
I2
I2
I0
tp2369
(dp2370
g5
I0
sg6
I0
sg7
I0
sg8
I0
sg9
I0
ss(I1
I1
I0
I2
I1
tp2371
(dp2372
g5
I0
sg6
I0
sg7
I0
sg8
I0
sg9
I0
ss(I1
I1
I0
I1
I1
tp2373
(dp2374
g5
I0
sg6
I0
sg7
I0
sg8
I0
sg9
I0
ss(I2
I0
I2
I1
I1
tp2375
(dp2376
g5
I0
sg6
I0
sg7
I0
sg8
I0
sg9
I0
ss(I0
I2
I2
I0
I0
tp2377
(dp2378
g5
I0
sg6
I0
sg7
I0
sg8
I0
sg9
I0
ss(I1
I0
I1
I2
I0
tp2379
(dp2380
g5
I0
sg6
I0
sg7
I0
sg8
I0
sg9
I0
ss(I1
I1
I1
I2
I1
tp2381
(dp2382
g5
I0
sg6
I0
sg7
I0
sg8
I0
sg9
I0
ss(I2
I0
I0
I1
I0
tp2383
(dp2384
g5
I0
sg6
I0
sg7
I0
sg8
I0
sg9
I0
ss(I0
I0
I2
I2
I1
tp2385
(dp2386
g5
I0
sg6
I0
sg7
I0
sg8
I0
sg9
I0
ss(I1
I0
I0
I1
I0
tp2387
(dp2388
g5
I0
sg6
I0
sg7
I0
sg8
I0
sg9
I0
ss(I0
I0
I2
I1
I1
tp2389
(dp2390
g5
I0
sg6
I0
sg7
I0
sg8
I0
sg9
I0
ss(I1
I1
I0
I0
I0
tp2391
(dp2392
g5
I0
sg6
I0
sg7
I0
sg8
I0
sg9
I0
ss(I2
I1
I2
I0
I0
tp2393
(dp2394
g5
I0
sg6
I0
sg7
I0
sg8
I0
sg9
I0
ss(I2
I2
I2
I2
I0
tp2395
(dp2396
g5
I0
sg6
I0
sg7
I0
sg8
I0
sg9
I0
ss(I1
I2
I2
I0
I1
tp2397
(dp2398
g5
I0
sg6
F430.47632634927834
sg7
F441.16272708844866
sg8
F173.0411949947816
sg9
F89.97235259511515
ss(I0
I0
I1
I0
I0
tp2399
(dp2400
g5
I0
sg6
I0
sg7
I0
sg8
I0
sg9
I0
ss(I1
I2
I1
I0
I1
tp2401
(dp2402
g5
I0
sg6
F2132.1413812762944
sg7
F1880.395402403507
sg8
F1718.856595920105
sg9
F1882.3615429786855
ss(I0
I1
I1
I0
I0
tp2403
(dp2404
g5
I0
sg6
I0
sg7
I0
sg8
I0
sg9
I0
ss(I1
I2
I2
I1
I1
tp2405
(dp2406
g5
I0
sg6
I0
sg7
I0
sg8
I0
sg9
I0
ss(I2
I1
I1
I0
I0
tp2407
(dp2408
g5
I0
sg6
I0
sg7
I0
sg8
I0
sg9
I0
ss(I1
I2
I0
I0
I1
tp2409
(dp2410
g5
I0
sg6
F2254.041443110625
sg7
F2458.120020465755
sg8
F2812.3099057968375
sg9
F2395.6120304959204
ss(I1
I2
I2
I2
I0
tp2411
(dp2412
g5
I0
sg6
I0
sg7
I0
sg8
I0
sg9
I0
ss(I0
I1
I2
I1
I0
tp2413
(dp2414
g5
I0
sg6
I0
sg7
I0
sg8
I0
sg9
I0
ss(I2
I0
I1
I0
I0
tp2415
(dp2416
g5
I0
sg6
I0
sg7
I0
sg8
I0
sg9
I0
ss(I1
I1
I1
I1
I0
tp2417
(dp2418
g5
I0
sg6
I0
sg7
I0
sg8
I0
sg9
I0
ss(I2
I1
I2
I2
I0
tp2419
(dp2420
g5
I0
sg6
I0
sg7
I0
sg8
I0
sg9
I0
ss(I2
I1
I2
I1
I1
tp2421
(dp2422
g5
I0
sg6
I0
sg7
I0
sg8
I0
sg9
I0
ss(I2
I0
I2
I1
I0
tp2423
(dp2424
g5
I0
sg6
I0
sg7
I0
sg8
I0
sg9
I0
ss(I1
I1
I0
I2
I0
tp2425
(dp2426
g5
I0
sg6
I0
sg7
I0
sg8
I0
sg9
I0
ss(I2
I1
I2
I0
I1
tp2427
(dp2428
g5
I0
sg6
F760.0475064658043
sg7
F1395.2237199400215
sg8
F1138.871740135459
sg9
F587.9942204071783
ss(I2
I1
I1
I0
I1
tp2429
(dp2430
g5
I0
sg6
F2253.400591916018
sg7
F1963.629944199225
sg8
F1924.8100116951473
sg9
F2319.6105877355785
ss(I1
I1
I2
I0
I0
tp2431
(dp2432
g5
I0
sg6
I0
sg7
I0
sg8
I0
sg9
I0
ss(I0
I0
I1
I0
I1
tp2433
(dp2434
g5
I0
sg6
F2880.2797044679064
sg7
F2851.79577691245
sg8
F2880.221088786232
sg9
F2886.6957407669543
ss(I0
I0
I2
I2
I0
tp2435
(dp2436
g5
I0
sg6
I0
sg7
I0
sg8
I0
sg9
I0
ss(I1
I1
I0
I0
I1
tp2437
(dp2438
g5
I0
sg6
F2886.4469537064147
sg7
F2811.902392444023
sg8
F2858.579393247536
sg9
F2816.72048009809
ss(I0
I1
I0
I0
I1
tp2439
(dp2440
g5
I0
sg6
F2884.179644625924
sg7
F2852.7153717881843
sg8
F2892.5502696565554
sg9
F2885.017494698958
ss(I1
I2
I2
I0
I0
tp2441
(dp2442
g5
I0
sg6
I0
sg7
I0
sg8
I0
sg9
I0
ss(I2
I1
I0
I0
I0
tp2443
(dp2444
g5
I0
sg6
I0
sg7
I0
sg8
I0
sg9
I0
ss(I2
I1
I2
I2
I1
tp2445
(dp2446
g5
I0
sg6
I0
sg7
I0
sg8
I0
sg9
I0
ss(I1
I2
I1
I0
I0
tp2447
(dp2448
g5
I0
sg6
I0
sg7
I0
sg8
I0
sg9
I0
ss(I2
I0
I0
I0
I1
tp2449
(dp2450
g5
I0
sg6
F2697.005873439743
sg7
F2254.3369763528335
sg8
F2521.8372188250755
sg9
F2227.530381043449
ss(I1
I2
I2
I1
I0
tp2451
(dp2452
g5
I0
sg6
I0
sg7
I0
sg8
I0
sg9
I0
ss(I0
I2
I2
I1
I0
tp2453
(dp2454
g5
I0
sg6
I0
sg7
I0
sg8
I0
sg9
I0
ss(I2
I0
I1
I0
I1
tp2455
(dp2456
g5
I0
sg6
F1981.6521638381735
sg7
F1918.7264635211027
sg8
F2285.6977609186215
sg9
F2086.76166207466
ss(I2
I1
I2
I1
I0
tp2457
(dp2458
g5
I0
sg6
I0
sg7
I0
sg8
I0
sg9
I0
ss(I1
I0
I0
I0
I0
tp2459
(dp2460
g5
I0
sg6
I0
sg7
I0
sg8
I0
sg9
I0
ss(I0
I0
I0
I2
I0
tp2461
(dp2462
g5
I0
sg6
I0
sg7
I0
sg8
I0
sg9
I0
ss(I2
I2
I1
I2
I0
tp2463
(dp2464
g5
I0
sg6
I0
sg7
I0
sg8
I0
sg9
I0
ss(I0
I2
I1
I1
I0
tp2465
(dp2466
g5
I0
sg6
I0
sg7
I0
sg8
I0
sg9
I0
ss(I2
I2
I0
I1
I0
tp2467
(dp2468
g5
I0
sg6
I0
sg7
I0
sg8
I0
sg9
I0
ss(I1
I1
I2
I0
I1
tp2469
(dp2470
g5
I0
sg6
F2450.260951969124
sg7
F2639.3598400960427
sg8
F2507.687631380469
sg9
F2671.7048182385925
ss(I2
I1
I0
I0
I1
tp2471
(dp2472
g5
I0
sg6
F2864.488736094723
sg7
F2245.6095678675547
sg8
F2584.4901255403356
sg9
F2562.1173212610415
ss(I0
I1
I0
I2
I1
tp2473
(dp2474
g5
I0
sg6
I0
sg7
I0
sg8
I0
sg9
I0
ss(I0
I1
I1
I1
I0
tp2475
(dp2476
g5
I0
sg6
I0
sg7
I0
sg8
I0
sg9
I0
ss(I0
I1
I0
I0
I0
tp2477
(dp2478
g5
I0
sg6
I0
sg7
I0
sg8
I0
sg9
I0
ss(I0
I2
I0
I0
I1
tp2479
(dp2480
g5
I0
sg6
F2813.299374977904
sg7
F2759.7894732509403
sg8
F2859.3034509476115
sg9
F2792.701927340342
ss(I0
I1
I2
I0
I0
tp2481
(dp2482
g5
I0
sg6
I0
sg7
I0
sg8
I0
sg9
I0
ss(I1
I1
I1
I0
I0
tp2483
(dp2484
g5
I0
sg6
I0
sg7
I0
sg8
I0
sg9
I0
ss(I1
I0
I2
I1
I1
tp2485
(dp2486
g5
I0
sg6
I0
sg7
I0
sg8
I0
sg9
I0
ss(I2
I0
I0
I0
I0
tp2487
(dp2488
g5
I0
sg6
I0
sg7
I0
sg8
I0
sg9
I0
ss(I1
I1
I2
I1
I0
tp2489
(dp2490
g5
I0
sg6
I0
sg7
I0
sg8
I0
sg9
I0
ss(I1
I0
I2
I0
I0
tp2491
(dp2492
g5
I0
sg6
I0
sg7
I0
sg8
I0
sg9
I0
ss(I1
I0
I1
I0
I1
tp2493
(dp2494
g5
I0
sg6
F2841.807270596289
sg7
F2815.5868481522175
sg8
F2776.0005196387274
sg9
F2834.8254340471267
ss(I0
I2
I2
I1
I1
tp2495
(dp2496
g5
I0
sg6
I0
sg7
I0
sg8
I0
sg9
I0
ss(I2
I2
I0
I2
I1
tp2497
(dp2498
g5
I0
sg6
I0
sg7
I0
sg8
I0
sg9
I0
ss(I0
I2
I0
I2
I0
tp2499
(dp2500
g5
I0
sg6
I0
sg7
I0
sg8
I0
sg9
I0
ss(I2
I2
I1
I1
I1
tp2501
(dp2502
g5
I0
sg6
I0
sg7
I0
sg8
I0
sg9
I0
ss(I1
I0
I0
I0
I1
tp2503
(dp2504
g5
I0
sg6
F2887.0204009599106
sg7
F2815.3907656343567
sg8
F2883.7122678237592
sg9
F2826.081934159891
ss(I2
I1
I0
I2
I0
tp2505
(dp2506
g5
I0
sg6
I0
sg7
I0
sg8
I0
sg9
I0
ss(I0
I2
I2
I2
I0
tp2507
(dp2508
g5
I0
sg6
I0
sg7
I0
sg8
I0
sg9
I0
ss(I0
I2
I2
I2
I1
tp2509
(dp2510
g5
I0
sg6
I0
sg7
I0
sg8
I0
sg9
I0
ss(I2
I2
I0
I1
I1
tp2511
(dp2512
g5
I0
sg6
I0
sg7
I0
sg8
I0
sg9
I0
ss(I2
I0
I2
I2
I1
tp2513
(dp2514
g5
I0
sg6
I0
sg7
I0
sg8
I0
sg9
I0
ss(I0
I1
I0
I1
I1
tp2515
(dp2516
g5
I0
sg6
I0
sg7
I0
sg8
I0
sg9
I0
ss(I1
I2
I1
I1
I0
tp2517
(dp2518
g5
I0
sg6
I0
sg7
I0
sg8
I0
sg9
I0
ss(I0
I1
I0
I2
I0
tp2519
(dp2520
g5
I0
sg6
I0
sg7
I0
sg8
I0
sg9
I0
ss(I0
I1
I1
I2
I1
tp2521
(dp2522
g5
I0
sg6
I0
sg7
I0
sg8
I0
sg9
I0
ss(I1
I1
I2
I2
I1
tp2523
(dp2524
g5
I0
sg6
I0
sg7
I0
sg8
I0
sg9
I0
ss(I0
I1
I1
I1
I1
tp2525
(dp2526
g5
I0
sg6
I0
sg7
I0
sg8
I0
sg9
I0
ss(I1
I2
I0
I2
I0
tp2527
(dp2528
g5
I0
sg6
I0
sg7
I0
sg8
I0
sg9
I0
ss(I0
I0
I2
I0
I0
tp2529
(dp2530
g5
I0
sg6
I0
sg7
I0
sg8
I0
sg9
I0
ss(I0
I2
I0
I0
I0
tp2531
(dp2532
g5
I0
sg6
I0
sg7
I0
sg8
I0
sg9
I0
ss(I0
I1
I2
I0
I1
tp2533
(dp2534
g5
I0
sg6
F2864.5972360430014
sg7
F2839.998384640404
sg8
F2866.079726174509
sg9
F2883.0309030662115
ss(I1
I1
I1
I0
I1
tp2535
(dp2536
g5
I0
sg6
F2861.553278662408
sg7
F2832.672881781459
sg8
F2849.0360812564845
sg9
F2852.2979716731047
ss(I0
I0
I0
I2
I1
tp2537
(dp2538
g5
I0
sg6
I0
sg7
I0
sg8
I0
sg9
I0
ss(I1
I0
I2
I1
I0
tp2539
(dp2540
g5
I0
sg6
I0
sg7
I0
sg8
I0
sg9
I0
ss(I1
I1
I2
I1
I1
tp2541
(dp2542
g5
I0
sg6
I0
sg7
I0
sg8
I0
sg9
I0
ss(I0
I0
I1
I1
I1
tp2543
(dp2544
g5
I0
sg6
I0
sg7
I0
sg8
I0
sg9
I0
ss(I1
I0
I1
I0
I0
tp2545
(dp2546
g5
I0
sg6
I0
sg7
I0
sg8
I0
sg9
I0
ss(I0
I0
I1
I2
I1
tp2547
(dp2548
g5
I0
sg6
I0
sg7
I0
sg8
I0
sg9
I0
ss(I2
I0
I2
I2
I0
tp2549
(dp2550
g5
I0
sg6
I0
sg7
I0
sg8
I0
sg9
I0
ss(I0
I2
I0
I2
I1
tp2551
(dp2552
g5
I0
sg6
I0
sg7
I0
sg8
I0
sg9
I0
ss(I0
I0
I0
I0
I1
tp2553
(dp2554
g5
I0
sg6
F2888.817799922442
sg7
F2851.8921117864716
sg8
F2888.7410794988195
sg9
F2878.6532175706843
ss(I2
I2
I1
I1
I0
tp2555
(dp2556
g5
I0
sg6
I0
sg7
I0
sg8
I0
sg9
I0
ss(I0
I0
I0
I0
I0
tp2557
(dp2558
g5
I0
sg6
I0
sg7
I0
sg8
I0
sg9
I0
ss(I2
I2
I0
I2
I0
tp2559
(dp2560
g5
I0
sg6
I0
sg7
I0
sg8
I0
sg9
I0
ss(I1
I2
I0
I1
I1
tp2561
(dp2562
g5
I0
sg6
I0
sg7
I0
sg8
I0
sg9
I0
ss(I2
I0
I1
I1
I0
tp2563
(dp2564
g5
I0
sg6
I0
sg7
I0
sg8
I0
sg9
I0
ss(I0
I1
I0
I1
I0
tp2565
(dp2566
g5
I0
sg6
I0
sg7
I0
sg8
I0
sg9
I0
ss(I1
I2
I1
I2
I1
tp2567
(dp2568
g5
I0
sg6
I0
sg7
I0
sg8
I0
sg9
I0
ss(I1
I2
I1
I1
I1
tp2569
(dp2570
g5
I0
sg6
I0
sg7
I0
sg8
I0
sg9
I0
ss(I0
I2
I1
I0
I0
tp2571
(dp2572
g5
I0
sg6
I0
sg7
I0
sg8
I0
sg9
I0
ss(I0
I1
I1
I2
I0
tp2573
(dp2574
g5
I0
sg6
I0
sg7
I0
sg8
I0
sg9
I0
ss(I0
I0
I0
I1
I0
tp2575
(dp2576
g5
I0
sg6
I0
sg7
I0
sg8
I0
sg9
I0
ss(I1
I1
I2
I2
I0
tp2577
(dp2578
g5
I0
sg6
I0
sg7
I0
sg8
I0
sg9
I0
ss(I1
I2
I0
I2
I1
tp2579
(dp2580
g5
I0
sg6
I0
sg7
I0
sg8
I0
sg9
I0
ss(I2
I1
I1
I2
I1
tp2581
(dp2582
g5
I0
sg6
I0
sg7
I0
sg8
I0
sg9
I0
ss(I2
I0
I1
I2
I0
tp2583
(dp2584
g5
I0
sg6
I0
sg7
I0
sg8
I0
sg9
I0
ss(I2
I1
I0
I1
I1
tp2585
(dp2586
g5
I0
sg6
I0
sg7
I0
sg8
I0
sg9
I0
ss(I1
I2
I0
I1
I0
tp2587
(dp2588
g5
I0
sg6
I0
sg7
I0
sg8
I0
sg9
I0
ss(I2
I2
I2
I0
I1
tp2589
(dp2590
g5
I0
sg6
I0
sg7
I0
sg8
I0
sg9
I0
ss(I2
I1
I0
I2
I1
tp2591
(dp2592
g5
I0
sg6
I0
sg7
I0
sg8
I0
sg9
I0
ss(I0
I2
I1
I2
I0
tp2593
(dp2594
g5
I0
sg6
I0
sg7
I0
sg8
I0
sg9
I0
ss(I0
I0
I1
I1
I0
tp2595
(dp2596
g5
I0
sg6
I0
sg7
I0
sg8
I0
sg9
I0
ss(I2
I2
I0
I0
I0
tp2597
(dp2598
g5
I0
sg6
I0
sg7
I0
sg8
I0
sg9
I0
ss(I0
I2
I1
I0
I1
tp2599
(dp2600
g5
I0
sg6
F2708.818487373554
sg7
F2556.9089839185403
sg8
F2744.5508155305483
sg9
F2710.94326036775
ss(I2
I0
I0
I2
I0
tp2601
(dp2602
g5
I0
sg6
I0
sg7
I0
sg8
I0
sg9
I0
ss(I0
I0
I0
I1
I1
tp2603
(dp2604
g5
I0
sg6
I0
sg7
I0
sg8
I0
sg9
I0
ss(I0
I0
I1
I2
I0
tp2605
(dp2606
g5
I0
sg6
I0
sg7
I0
sg8
I0
sg9
I0
ss(I1
I0
I2
I0
I1
tp2607
(dp2608
g5
I0
sg6
F2447.47402185035
sg7
F2303.191397976436
sg8
F2276.19504206852
sg9
F2413.3805547447114
ssa(dp2609
(I0
I2
I0
I1
I0
tp2610
(dp2611
g5
I0
sg6
I0
sg7
I0
sg8
I0
sg9
I0
ss(I2
I0
I1
I1
I1
tp2612
(dp2613
g5
I0
sg6
I0
sg7
I0
sg8
I0
sg9
I0
ss(I1
I2
I1
I2
I0
tp2614
(dp2615
g5
I0
sg6
I0
sg7
I0
sg8
I0
sg9
I0
ss(I2
I2
I2
I0
I0
tp2616
(dp2617
g5
I0
sg6
I0
sg7
I0
sg8
I0
sg9
I0
ss(I2
I0
I2
I0
I1
tp2618
(dp2619
g5
I0
sg6
F3.645783258263613
sg7
F-9.5
sg8
F-0.929409950994575
sg9
F1.9643953027016892
ss(I1
I0
I0
I2
I0
tp2620
(dp2621
g5
I0
sg6
I0
sg7
I0
sg8
I0
sg9
I0
ss(I2
I0
I0
I1
I1
tp2622
(dp2623
g5
I0
sg6
I0
sg7
I0
sg8
I0
sg9
I0
ss(I2
I1
I1
I1
I0
tp2624
(dp2625
g5
I0
sg6
I0
sg7
I0
sg8
I0
sg9
I0
ss(I0
I2
I1
I2
I1
tp2626
(dp2627
g5
I0
sg6
I0
sg7
I0
sg8
I0
sg9
I0
ss(I2
I1
I1
I2
I0
tp2628
(dp2629
g5
I0
sg6
I0
sg7
I0
sg8
I0
sg9
I0
ss(I1
I0
I1
I1
I0
tp2630
(dp2631
g5
I0
sg6
I0
sg7
I0
sg8
I0
sg9
I0
ss(I2
I0
I1
I2
I1
tp2632
(dp2633
g5
I0
sg6
I0
sg7
I0
sg8
I0
sg9
I0
ss(I2
I2
I2
I1
I0
tp2634
(dp2635
g5
I0
sg6
I0
sg7
I0
sg8
I0
sg9
I0
ss(I2
I1
I0
I1
I0
tp2636
(dp2637
g5
I0
sg6
I0
sg7
I0
sg8
I0
sg9
I0
ss(I2
I2
I1
I0
I0
tp2638
(dp2639
g5
I0
sg6
I0
sg7
I0
sg8
I0
sg9
I0
ss(I0
I1
I2
I2
I0
tp2640
(dp2641
g5
I0
sg6
I0
sg7
I0
sg8
I0
sg9
I0
ss(I2
I2
I2
I2
I1
tp2642
(dp2643
g5
I0
sg6
I0
sg7
I0
sg8
I0
sg9
I0
ss(I1
I0
I2
I2
I1
tp2644
(dp2645
g5
I0
sg6
I0
sg7
I0
sg8
I0
sg9
I0
ss(I0
I2
I1
I1
I1
tp2646
(dp2647
g5
I0
sg6
I0
sg7
I0
sg8
I0
sg9
I0
ss(I2
I0
I0
I2
I1
tp2648
(dp2649
g5
I0
sg6
I0
sg7
I0
sg8
I0
sg9
I0
ss(I2
I1
I1
I1
I1
tp2650
(dp2651
g5
I0
sg6
I0
sg7
I0
sg8
I0
sg9
I0
ss(I1
I1
I0
I1
I0
tp2652
(dp2653
g5
I0
sg6
I0
sg7
I0
sg8
I0
sg9
I0
ss(I0
I2
I2
I0
I1
tp2654
(dp2655
g5
I0
sg6
F-3.0644632654059736
sg7
F-16.24253714658908
sg8
F2.5471207429457743
sg9
F3.4135154010684827
ss(I2
I2
I1
I2
I1
tp2656
(dp2657
g5
I0
sg6
I0
sg7
I0
sg8
I0
sg9
I0
ss(I1
I0
I1
I2
I1
tp2658
(dp2659
g5
I0
sg6
I0
sg7
I0
sg8
I0
sg9
I0
ss(I0
I2
I0
I1
I1
tp2660
(dp2661
g5
I0
sg6
I0
sg7
I0
sg8
I0
sg9
I0
ss(I1
I1
I1
I2
I0
tp2662
(dp2663
g5
I0
sg6
I0
sg7
I0
sg8
I0
sg9
I0
ss(I1
I0
I0
I1
I1
tp2664
(dp2665
g5
I0
sg6
I0
sg7
I0
sg8
I0
sg9
I0
ss(I2
I0
I2
I0
I0
tp2666
(dp2667
g5
I0
sg6
I0
sg7
I0
sg8
I0
sg9
I0
ss(I0
I0
I2
I1
I0
tp2668
(dp2669
g5
I0
sg6
I0
sg7
I0
sg8
I0
sg9
I0
ss(I1
I0
I0
I2
I1
tp2670
(dp2671
g5
I0
sg6
I0
sg7
I0
sg8
I0
sg9
I0
ss(I2
I2
I0
I0
I1
tp2672
(dp2673
g5
I0
sg6
F2.9477186982986883
sg7
F-21.96875
sg8
F1.75
sg9
I0
ss(I1
I0
I1
I1
I1
tp2674
(dp2675
g5
I0
sg6
I0
sg7
I0
sg8
I0
sg9
I0
ss(I2
I2
I2
I1
I1
tp2676
(dp2677
g5
I0
sg6
I0
sg7
I0
sg8
I0
sg9
I0
ss(I2
I2
I1
I0
I1
tp2678
(dp2679
g5
I0
sg6
I0
sg7
F-16.711512081975123
sg8
F0.5
sg9
F-1.0
ss(I0
I0
I2
I0
I1
tp2680
(dp2681
g5
I0
sg6
F-0.1461957714303661
sg7
F-31.102797804407384
sg8
F-1.4106982182386447
sg9
F11.923408548708553
ss(I1
I2
I2
I2
I1
tp2682
(dp2683
g5
I0
sg6
I0
sg7
I0
sg8
I0
sg9
I0
ss(I0
I1
I1
I0
I1
tp2684
(dp2685
g5
I0
sg6
F-2.2235207152277465
sg7
F-29.647995157231485
sg8
F3.716123304899436
sg9
F6.647795653120771
ss(I1
I2
I0
I0
I0
tp2686
(dp2687
g5
I0
sg6
I0
sg7
I0
sg8
I0
sg9
I0
ss(I0
I1
I2
I1
I1
tp2688
(dp2689
g5
I0
sg6
I0
sg7
I0
sg8
I0
sg9
I0
ss(I1
I1
I1
I1
I1
tp2690
(dp2691
g5
I0
sg6
I0
sg7
I0
sg8
I0
sg9
I0
ss(I0
I1
I2
I2
I1
tp2692
(dp2693
g5
I0
sg6
I0
sg7
I0
sg8
I0
sg9
I0
ss(I1
I0
I2
I2
I0
tp2694
(dp2695
g5
I0
sg6
I0
sg7
I0
sg8
I0
sg9
I0
ss(I1
I1
I0
I2
I1
tp2696
(dp2697
g5
I0
sg6
I0
sg7
I0
sg8
I0
sg9
I0
ss(I1
I1
I0
I1
I1
tp2698
(dp2699
g5
I0
sg6
I0
sg7
I0
sg8
I0
sg9
I0
ss(I2
I0
I2
I1
I1
tp2700
(dp2701
g5
I0
sg6
I0
sg7
I0
sg8
I0
sg9
I0
ss(I0
I2
I2
I0
I0
tp2702
(dp2703
g5
I0
sg6
I0
sg7
I0
sg8
I0
sg9
I0
ss(I1
I0
I1
I2
I0
tp2704
(dp2705
g5
I0
sg6
I0
sg7
I0
sg8
I0
sg9
I0
ss(I1
I1
I1
I2
I1
tp2706
(dp2707
g5
I0
sg6
I0
sg7
I0
sg8
I0
sg9
I0
ss(I2
I0
I0
I1
I0
tp2708
(dp2709
g5
I0
sg6
I0
sg7
I0
sg8
I0
sg9
I0
ss(I0
I0
I2
I2
I1
tp2710
(dp2711
g5
I0
sg6
I0
sg7
I0
sg8
I0
sg9
I0
ss(I1
I0
I0
I1
I0
tp2712
(dp2713
g5
I0
sg6
I0
sg7
I0
sg8
I0
sg9
I0
ss(I0
I0
I2
I1
I1
tp2714
(dp2715
g5
I0
sg6
I0
sg7
I0
sg8
I0
sg9
I0
ss(I1
I1
I0
I0
I0
tp2716
(dp2717
g5
I0
sg6
I0
sg7
I0
sg8
I0
sg9
I0
ss(I2
I1
I2
I0
I0
tp2718
(dp2719
g5
I0
sg6
I0
sg7
I0
sg8
I0
sg9
I0
ss(I2
I2
I2
I2
I0
tp2720
(dp2721
g5
I0
sg6
I0
sg7
I0
sg8
I0
sg9
I0
ss(I1
I2
I2
I0
I1
tp2722
(dp2723
g5
I0
sg6
F-1.0
sg7
F-17.5
sg8
I0
sg9
I0
ss(I0
I0
I1
I0
I0
tp2724
(dp2725
g5
I0
sg6
I0
sg7
I0
sg8
I0
sg9
I0
ss(I1
I2
I1
I0
I1
tp2726
(dp2727
g5
I0
sg6
F-0.37273094546528807
sg7
F-34.87868697508077
sg8
F4.593219193238346
sg9
F-1.4744895728029201
ss(I0
I1
I1
I0
I0
tp2728
(dp2729
g5
I0
sg6
I0
sg7
I0
sg8
I0
sg9
I0
ss(I1
I2
I2
I1
I1
tp2730
(dp2731
g5
I0
sg6
I0
sg7
I0
sg8
I0
sg9
I0
ss(I2
I1
I1
I0
I0
tp2732
(dp2733
g5
I0
sg6
I0
sg7
I0
sg8
I0
sg9
I0
ss(I1
I2
I0
I0
I1
tp2734
(dp2735
g5
I0
sg6
F1.9138183156907353
sg7
F-35.81475257752558
sg8
F8.195795392819075
sg9
F-4.702408069860419
ss(I1
I2
I2
I2
I0
tp2736
(dp2737
g5
I0
sg6
I0
sg7
I0
sg8
I0
sg9
I0
ss(I0
I1
I2
I1
I0
tp2738
(dp2739
g5
I0
sg6
I0
sg7
I0
sg8
I0
sg9
I0
ss(I2
I0
I1
I0
I0
tp2740
(dp2741
g5
I0
sg6
I0
sg7
I0
sg8
I0
sg9
I0
ss(I1
I1
I1
I1
I0
tp2742
(dp2743
g5
I0
sg6
I0
sg7
I0
sg8
I0
sg9
I0
ss(I2
I1
I2
I2
I0
tp2744
(dp2745
g5
I0
sg6
I0
sg7
I0
sg8
I0
sg9
I0
ss(I2
I1
I2
I1
I1
tp2746
(dp2747
g5
I0
sg6
I0
sg7
I0
sg8
I0
sg9
I0
ss(I2
I0
I2
I1
I0
tp2748
(dp2749
g5
I0
sg6
I0
sg7
I0
sg8
I0
sg9
I0
ss(I1
I1
I0
I2
I0
tp2750
(dp2751
g5
I0
sg6
I0
sg7
I0
sg8
I0
sg9
I0
ss(I2
I1
I2
I0
I1
tp2752
(dp2753
g5
I0
sg6
F1.582878868151877
sg7
F-8.900363094213525
sg8
F-1.0501930012583336
sg9
F0.5004481977834376
ss(I2
I1
I1
I0
I1
tp2754
(dp2755
g5
I0
sg6
F6.231585701530032
sg7
F-34.627574434539355
sg8
F-0.584702280715592
sg9
F-0.20180637318880262
ss(I1
I1
I2
I0
I0
tp2756
(dp2757
g5
I0
sg6
I0
sg7
I0
sg8
I0
sg9
I0
ss(I0
I0
I1
I0
I1
tp2758
(dp2759
g5
I0
sg6
F0.814469203808111
sg7
F-27.722830516649942
sg8
F0.49458746138030985
sg9
F6.665377531983026
ss(I0
I0
I2
I2
I0
tp2760
(dp2761
g5
I0
sg6
I0
sg7
I0
sg8
I0
sg9
I0
ss(I1
I1
I0
I0
I1
tp2762
(dp2763
g5
I0
sg6
F3.771811327936905
sg7
F-30.16387580106393
sg8
F5.827003361645504
sg9
F-1.961125839939013
ss(I0
I1
I0
I0
I1
tp2764
(dp2765
g5
I0
sg6
F-1.015490357337679
sg7
F-29.36205682969996
sg8
F6.11697379372022
sg9
F-0.3490441107439509
ss(I1
I2
I2
I0
I0
tp2766
(dp2767
g5
I0
sg6
I0
sg7
I0
sg8
I0
sg9
I0
ss(I2
I1
I0
I0
I0
tp2768
(dp2769
g5
I0
sg6
I0
sg7
I0
sg8
I0
sg9
I0
ss(I2
I1
I2
I2
I1
tp2770
(dp2771
g5
I0
sg6
I0
sg7
I0
sg8
I0
sg9
I0
ss(I1
I2
I1
I0
I0
tp2772
(dp2773
g5
I0
sg6
I0
sg7
I0
sg8
I0
sg9
I0
ss(I2
I0
I0
I0
I1
tp2774
(dp2775
g5
I0
sg6
F11.616856035599152
sg7
F-33.10926894523884
sg8
F-2.741482630734687
sg9
F-3.551028310560106
ss(I1
I2
I2
I1
I0
tp2776
(dp2777
g5
I0
sg6
I0
sg7
I0
sg8
I0
sg9
I0
ss(I0
I2
I2
I1
I0
tp2778
(dp2779
g5
I0
sg6
I0
sg7
I0
sg8
I0
sg9
I0
ss(I2
I0
I1
I0
I1
tp2780
(dp2781
g5
I0
sg6
F7.809163799477762
sg7
F-34.908545334699525
sg8
F-4.808168967806727
sg9
F1.7380417650067206
ss(I2
I1
I2
I1
I0
tp2782
(dp2783
g5
I0
sg6
I0
sg7
I0
sg8
I0
sg9
I0
ss(I1
I0
I0
I0
I0
tp2784
(dp2785
g5
I0
sg6
I0
sg7
I0
sg8
I0
sg9
I0
ss(I0
I0
I0
I2
I0
tp2786
(dp2787
g5
I0
sg6
I0
sg7
I0
sg8
I0
sg9
I0
ss(I2
I2
I1
I2
I0
tp2788
(dp2789
g5
I0
sg6
I0
sg7
I0
sg8
I0
sg9
I0
ss(I0
I2
I1
I1
I0
tp2790
(dp2791
g5
I0
sg6
I0
sg7
I0
sg8
I0
sg9
I0
ss(I2
I2
I0
I1
I0
tp2792
(dp2793
g5
I0
sg6
I0
sg7
I0
sg8
I0
sg9
I0
ss(I1
I1
I2
I0
I1
tp2794
(dp2795
g5
I0
sg6
F-0.5449030088721439
sg7
F-35.32015364811454
sg8
F-0.7778030450756548
sg9
F6.572670021775993
ss(I2
I1
I0
I0
I1
tp2796
(dp2797
g5
I0
sg6
F6.89058476012945
sg7
F-35.182571139747125
sg8
F0.7849802471090854
sg9
F-4.1775908392465295
ss(I0
I1
I0
I2
I1
tp2798
(dp2799
g5
I0
sg6
I0
sg7
I0
sg8
I0
sg9
I0
ss(I0
I1
I1
I1
I0
tp2800
(dp2801
g5
I0
sg6
I0
sg7
I0
sg8
I0
sg9
I0
ss(I0
I1
I0
I0
I0
tp2802
(dp2803
g5
I0
sg6
I0
sg7
I0
sg8
I0
sg9
I0
ss(I0
I2
I0
I0
I1
tp2804
(dp2805
g5
I0
sg6
F-2.6240740399898526
sg7
F-33.480837483582704
sg8
F13.488854294581648
sg9
F-2.0376649913612175
ss(I0
I1
I2
I0
I0
tp2806
(dp2807
g5
I0
sg6
I0
sg7
I0
sg8
I0
sg9
I0
ss(I1
I1
I1
I0
I0
tp2808
(dp2809
g5
I0
sg6
I0
sg7
I0
sg8
I0
sg9
I0
ss(I1
I0
I2
I1
I1
tp2810
(dp2811
g5
I0
sg6
I0
sg7
I0
sg8
I0
sg9
I0
ss(I2
I0
I0
I0
I0
tp2812
(dp2813
g5
I0
sg6
I0
sg7
I0
sg8
I0
sg9
I0
ss(I1
I1
I2
I1
I0
tp2814
(dp2815
g5
I0
sg6
I0
sg7
I0
sg8
I0
sg9
I0
ss(I1
I0
I2
I0
I0
tp2816
(dp2817
g5
I0
sg6
I0
sg7
I0
sg8
I0
sg9
I0
ss(I1
I0
I1
I0
I1
tp2818
(dp2819
g5
I0
sg6
F4.2915817394126154
sg7
F-29.475540927124094
sg8
F-0.9544024752509104
sg9
F6.748476373479516
ss(I0
I2
I2
I1
I1
tp2820
(dp2821
g5
I0
sg6
I0
sg7
I0
sg8
I0
sg9
I0
ss(I2
I2
I0
I2
I1
tp2822
(dp2823
g5
I0
sg6
I0
sg7
I0
sg8
I0
sg9
I0
ss(I0
I2
I0
I2
I0
tp2824
(dp2825
g5
I0
sg6
I0
sg7
I0
sg8
I0
sg9
I0
ss(I2
I2
I1
I1
I1
tp2826
(dp2827
g5
I0
sg6
I0
sg7
I0
sg8
I0
sg9
I0
ss(I1
I0
I0
I0
I1
tp2828
(dp2829
g5
I0
sg6
F6.511420920964759
sg7
F-29.62274239951564
sg8
F-1.2984402117176204
sg9
F0.012706030230171028
ss(I2
I1
I0
I2
I0
tp2830
(dp2831
g5
I0
sg6
I0
sg7
I0
sg8
I0
sg9
I0
ss(I0
I2
I2
I2
I0
tp2832
(dp2833
g5
I0
sg6
I0
sg7
I0
sg8
I0
sg9
I0
ss(I0
I2
I2
I2
I1
tp2834
(dp2835
g5
I0
sg6
I0
sg7
I0
sg8
I0
sg9
I0
ss(I2
I2
I0
I1
I1
tp2836
(dp2837
g5
I0
sg6
I0
sg7
I0
sg8
I0
sg9
I0
ss(I2
I0
I2
I2
I1
tp2838
(dp2839
g5
I0
sg6
I0
sg7
I0
sg8
I0
sg9
I0
ss(I0
I1
I0
I1
I1
tp2840
(dp2841
g5
I0
sg6
I0
sg7
I0
sg8
I0
sg9
I0
ss(I1
I2
I1
I1
I0
tp2842
(dp2843
g5
I0
sg6
I0
sg7
I0
sg8
I0
sg9
I0
ss(I0
I1
I0
I2
I0
tp2844
(dp2845
g5
I0
sg6
I0
sg7
I0
sg8
I0
sg9
I0
ss(I0
I1
I1
I2
I1
tp2846
(dp2847
g5
I0
sg6
I0
sg7
I0
sg8
I0
sg9
I0
ss(I1
I1
I2
I2
I1
tp2848
(dp2849
g5
I0
sg6
I0
sg7
I0
sg8
I0
sg9
I0
ss(I0
I1
I1
I1
I1
tp2850
(dp2851
g5
I0
sg6
I0
sg7
I0
sg8
I0
sg9
I0
ss(I1
I2
I0
I2
I0
tp2852
(dp2853
g5
I0
sg6
I0
sg7
I0
sg8
I0
sg9
I0
ss(I0
I0
I2
I0
I0
tp2854
(dp2855
g5
I0
sg6
I0
sg7
I0
sg8
I0
sg9
I0
ss(I0
I2
I0
I0
I0
tp2856
(dp2857
g5
I0
sg6
I0
sg7
I0
sg8
I0
sg9
I0
ss(I0
I1
I2
I0
I1
tp2858
(dp2859
g5
I0
sg6
F-3.987845602007776
sg7
F-34.366597585903236
sg8
F2.134988514238437
sg9
F8.42406929089872
ss(I1
I1
I1
I0
I1
tp2860
(dp2861
g5
I0
sg6
F5.25742318276518
sg7
F-33.27339635754435
sg8
F0.6206285592761027
sg9
F1.5508426731589122
ss(I0
I0
I0
I2
I1
tp2862
(dp2863
g5
I0
sg6
I0
sg7
I0
sg8
I0
sg9
I0
ss(I1
I0
I2
I1
I0
tp2864
(dp2865
g5
I0
sg6
I0
sg7
I0
sg8
I0
sg9
I0
ss(I1
I1
I2
I1
I1
tp2866
(dp2867
g5
I0
sg6
I0
sg7
I0
sg8
I0
sg9
I0
ss(I0
I0
I1
I1
I1
tp2868
(dp2869
g5
I0
sg6
I0
sg7
I0
sg8
I0
sg9
I0
ss(I1
I0
I1
I0
I0
tp2870
(dp2871
g5
I0
sg6
I0
sg7
I0
sg8
I0
sg9
I0
ss(I0
I0
I1
I2
I1
tp2872
(dp2873
g5
I0
sg6
I0
sg7
I0
sg8
I0
sg9
I0
ss(I2
I0
I2
I2
I0
tp2874
(dp2875
g5
I0
sg6
I0
sg7
I0
sg8
I0
sg9
I0
ss(I0
I2
I0
I2
I1
tp2876
(dp2877
g5
I0
sg6
I0
sg7
I0
sg8
I0
sg9
I0
ss(I0
I0
I0
I0
I1
tp2878
(dp2879
g5
I0
sg6
F2.6852232010943373
sg7
F-29.22865885295173
sg8
F3.835343649002633
sg9
F1.6542357751656458
ss(I2
I2
I1
I1
I0
tp2880
(dp2881
g5
I0
sg6
I0
sg7
I0
sg8
I0
sg9
I0
ss(I0
I0
I0
I0
I0
tp2882
(dp2883
g5
I0
sg6
I0
sg7
I0
sg8
I0
sg9
I0
ss(I2
I2
I0
I2
I0
tp2884
(dp2885
g5
I0
sg6
I0
sg7
I0
sg8
I0
sg9
I0
ss(I1
I2
I0
I1
I1
tp2886
(dp2887
g5
I0
sg6
I0
sg7
I0
sg8
I0
sg9
I0
ss(I2
I0
I1
I1
I0
tp2888
(dp2889
g5
I0
sg6
I0
sg7
I0
sg8
I0
sg9
I0
ss(I0
I1
I0
I1
I0
tp2890
(dp2891
g5
I0
sg6
I0
sg7
I0
sg8
I0
sg9
I0
ss(I1
I2
I1
I2
I1
tp2892
(dp2893
g5
I0
sg6
I0
sg7
I0
sg8
I0
sg9
I0
ss(I1
I2
I1
I1
I1
tp2894
(dp2895
g5
I0
sg6
I0
sg7
I0
sg8
I0
sg9
I0
ss(I0
I2
I1
I0
I0
tp2896
(dp2897
g5
I0
sg6
I0
sg7
I0
sg8
I0
sg9
I0
ss(I0
I1
I1
I2
I0
tp2898
(dp2899
g5
I0
sg6
I0
sg7
I0
sg8
I0
sg9
I0
ss(I0
I0
I0
I1
I0
tp2900
(dp2901
g5
I0
sg6
I0
sg7
I0
sg8
I0
sg9
I0
ss(I1
I1
I2
I2
I0
tp2902
(dp2903
g5
I0
sg6
I0
sg7
I0
sg8
I0
sg9
I0
ss(I1
I2
I0
I2
I1
tp2904
(dp2905
g5
I0
sg6
I0
sg7
I0
sg8
I0
sg9
I0
ss(I2
I1
I1
I2
I1
tp2906
(dp2907
g5
I0
sg6
I0
sg7
I0
sg8
I0
sg9
I0
ss(I2
I0
I1
I2
I0
tp2908
(dp2909
g5
I0
sg6
I0
sg7
I0
sg8
I0
sg9
I0
ss(I2
I1
I0
I1
I1
tp2910
(dp2911
g5
I0
sg6
I0
sg7
I0
sg8
I0
sg9
I0
ss(I1
I2
I0
I1
I0
tp2912
(dp2913
g5
I0
sg6
I0
sg7
I0
sg8
I0
sg9
I0
ss(I2
I2
I2
I0
I1
tp2914
(dp2915
g5
I0
sg6
I0
sg7
I0
sg8
I0
sg9
F0.0
ss(I2
I1
I0
I2
I1
tp2916
(dp2917
g5
I0
sg6
I0
sg7
I0
sg8
I0
sg9
I0
ss(I0
I2
I1
I2
I0
tp2918
(dp2919
g5
I0
sg6
I0
sg7
I0
sg8
I0
sg9
I0
ss(I0
I0
I1
I1
I0
tp2920
(dp2921
g5
I0
sg6
I0
sg7
I0
sg8
I0
sg9
I0
ss(I2
I2
I0
I0
I0
tp2922
(dp2923
g5
I0
sg6
I0
sg7
I0
sg8
I0
sg9
I0
ss(I0
I2
I1
I0
I1
tp2924
(dp2925
g5
I0
sg6
F-2.5406185455158674
sg7
F-34.83595215103337
sg8
F6.924670348571343
sg9
F1.6727574161417438
ss(I2
I0
I0
I2
I0
tp2926
(dp2927
g5
I0
sg6
I0
sg7
I0
sg8
I0
sg9
I0
ss(I0
I0
I0
I1
I1
tp2928
(dp2929
g5
I0
sg6
I0
sg7
I0
sg8
I0
sg9
I0
ss(I0
I0
I1
I2
I0
tp2930
(dp2931
g5
I0
sg6
I0
sg7
I0
sg8
I0
sg9
I0
ss(I1
I0
I2
I0
I1
tp2932
(dp2933
g5
I0
sg6
F1.583194350529195
sg7
F-33.13163088550161
sg8
F-4.342079083277469
sg9
F6.873808887123889
ssaa.