(dp0
(cnumpy.core.multiarray
scalar
p1
(cnumpy
dtype
p2
(S'S5'
p3
I0
I1
tp4
Rp5
(I3
S'|'
p6
NNNI5
I1
I0
tp7
bS'right'
p8
tp9
Rp10
S'green'
p11
I01
NI01
tp12
(dp13
S'forward'
p14
F0.75
sNF-4.921875
sS'right'
p15
F0.0
ss(g1
(g2
(S'S5'
p16
I0
I1
tp17
Rp18
(I3
S'|'
p19
NNNI5
I1
I0
tp20
bS'right'
p21
tp22
Rp23
g11
NI01
I01
tp24
(dp25
NF0.0
sg15
F0.0
sS'left'
p26
F-0.5
ss(g1
(g2
(S'S5'
p27
I0
I1
tp28
Rp29
(I3
S'|'
p30
NNNI5
I1
I0
tp31
bS'right'
p32
tp33
Rp34
S'red'
p35
I01
NI01
tp36
(dp37
g14
F-49.609375
sNF0.0
sg15
F-49.8046875
ss(g1
(g2
(S'S7'
p38
I0
I1
tp39
Rp40
(I3
S'|'
p41
NNNI7
I1
I0
tp42
bS'forward'
p43
tp44
Rp45
g11
I01
I01
Ntp46
(dp47
g14
F-15.0
sNF-2.5
sg26
F0.0
ss(g1
(g2
(S'S4'
p48
I0
I1
tp49
Rp50
(I3
S'|'
p51
NNNI4
I1
I0
tp52
bS'left'
p53
tp54
Rp55
g11
I01
I01
Ntp56
(dp57
g14
F0.5
sNF0.0
sg26
F0.0
ss(g14
g11
I01
NNtp58
(dp59
g14
F-3.75
sNF0.0
ss(g1
(g2
(S'S5'
p60
I0
I1
tp61
Rp62
(I3
S'|'
p63
NNNI5
I1
I0
tp64
bS'right'
p65
tp66
Rp67
g11
I00
NI01
tp68
(dp69
g14
F0.0
sNF-2.5
sg15
F0.0
ss(g1
(g2
(S'S4'
p70
I0
I1
tp71
Rp72
(I3
S'|'
p73
NNNI4
I1
I0
tp74
bS'left'
p75
tp76
Rp77
g35
I01
I01
Ntp78
(dp79
g14
F0.0
sNF0.0
sg26
F-37.5
ss(g1
(g2
(S'S7'
p80
I0
I1
tp81
Rp82
(I3
S'|'
p83
NNNI7
I1
I0
tp84
bS'forward'
p85
tp86
Rp87
g35
I01
NI01
tp88
(dp89
g14
F-43.75
sNF0.0
sg15
F-49.609375
ss(g1
(g2
(S'S7'
p90
I0
I1
tp91
Rp92
(I3
S'|'
p93
NNNI7
I1
I0
tp94
bS'forward'
p95
tp96
Rp97
g11
I01
NI01
tp98
(dp99
g14
F0.0
sNF-4.6875
sg15
F0.5
ss(g1
(g2
(S'S7'
p100
I0
I1
tp101
Rp102
(I3
S'|'
p103
NNNI7
I1
I0
tp104
bS'forward'
p105
tp106
Rp107
g35
I01
I01
Ntp108
(dp109
g14
F-25.0
sNF0.0
sg26
F-46.875
ss(g1
(g2
(S'S5'
p110
I0
I1
tp111
Rp112
(I3
S'|'
p113
NNNI5
I1
I0
tp114
bS'right'
p115
tp116
Rp117
g35
NI01
I01
tp118
(dp119
NF0.0
sg15
F-25.0
sg26
F-37.5
ss(g1
(g2
(S'S5'
p120
I0
I1
tp121
Rp122
(I3
S'|'
p123
NNNI5
I1
I0
tp124
bS'right'
p125
tp126
Rp127
g35
I01
NI00
tp128
(dp129
g14
F-25.0
sNF0.0
sg15
F0.0
ss.