(dp0
(cnumpy.core.multiarray
scalar
p1
(cnumpy
dtype
p2
(S'S5'
p3
I0
I1
tp4
Rp5
(I3
S'|'
p6
NNNI5
I1
I0
tp7
bS'right'
p8
tp9
Rp10
S'red'
p11
I01
I01
I01
tp12
(dp13
S'forward'
p14
F-50.0
sNF0.0
sS'right'
p15
F-50.0
sS'left'
p16
F-50.0
ss(g1
(g2
(S'S4'
p17
I0
I1
tp18
Rp19
(I3
S'|'
p20
NNNI4
I1
I0
tp21
bS'left'
p22
tp23
Rp24
S'green'
p25
I01
I00
I01
tp26
(dp27
g14
F-0.7973175048828125
sNF-4.6875
sg15
F-0.22660541534423828
sg16
F-44.97802734375
ss(g1
(g2
(S'S5'
p28
I0
I1
tp29
Rp30
(I3
S'|'
p31
NNNI5
I1
I0
tp32
bS'right'
p33
tp34
Rp35
g11
NI00
I01
tp36
(dp37
NF0.0
sg15
F-50.0
sg16
F-50.0
ss(g1
(g2
(S'S7'
p38
I0
I1
tp39
Rp40
(I3
S'|'
p41
NNNI7
I1
I0
tp42
bS'forward'
p43
tp44
Rp45
g11
I00
NI01
tp46
(dp47
g14
F-49.99999999999716
sNF0.0
sg15
F-49.999999999954525
ss(g1
(g2
(S'S4'
p48
I0
I1
tp49
Rp50
(I3
S'|'
p51
NNNI4
I1
I0
tp52
bS'left'
p53
tp54
Rp55
g25
NI01
I00
tp56
(dp57
NF-4.999999925494194
sg15
F-49.99980926513672
sg16
F4.031251490703652
ss(g1
(g2
(S'S5'
p58
I0
I1
tp59
Rp60
(I3
S'|'
p61
NNNI5
I1
I0
tp62
bS'right'
p63
tp64
Rp65
g25
I00
I01
I01
tp66
(dp67
g14
F-49.951171875
sNF-4.375
sg15
F5.994865417480469
sg16
F0.4892578125
ss(g1
(g2
(S'S7'
p68
I0
I1
tp69
Rp70
(I3
S'|'
p71
NNNI7
I1
I0
tp72
bS'forward'
p73
tp74
Rp75
g11
I00
I01
Ntp76
(dp77
g14
F-50.0
sNF0.0
sg16
F-49.99999999999998
ss(g1
(g2
(S'S4'
p78
I0
I1
tp79
Rp80
(I3
S'|'
p81
NNNI4
I1
I0
tp82
bS'left'
p83
tp84
Rp85
g11
I00
I01
I01
tp86
(dp87
g14
F-49.99999999990905
sNF0.0
sg15
F-49.999999999994316
sg16
F-49.999999999272404
ss(g1
(g2
(S'S7'
p88
I0
I1
tp89
Rp90
(I3
S'|'
p91
NNNI7
I1
I0
tp92
bS'forward'
p93
tp94
Rp95
g11
I01
I01
I01
tp96
(dp97
g14
F-50.0
sNF0.0
sg15
F-50.0
sg16
F-50.0
ss(g14
g25
I01
NNtp98
(dp99
g14
F-3.593749999978177
sNF-5.0
ss(g1
(g2
(S'S5'
p100
I0
I1
tp101
Rp102
(I3
S'|'
p103
NNNI5
I1
I0
tp104
bS'right'
p105
tp106
Rp107
g11
I01
NI00
tp108
(dp109
g14
F-49.99999999990905
sNF0.0
sg15
F-49.9999999996362
ss(g1
(g2
(S'S7'
p110
I0
I1
tp111
Rp112
(I3
S'|'
p113
NNNI7
I1
I0
tp114
bS'forward'
p115
tp116
Rp117
g11
I01
NI01
tp118
(dp119
g14
F-50.0
sNF0.0
sg15
F-50.0
ss(g1
(g2
(S'S5'
p120
I0
I1
tp121
Rp122
(I3
S'|'
p123
NNNI5
I1
I0
tp124
bS'right'
p125
tp126
Rp127
g25
I01
I01
I01
tp128
(dp129
g14
F-0.589620670278804
sNF-5.0
sg15
F5.987773679221035
sg16
F0.7237227607741372
ss(g1
(g2
(S'S5'
p130
I0
I1
tp131
Rp132
(I3
S'|'
p133
NNNI5
I1
I0
tp134
bS'right'
p135
tp136
Rp137
g25
I01
NI00
tp138
(dp139
g14
F0.49199652671813965
sNF-4.9951171875
sg15
F-44.6484375
ss(g1
(g2
(S'S7'
p140
I0
I1
tp141
Rp142
(I3
S'|'
p143
NNNI7
I1
I0
tp144
bS'forward'
p145
tp146
Rp147
g11
I00
I01
I01
tp148
(dp149
g14
F-49.99997615814209
sNF0.0
sg15
F-49.999999976716936
sg16
F-49.999999813735485
ss(g1
(g2
(S'S4'
p150
I0
I1
tp151
Rp152
(I3
S'|'
p153
NNNI4
I1
I0
tp154
bS'left'
p155
tp156
Rp157
g11
I01
I01
I01
tp158
(dp159
g14
F-50.0
sNF0.0
sg15
F-50.0
sg16
F-50.0
ss(g1
(g2
(S'S7'
p160
I0
I1
tp161
Rp162
(I3
S'|'
p163
NNNI7
I1
I0
tp164
bS'forward'
p165
tp166
Rp167
g11
I01
I00
I01
tp168
(dp169
g14
F-49.99997615814209
sNF0.0
sg15
F-49.99999962747097
sg16
F-49.99847412109375
ss(g1
(g2
(S'S4'
p170
I0
I1
tp171
Rp172
(I3
S'|'
p173
NNNI4
I1
I0
tp174
bS'left'
p175
tp176
Rp177
g11
NI01
I00
tp178
(dp179
NF0.0
sg15
F-50.0
sg16
F-50.0
ss(g1
(g2
(S'S7'
p180
I0
I1
tp181
Rp182
(I3
S'|'
p183
NNNI7
I1
I0
tp184
bS'forward'
p185
tp186
Rp187
g25
I01
I01
I01
tp188
(dp189
g14
F5.700918078124066
sNF-5.0
sg15
F0.6915722859689217
sg16
F-0.6698741290272995
ss(g1
(g2
(S'S4'
p190
I0
I1
tp191
Rp192
(I3
S'|'
p193
NNNI4
I1
I0
tp194
bS'left'
p195
tp196
Rp197
g11
I01
I00
I01
tp198
(dp199
g14
F-49.99999999997726
sNF0.0
sg15
F-49.999999994179234
sg16
F-49.9999999998181
ss(g1
(g2
(S'S7'
p200
I0
I1
tp201
Rp202
(I3
S'|'
p203
NNNI7
I1
I0
tp204
bS'forward'
p205
tp206
Rp207
g25
I01
I00
Ntp208
(dp209
g14
F5.156862579348828
sNF-4.9999988079071045
sg16
F-49.999237060546875
ss(g1
(g2
(S'S7'
p210
I0
I1
tp211
Rp212
(I3
S'|'
p213
NNNI7
I1
I0
tp214
bS'forward'
p215
tp216
Rp217
g25
I01
I00
I01
tp218
(dp219
g14
F5.998779296875
sNF-4.375
sg15
F-0.607177734375
sg16
F-48.4375
ss(g1
(g2
(S'S4'
p220
I0
I1
tp221
Rp222
(I3
S'|'
p223
NNNI4
I1
I0
tp224
bS'left'
p225
tp226
Rp227
g25
I00
I01
Ntp228
(dp229
g14
F-49.99999962747097
sNF-4.999999925494194
sg16
F4.064703263735128
ss(g1
(g2
(S'S5'
p230
I0
I1
tp231
Rp232
(I3
S'|'
p233
NNNI5
I1
I0
tp234
bS'right'
p235
tp236
Rp237
g25
NI01
I00
tp238
(dp239
NF-4.999999962747097
sg15
F-44.999999999994884
sg16
F0.49781647280640395
ss(g1
(g2
(S'S4'
p240
I0
I1
tp241
Rp242
(I3
S'|'
p243
NNNI4
I1
I0
tp244
bS'left'
p245
tp246
Rp247
g25
I01
I00
Ntp248
(dp249
g14
F0.40738199692827237
sNF-4.999999995343387
sg16
F-44.99997854232788
ss(g1
(g2
(S'S5'
p250
I0
I1
tp251
Rp252
(I3
S'|'
p253
NNNI5
I1
I0
tp254
bS'right'
p255
tp256
Rp257
g11
I00
I01
I01
tp258
(dp259
g14
F-49.99999998835847
sNF0.0
sg15
F-49.99999999708962
sg16
F-49.999999999954525
ss(g1
(g2
(S'S4'
p260
I0
I1
tp261
Rp262
(I3
S'|'
p263
NNNI4
I1
I0
tp264
bS'left'
p265
tp266
Rp267
g25
I01
I01
I01
tp268
(dp269
g14
F0.9368304589992797
sNF-5.0
sg15
F-0.1330023468831435
sg16
F5.543660175608831
ss(g1
(g2
(S'S5'
p270
I0
I1
tp271
Rp272
(I3
S'|'
p273
NNNI5
I1
I0
tp274
bS'right'
p275
tp276
Rp277
g11
I00
NI01
tp278
(dp279
g14
F-49.99999999999999
sNF0.0
sg15
F-49.99999999999996
ss(g1
(g2
(S'S5'
p280
I0
I1
tp281
Rp282
(I3
S'|'
p283
NNNI5
I1
I0
tp284
bS'right'
p285
tp286
Rp287
g11
I01
I00
I01
tp288
(dp289
g14
F-49.9999999996362
sNF0.0
sg15
F-49.999999999272404
sg16
F-49.999999999999915
ss(g1
(g2
(S'S7'
p290
I0
I1
tp291
Rp292
(I3
S'|'
p293
NNNI7
I1
I0
tp294
bS'forward'
p295
tp296
Rp297
g11
I01
I01
I00
tp298
(dp299
g14
F-49.999999994179234
sNF0.0
sg15
F-49.99999999990905
sg16
F-49.99999403953552
ss(g1
(g2
(S'S7'
p300
I0
I1
tp301
Rp302
(I3
S'|'
p303
NNNI7
I1
I0
tp304
bS'forward'
p305
tp306
Rp307
g25
I00
I01
I01
tp308
(dp309
g14
F-44.9560546875
sNF-4.9609375
sg15
F-0.397216796875
sg16
F-0.6875
ss(g1
(g2
(S'S4'
p310
I0
I1
tp311
Rp312
(I3
S'|'
p313
NNNI4
I1
I0
tp314
bS'left'
p315
tp316
Rp317
g25
NI01
I01
tp318
(dp319
NF-5.0
sg15
F-0.7611761060655631
sg16
F4.0156289339213345
ss(g1
(g2
(S'S5'
p320
I0
I1
tp321
Rp322
(I3
S'|'
p323
NNNI5
I1
I0
tp324
bS'right'
p325
tp326
Rp327
g11
NI01
I00
tp328
(dp329
NF0.0
sg15
F-50.0
sg16
F-50.0
ss(g1
(g2
(S'S5'
p330
I0
I1
tp331
Rp332
(I3
S'|'
p333
NNNI5
I1
I0
tp334
bS'right'
p335
tp336
Rp337
g25
I01
I00
I01
tp338
(dp339
g14
F0.3046875
sNF-4.98046875
sg15
F5.448488235473633
sg16
F-49.90234375
ss(g1
(g2
(S'S7'
p340
I0
I1
tp341
Rp342
(I3
S'|'
p343
NNNI7
I1
I0
tp344
bS'forward'
p345
tp346
Rp347
g25
I00
NI01
tp348
(dp349
g14
F-44.99991416931152
sNF-4.999980926513672
sg15
F-0.8745474833995104
ss(g1
(g2
(S'S7'
p350
I0
I1
tp351
Rp352
(I3
S'|'
p353
NNNI7
I1
I0
tp354
bS'forward'
p355
tp356
Rp357
g11
I01
NI00
tp358
(dp359
g14
F-49.999999999954525
sNF0.0
sg15
F-49.999999999272404
ss(g1
(g2
(S'S4'
p360
I0
I1
tp361
Rp362
(I3
S'|'
p363
NNNI4
I1
I0
tp364
bS'left'
p365
tp366
Rp367
g25
NI00
I01
tp368
(dp369
NF-4.999999995343387
sg15
F0.8274691070828297
sg16
F-44.999999997380655
ss(g1
(g2
(S'S5'
p370
I0
I1
tp371
Rp372
(I3
S'|'
p373
NNNI5
I1
I0
tp374
bS'right'
p375
tp376
Rp377
g25
I01
I01
I00
tp378
(dp379
g14
F0.9797439575195312
sNF-4.99755859375
sg15
F-44.82421875
sg16
F-0.614501953125
ss(g1
(g2
(S'S4'
p380
I0
I1
tp381
Rp382
(I3
S'|'
p383
NNNI4
I1
I0
tp384
bS'left'
p385
tp386
Rp387
g11
I01
I01
I00
tp388
(dp389
g14
F-49.99999999999716
sNF0.0
sg15
F-49.99999999854481
sg16
F-49.999999994179234
ss(g1
(g2
(S'S4'
p390
I0
I1
tp391
Rp392
(I3
S'|'
p393
NNNI4
I1
I0
tp394
bS'left'
p395
tp396
Rp397
g11
NI01
I01
tp398
(dp399
NF0.0
sg15
F-50.0
sg16
F-50.0
ss(g1
(g2
(S'S7'
p400
I0
I1
tp401
Rp402
(I3
S'|'
p403
NNNI7
I1
I0
tp404
bS'forward'
p405
tp406
Rp407
g25
I01
NI01
tp408
(dp409
g14
F4.811400398582805
sNF-5.0
sg15
F-0.06253159142488596
ss(g1
(g2
(S'S7'
p410
I0
I1
tp411
Rp412
(I3
S'|'
p413
NNNI7
I1
I0
tp414
bS'forward'
p415
tp416
Rp417
g11
I01
I01
Ntp418
(dp419
g14
F-50.0
sNF0.0
sg16
F-50.0
ss(g1
(g2
(S'S5'
p420
I0
I1
tp421
Rp422
(I3
S'|'
p423
NNNI5
I1
I0
tp424
bS'right'
p425
tp426
Rp427
g11
I01
I01
I00
tp428
(dp429
g14
F-49.999999999954525
sNF0.0
sg15
F-49.99999999854481
sg16
F-49.999999999272404
ss(g1
(g2
(S'S4'
p430
I0
I1
tp431
Rp432
(I3
S'|'
p433
NNNI4
I1
I0
tp434
bS'left'
p435
tp436
Rp437
g11
NI00
I01
tp438
(dp439
NF0.0
sg15
F-50.0
sg16
F-50.0
ss(g1
(g2
(S'S7'
p440
I0
I1
tp441
Rp442
(I3
S'|'
p443
NNNI7
I1
I0
tp444
bS'forward'
p445
tp446
Rp447
g25
I01
NI00
tp448
(dp449
g14
F4.247847080230713
sNF-4.99755859375
sg15
F-49.99999403953552
ss(g1
(g2
(S'S4'
p450
I0
I1
tp451
Rp452
(I3
S'|'
p453
NNNI4
I1
I0
tp454
bS'left'
p455
tp456
Rp457
g11
I01
I00
Ntp458
(dp459
g14
F-50.0
sNF0.0
sg16
F-50.0
ss(g1
(g2
(S'S5'
p460
I0
I1
tp461
Rp462
(I3
S'|'
p463
NNNI5
I1
I0
tp464
bS'right'
p465
tp466
Rp467
g25
I00
NI01
tp468
(dp469
g14
F-49.993896484375
sNF-4.999847412109375
sg15
F4.184318900108337
ss(g1
(g2
(S'S5'
p470
I0
I1
tp471
Rp472
(I3
S'|'
p473
NNNI5
I1
I0
tp474
bS'right'
p475
tp476
Rp477
g25
NI01
I01
tp478
(dp479
NF-5.0
sg15
F4.643266023444616
sg16
F-0.5085603118589883
ss(g1
(g2
(S'S5'
p480
I0
I1
tp481
Rp482
(I3
S'|'
p483
NNNI5
I1
I0
tp484
bS'right'
p485
tp486
Rp487
g25
I01
NI01
tp488
(dp489
g14
F-6.705763670677989e-06
sNF-5.0
sg15
F5.939208856783792
ss(g1
(g2
(S'S5'
p490
I0
I1
tp491
Rp492
(I3
S'|'
p493
NNNI5
I1
I0
tp494
bS'right'
p495
tp496
Rp497
g11
I01
NI01
tp498
(dp499
g14
F-50.0
sNF0.0
sg15
F-50.0
ss(g1
(g2
(S'S7'
p500
I0
I1
tp501
Rp502
(I3
S'|'
p503
NNNI7
I1
I0
tp504
bS'forward'
p505
tp506
Rp507
g25
I01
I01
I00
tp508
(dp509
g14
F5.8984375
sNF-4.98046875
sg15
F-43.75
sg16
F0.5078125
ss(g1
(g2
(S'S4'
p510
I0
I1
tp511
Rp512
(I3
S'|'
p513
NNNI4
I1
I0
tp514
bS'left'
p515
tp516
Rp517
g25
I01
I01
I00
tp518
(dp519
g14
F0.4921875
sNF-4.99969482421875
sg15
F-49.9969482421875
sg16
F5.414344787597656
ss(g1
(g2
(S'S7'
p520
I0
I1
tp521
Rp522
(I3
S'|'
p523
NNNI7
I1
I0
tp524
bS'forward'
p525
tp526
Rp527
g25
I01
I01
Ntp528
(dp529
g14
F4.814709678448709
sNF-5.0
sg16
F0.40234278887486086
ss(g1
(g2
(S'S4'
p530
I0
I1
tp531
Rp532
(I3
S'|'
p533
NNNI4
I1
I0
tp534
bS'left'
p535
tp536
Rp537
g25
I01
I01
Ntp538
(dp539
g14
F0.36606477616777433
sNF-5.0
sg16
F5.4263870484081025
ss(g1
(g2
(S'S4'
p540
I0
I1
tp541
Rp542
(I3
S'|'
p543
NNNI4
I1
I0
tp544
bS'left'
p545
tp546
Rp547
g25
I00
I01
I01
tp548
(dp549
g14
F-49.8046875
sNF-4.921875
sg15
F0.3984375
sg16
F5.07666015625
ss(g1
(g2
(S'S7'
p550
I0
I1
tp551
Rp552
(I3
S'|'
p553
NNNI7
I1
I0
tp554
bS'forward'
p555
tp556
Rp557
g25
I00
I01
Ntp558
(dp559
g14
F-44.999999329447746
sNF-4.999999998835847
sg16
F0.9994428767820409
ss(g1
(g2
(S'S5'
p560
I0
I1
tp561
Rp562
(I3
S'|'
p563
NNNI5
I1
I0
tp564
bS'right'
p565
tp566
Rp567
g25
NI00
I01
tp568
(dp569
NF-4.99999999992724
sg15
F4.583184959943588
sg16
F-49.9999999996362
ss(g1
(g2
(S'S4'
p570
I0
I1
tp571
Rp572
(I3
S'|'
p573
NNNI4
I1
I0
tp574
bS'left'
p575
tp576
Rp577
g11
I01
I01
Ntp578
(dp579
g14
F-50.0
sNF0.0
sg16
F-50.0
ss(g1
(g2
(S'S7'
p580
I0
I1
tp581
Rp582
(I3
S'|'
p583
NNNI7
I1
I0
tp584
bS'forward'
p585
tp586
Rp587
g11
I01
I00
Ntp588
(dp589
g14
F-50.0
sNF0.0
sg16
F-50.0
ss(g1
(g2
(S'S4'
p590
I0
I1
tp591
Rp592
(I3
S'|'
p593
NNNI4
I1
I0
tp594
bS'left'
p595
tp596
Rp597
g11
I00
I01
Ntp598
(dp599
g14
F-50.0
sNF0.0
sg16
F-50.0
ss(g1
(g2
(S'S5'
p600
I0
I1
tp601
Rp602
(I3
S'|'
p603
NNNI5
I1
I0
tp604
bS'right'
p605
tp606
Rp607
g11
NI01
I01
tp608
(dp609
NF0.0
sg15
F-50.0
sg16
F-50.0
ss.