(dp0
(cnumpy.core.multiarray
scalar
p1
(cnumpy
dtype
p2
(S'S5'
p3
I0
I1
tp4
Rp5
(I3
S'|'
p6
NNNI5
I1
I0
tp7
bS'right'
p8
tp9
Rp10
S'red'
p11
I01
I01
I01
tp12
(dp13
S'forward'
p14
F-50.0
sNF0.0
sS'right'
p15
F-49.999999999999645
sS'left'
p16
F-49.99999999999999
ss(g1
(g2
(S'S4'
p17
I0
I1
tp18
Rp19
(I3
S'|'
p20
NNNI4
I1
I0
tp21
bS'left'
p22
tp23
Rp24
S'green'
p25
I01
I00
I01
tp26
(dp27
g14
F0.0
sNF-2.5
sg15
F0.0
sg16
F0.0
ss(g1
(g2
(S'S5'
p28
I0
I1
tp29
Rp30
(I3
S'|'
p31
NNNI5
I1
I0
tp32
bS'right'
p33
tp34
Rp35
g11
I00
NI01
tp36
(dp37
g14
F-49.21875
sNF0.0
sg15
F-25.0
ss(g1
(g2
(S'S7'
p38
I0
I1
tp39
Rp40
(I3
S'|'
p41
NNNI7
I1
I0
tp42
bS'forward'
p43
tp44
Rp45
g11
I00
NI01
tp46
(dp47
g14
F-48.4375
sNF0.0
sg15
F-48.4375
ss(g1
(g2
(S'S7'
p48
I0
I1
tp49
Rp50
(I3
S'|'
p51
NNNI7
I1
I0
tp52
bS'forward'
p53
tp54
Rp55
g25
I01
I01
I00
tp56
(dp57
g14
F-0.5
sNF0.0
sg15
F0.0
sg16
F-0.5
ss(g1
(g2
(S'S5'
p58
I0
I1
tp59
Rp60
(I3
S'|'
p61
NNNI5
I1
I0
tp62
bS'right'
p63
tp64
Rp65
g25
I00
I01
I01
tp66
(dp67
g14
F-37.5
sNF0.0
sg15
F0.0
sg16
F0.5
ss(g1
(g2
(S'S7'
p68
I0
I1
tp69
Rp70
(I3
S'|'
p71
NNNI7
I1
I0
tp72
bS'forward'
p73
tp74
Rp75
g11
I00
I01
Ntp76
(dp77
g14
F-43.75
sNF0.0
sg16
F-49.951171875
ss(g1
(g2
(S'S4'
p78
I0
I1
tp79
Rp80
(I3
S'|'
p81
NNNI4
I1
I0
tp82
bS'left'
p83
tp84
Rp85
g11
I00
I01
I01
tp86
(dp87
g14
F-43.75
sNF0.0
sg15
F-43.75
sg16
F0.0
ss(g1
(g2
(S'S7'
p88
I0
I1
tp89
Rp90
(I3
S'|'
p91
NNNI7
I1
I0
tp92
bS'forward'
p93
tp94
Rp95
g11
I01
I01
I01
tp96
(dp97
g14
F-49.99999925494194
sNF0.0
sg15
F-49.99999999997726
sg16
F-49.99999925494194
ss(g14
g25
I01
NNtp98
(dp99
g14
F-3.4594784141806723
sNF-5.0
ss(g1
(g2
(S'S5'
p100
I0
I1
tp101
Rp102
(I3
S'|'
p103
NNNI5
I1
I0
tp104
bS'right'
p105
tp106
Rp107
g11
I01
NI00
tp108
(dp109
g14
F-46.875
sNF0.0
sg15
F0.0
ss(g1
(g2
(S'S7'
p110
I0
I1
tp111
Rp112
(I3
S'|'
p113
NNNI7
I1
I0
tp114
bS'forward'
p115
tp116
Rp117
g11
I01
NI01
tp118
(dp119
g14
F-50.0
sNF0.0
sg15
F-50.0
ss(g1
(g2
(S'S5'
p120
I0
I1
tp121
Rp122
(I3
S'|'
p123
NNNI5
I1
I0
tp124
bS'right'
p125
tp126
Rp127
g25
I01
I01
I01
tp128
(dp129
g14
F-0.00274658203125
sNF-4.9951171875
sg15
F-0.401123046875
sg16
F0.4456787109375
ss(g1
(g2
(S'S7'
p130
I0
I1
tp131
Rp132
(I3
S'|'
p133
NNNI7
I1
I0
tp134
bS'forward'
p135
tp136
Rp137
g25
I01
NI01
tp138
(dp139
g14
F0.9980462193489074
sNF-5.0
sg15
F0.9671896621529754
ss(g1
(g2
(S'S5'
p140
I0
I1
tp141
Rp142
(I3
S'|'
p143
NNNI5
I1
I0
tp144
bS'right'
p145
tp146
Rp147
g25
I01
NI00
tp148
(dp149
g14
F0.75
sNF-2.5
sg15
F-25.0
ss(g1
(g2
(S'S7'
p150
I0
I1
tp151
Rp152
(I3
S'|'
p153
NNNI7
I1
I0
tp154
bS'forward'
p155
tp156
Rp157
g11
I01
I00
I01
tp158
(dp159
g14
F0.0
sNF0.0
sg15
F-25.0
sg16
F0.0
ss(g1
(g2
(S'S4'
p160
I0
I1
tp161
Rp162
(I3
S'|'
p163
NNNI4
I1
I0
tp164
bS'left'
p165
tp166
Rp167
g11
I01
I01
I01
tp168
(dp169
g14
F-49.999999999999986
sNF0.0
sg15
F-50.0
sg16
F-50.0
ss(g1
(g2
(S'S4'
p170
I0
I1
tp171
Rp172
(I3
S'|'
p173
NNNI4
I1
I0
tp174
bS'left'
p175
tp176
Rp177
g11
NI01
I00
tp178
(dp179
NF0.0
sg15
F-48.4375
sg16
F-46.875
ss(g1
(g2
(S'S7'
p180
I0
I1
tp181
Rp182
(I3
S'|'
p183
NNNI7
I1
I0
tp184
bS'forward'
p185
tp186
Rp187
g25
I01
I01
I01
tp188
(dp189
g14
F0.3125
sNF-4.990234375
sg15
F0.7998046875
sg16
F-0.255859375
ss(g1
(g2
(S'S4'
p190
I0
I1
tp191
Rp192
(I3
S'|'
p193
NNNI4
I1
I0
tp194
bS'left'
p195
tp196
Rp197
g11
I01
I00
I01
tp198
(dp199
g14
F-37.5
sNF0.0
sg15
F-37.5
sg16
F-48.4375
ss(g1
(g2
(S'S7'
p200
I0
I1
tp201
Rp202
(I3
S'|'
p203
NNNI7
I1
I0
tp204
bS'forward'
p205
tp206
Rp207
g25
I01
I00
Ntp208
(dp209
g14
F-16.75
sNF-4.6875
sg16
F-37.5
ss(g1
(g2
(S'S7'
p210
I0
I1
tp211
Rp212
(I3
S'|'
p213
NNNI7
I1
I0
tp214
bS'forward'
p215
tp216
Rp217
g11
I01
I01
I00
tp218
(dp219
g14
F0.0
sNF0.0
sg15
F-25.0
sg16
F-37.5
ss(g1
(g2
(S'S7'
p220
I0
I1
tp221
Rp222
(I3
S'|'
p223
NNNI7
I1
I0
tp224
bS'forward'
p225
tp226
Rp227
g11
I00
I01
I01
tp228
(dp229
g14
F0.0
sNF0.0
sg15
F-25.0
sg16
F-25.0
ss(g1
(g2
(S'S4'
p230
I0
I1
tp231
Rp232
(I3
S'|'
p233
NNNI4
I1
I0
tp234
bS'left'
p235
tp236
Rp237
g25
I00
I01
Ntp238
(dp239
g14
F-46.875
sNF-3.75
sg16
F-0.421875
ss(g1
(g2
(S'S5'
p240
I0
I1
tp241
Rp242
(I3
S'|'
p243
NNNI5
I1
I0
tp244
bS'right'
p245
tp246
Rp247
g11
I00
I01
I01
tp248
(dp249
g14
F-25.0
sNF0.0
sg15
F-37.5
sg16
F-37.5
ss(g1
(g2
(S'S4'
p250
I0
I1
tp251
Rp252
(I3
S'|'
p253
NNNI4
I1
I0
tp254
bS'left'
p255
tp256
Rp257
g25
I01
I01
I01
tp258
(dp259
g14
F0.8885116577148438
sNF-4.99969482421875
sg15
F0.797271728515625
sg16
F0.2457275390625
ss(g1
(g2
(S'S5'
p260
I0
I1
tp261
Rp262
(I3
S'|'
p263
NNNI5
I1
I0
tp264
bS'right'
p265
tp266
Rp267
g11
NI00
I01
tp268
(dp269
NF0.0
sg15
F-48.4375
sg16
F-49.21875
ss(g1
(g2
(S'S5'
p270
I0
I1
tp271
Rp272
(I3
S'|'
p273
NNNI5
I1
I0
tp274
bS'right'
p275
tp276
Rp277
g25
NI01
I00
tp278
(dp279
NF-2.5
sg15
F-25.0
sg16
F-0.5
ss(g1
(g2
(S'S5'
p280
I0
I1
tp281
Rp282
(I3
S'|'
p283
NNNI5
I1
I0
tp284
bS'right'
p285
tp286
Rp287
g11
I01
I00
I01
tp288
(dp289
g14
F-48.4375
sNF0.0
sg15
F-46.875
sg16
F-48.4375
ss(g1
(g2
(S'S5'
p290
I0
I1
tp291
Rp292
(I3
S'|'
p293
NNNI5
I1
I0
tp294
bS'right'
p295
tp296
Rp297
g11
I01
I01
I00
tp298
(dp299
g14
F-25.0
sNF0.0
sg15
F-43.75
sg16
F-48.4375
ss(g1
(g2
(S'S7'
p300
I0
I1
tp301
Rp302
(I3
S'|'
p303
NNNI7
I1
I0
tp304
bS'forward'
p305
tp306
Rp307
g25
I00
I01
I01
tp308
(dp309
g14
F0.0
sNF-2.5
sg15
F0.0
sg16
F0.5
ss(g1
(g2
(S'S4'
p310
I0
I1
tp311
Rp312
(I3
S'|'
p313
NNNI4
I1
I0
tp314
bS'left'
p315
tp316
Rp317
g25
NI01
I01
tp318
(dp319
NF-5.0
sg15
F-0.22032171602477213
sg16
F0.5951143469803548
ss(g1
(g2
(S'S4'
p320
I0
I1
tp321
Rp322
(I3
S'|'
p323
NNNI4
I1
I0
tp324
bS'left'
p325
tp326
Rp327
g25
NI01
I00
tp328
(dp329
NF-4.375
sg15
F0.0
sg16
F0.0
ss(g1
(g2
(S'S5'
p330
I0
I1
tp331
Rp332
(I3
S'|'
p333
NNNI5
I1
I0
tp334
bS'right'
p335
tp336
Rp337
g11
NI01
I00
tp338
(dp339
NF0.0
sg15
F-46.875
sg16
F-49.90234375
ss(g1
(g2
(S'S7'
p340
I0
I1
tp341
Rp342
(I3
S'|'
p343
NNNI7
I1
I0
tp344
bS'forward'
p345
tp346
Rp347
g25
I00
NI01
tp348
(dp349
g14
F-43.75
sNF-3.75
sg15
F0.96875
ss(g1
(g2
(S'S7'
p350
I0
I1
tp351
Rp352
(I3
S'|'
p353
NNNI7
I1
I0
tp354
bS'forward'
p355
tp356
Rp357
g11
I01
NI00
tp358
(dp359
g14
F-46.875
sNF0.0
sg15
F-46.875
ss(g1
(g2
(S'S4'
p360
I0
I1
tp361
Rp362
(I3
S'|'
p363
NNNI4
I1
I0
tp364
bS'left'
p365
tp366
Rp367
g25
NI00
I01
tp368
(dp369
NF-4.6875
sg15
F0.5
sg16
F-46.875
ss(g1
(g2
(S'S5'
p370
I0
I1
tp371
Rp372
(I3
S'|'
p373
NNNI5
I1
I0
tp374
bS'right'
p375
tp376
Rp377
g25
I01
I01
I00
tp378
(dp379
g14
F-0.5
sNF-2.5
sg15
F-25.0
sg16
F0.0
ss(g1
(g2
(S'S4'
p380
I0
I1
tp381
Rp382
(I3
S'|'
p383
NNNI4
I1
I0
tp384
bS'left'
p385
tp386
Rp387
g11
I01
I01
I00
tp388
(dp389
g14
F-43.75
sNF0.0
sg15
F0.0
sg16
F0.0
ss(g1
(g2
(S'S4'
p390
I0
I1
tp391
Rp392
(I3
S'|'
p393
NNNI4
I1
I0
tp394
bS'left'
p395
tp396
Rp397
g11
NI01
I01
tp398
(dp399
NF0.0
sg15
F-50.0
sg16
F-50.0
ss(g1
(g2
(S'S4'
p400
I0
I1
tp401
Rp402
(I3
S'|'
p403
NNNI4
I1
I0
tp404
bS'left'
p405
tp406
Rp407
g11
I00
I01
Ntp408
(dp409
g14
F-49.8046875
sNF0.0
sg16
F-49.21875
ss(g1
(g2
(S'S7'
p410
I0
I1
tp411
Rp412
(I3
S'|'
p413
NNNI7
I1
I0
tp414
bS'forward'
p415
tp416
Rp417
g11
I01
I01
Ntp418
(dp419
g14
F-50.0
sNF0.0
sg16
F-50.0
ss(g1
(g2
(S'S4'
p420
I0
I1
tp421
Rp422
(I3
S'|'
p423
NNNI4
I1
I0
tp424
bS'left'
p425
tp426
Rp427
g11
NI00
I01
tp428
(dp429
NF0.0
sg15
F-49.21875
sg16
F-37.5
ss(g1
(g2
(S'S7'
p430
I0
I1
tp431
Rp432
(I3
S'|'
p433
NNNI7
I1
I0
tp434
bS'forward'
p435
tp436
Rp437
g25
I01
NI00
tp438
(dp439
g14
F0.0
sNF-3.75
ss(g1
(g2
(S'S4'
p440
I0
I1
tp441
Rp442
(I3
S'|'
p443
NNNI4
I1
I0
tp444
bS'left'
p445
tp446
Rp447
g11
I01
I00
Ntp448
(dp449
g14
F-49.609375
sNF0.0
sg16
F-25.0
ss(g1
(g2
(S'S5'
p450
I0
I1
tp451
Rp452
(I3
S'|'
p453
NNNI5
I1
I0
tp454
bS'right'
p455
tp456
Rp457
g25
I00
NI01
tp458
(dp459
g14
F-37.5
sNF-2.5
sg15
F0.0
ss(g1
(g2
(S'S5'
p460
I0
I1
tp461
Rp462
(I3
S'|'
p463
NNNI5
I1
I0
tp464
bS'right'
p465
tp466
Rp467
g25
I01
NI01
tp468
(dp469
g14
F-0.06445693993100576
sNF-5.0
sg15
F0.9999999999590725
ss(g1
(g2
(S'S5'
p470
I0
I1
tp471
Rp472
(I3
S'|'
p473
NNNI5
I1
I0
tp474
bS'right'
p475
tp476
Rp477
g25
NI01
I01
tp478
(dp479
NF-5.0
sg15
F0.7205797139917927
sg16
F-0.5718467226214681
ss(g1
(g2
(S'S5'
p480
I0
I1
tp481
Rp482
(I3
S'|'
p483
NNNI5
I1
I0
tp484
bS'right'
p485
tp486
Rp487
g11
I01
NI01
tp488
(dp489
g14
F-50.0
sNF0.0
sg15
F-50.0
ss(g1
(g2
(S'S4'
p490
I0
I1
tp491
Rp492
(I3
S'|'
p493
NNNI4
I1
I0
tp494
bS'left'
p495
tp496
Rp497
g25
I01
I01
I00
tp498
(dp499
g14
F-0.5
sNF-2.5
sg15
F0.0
sg16
F-0.5
ss(g1
(g2
(S'S7'
p500
I0
I1
tp501
Rp502
(I3
S'|'
p503
NNNI7
I1
I0
tp504
bS'forward'
p505
tp506
Rp507
g25
I01
I01
Ntp508
(dp509
g14
F-3.8164163642847235
sNF-5.0
sg16
F0.37007085824001196
ss(g1
(g2
(S'S4'
p510
I0
I1
tp511
Rp512
(I3
S'|'
p513
NNNI4
I1
I0
tp514
bS'left'
p515
tp516
Rp517
g25
I01
I01
Ntp518
(dp519
g14
F-3.844392505053099
sNF-5.0
sg16
F0.9582074059009065
ss(g1
(g2
(S'S4'
p520
I0
I1
tp521
Rp522
(I3
S'|'
p523
NNNI4
I1
I0
tp524
bS'left'
p525
tp526
Rp527
g25
I00
I01
I01
tp528
(dp529
g14
F0.0
sNF-3.75
sg15
F-0.5
sg16
F0.0
ss(g1
(g2
(S'S7'
p530
I0
I1
tp531
Rp532
(I3
S'|'
p533
NNNI7
I1
I0
tp534
bS'forward'
p535
tp536
Rp537
g25
I00
I01
Ntp538
(dp539
g14
F-46.875
sNF-3.75
sg16
F-0.75
ss(g1
(g2
(S'S5'
p540
I0
I1
tp541
Rp542
(I3
S'|'
p543
NNNI5
I1
I0
tp544
bS'right'
p545
tp546
Rp547
g25
NI00
I01
tp548
(dp549
NF-3.75
sg15
F0.625
sg16
F0.0
ss(g1
(g2
(S'S4'
p550
I0
I1
tp551
Rp552
(I3
S'|'
p553
NNNI4
I1
I0
tp554
bS'left'
p555
tp556
Rp557
g11
I01
I01
Ntp558
(dp559
g14
F-50.0
sNF0.0
sg16
F-50.0
ss(g1
(g2
(S'S7'
p560
I0
I1
tp561
Rp562
(I3
S'|'
p563
NNNI7
I1
I0
tp564
bS'forward'
p565
tp566
Rp567
g11
I01
I00
Ntp568
(dp569
g14
F-49.21875
sNF0.0
sg16
F-48.4375
ss(g1
(g2
(S'S5'
p570
I0
I1
tp571
Rp572
(I3
S'|'
p573
NNNI5
I1
I0
tp574
bS'right'
p575
tp576
Rp577
g11
NI01
I01
tp578
(dp579
NF0.0
sg15
F-50.0
sg16
F-50.0
ss(g1
(g2
(S'S4'
p580
I0
I1
tp581
Rp582
(I3
S'|'
p583
NNNI4
I1
I0
tp584
bS'left'
p585
tp586
Rp587
g25
I01
I00
Ntp588
(dp589
g14
F0.703125
sNF-4.375
sg16
F-25.0
ss.