(dp0
(cnumpy.core.multiarray
scalar
p1
(cnumpy
dtype
p2
(S'S5'
p3
I0
I1
tp4
Rp5
(I3
S'|'
p6
NNNI5
I1
I0
tp7
bS'right'
p8
tp9
Rp10
S'red'
p11
I01
I01
I01
tp12
(dp13
S'forward'
p14
F-50.0
sNF0.0
sS'right'
p15
F-50.0
sS'left'
p16
F-50.0
ss(g1
(g2
(S'S5'
p17
I0
I1
tp18
Rp19
(I3
S'|'
p20
NNNI5
I1
I0
tp21
bS'right'
p22
tp23
Rp24
g11
NI00
I01
tp25
(dp26
NF0.0
sg15
F-50.0
sg16
F-50.0
ss(g1
(g2
(S'S7'
p27
I0
I1
tp28
Rp29
(I3
S'|'
p30
NNNI7
I1
I0
tp31
bS'forward'
p32
tp33
Rp34
g11
I00
NI01
tp35
(dp36
g14
F-50.0
sNF0.0
sg15
F-50.0
ss(g1
(g2
(S'S4'
p37
I0
I1
tp38
Rp39
(I3
S'|'
p40
NNNI4
I1
I0
tp41
bS'left'
p42
tp43
Rp44
S'green'
p45
NI01
I00
tp46
(dp47
NF-5.0
sg15
F-50.0
sg16
F6.0
ss(g1
(g2
(S'S5'
p48
I0
I1
tp49
Rp50
(I3
S'|'
p51
NNNI5
I1
I0
tp52
bS'right'
p53
tp54
Rp55
g45
I00
I01
I01
tp56
(dp57
g14
F-49.99999999999929
sNF-4.999999999854481
sg15
F6.0
sg16
F-0.9999999998266276
ss(g1
(g2
(S'S4'
p58
I0
I1
tp59
Rp60
(I3
S'|'
p61
NNNI4
I1
I0
tp62
bS'left'
p63
tp64
Rp65
g11
I00
I01
I01
tp66
(dp67
g14
F-50.0
sNF0.0
sg15
F-50.0
sg16
F-50.0
ss(g1
(g2
(S'S7'
p68
I0
I1
tp69
Rp70
(I3
S'|'
p71
NNNI7
I1
I0
tp72
bS'forward'
p73
tp74
Rp75
g45
I01
I01
Ntp76
(dp77
g14
F5.499969482421761
sNF-5.0
sg16
F-0.999999985097435
ss(g1
(g2
(S'S7'
p78
I0
I1
tp79
Rp80
(I3
S'|'
p81
NNNI7
I1
I0
tp82
bS'forward'
p83
tp84
Rp85
g11
I01
I01
I01
tp86
(dp87
g14
F-50.0
sNF0.0
sg15
F-50.0
sg16
F-50.0
ss(g1
(g2
(S'S4'
p88
I0
I1
tp89
Rp90
(I3
S'|'
p91
NNNI4
I1
I0
tp92
bS'left'
p93
tp94
Rp95
g11
I01
I00
I01
tp96
(dp97
g14
F-50.0
sNF0.0
sg15
F-50.0
sg16
F-50.0
ss(g1
(g2
(S'S4'
p98
I0
I1
tp99
Rp100
(I3
S'|'
p101
NNNI4
I1
I0
tp102
bS'left'
p103
tp104
Rp105
g11
I01
I01
Ntp106
(dp107
g14
F-50.0
sNF0.0
sg16
F-50.0
ss(g1
(g2
(S'S7'
p108
I0
I1
tp109
Rp110
(I3
S'|'
p111
NNNI7
I1
I0
tp112
bS'forward'
p113
tp114
Rp115
S'green'
p116
I00
NI00
tp117
(dp118
S'forward'
p119
F-33.75
sNF0.0
sS'right'
p120
F0.0
ss(g1
(g2
(S'S7'
p121
I0
I1
tp122
Rp123
(I3
S'|'
p124
NNNI7
I1
I0
tp125
bS'forward'
p126
tp127
Rp128
g11
I01
NI01
tp129
(dp130
g14
F-50.0
sNF0.0
sg15
F-50.0
ss(g1
(g2
(S'S5'
p131
I0
I1
tp132
Rp133
(I3
S'|'
p134
NNNI5
I1
I0
tp135
bS'right'
p136
tp137
Rp138
g45
I01
I01
I01
tp139
(dp140
g14
F-0.8531059506131065
sNF-5.0
sg15
F6.0
sg16
F-1.0
ss(g1
(g2
(S'S7'
p141
I0
I1
tp142
Rp143
(I3
S'|'
p144
NNNI7
I1
I0
tp145
bS'forward'
p146
tp147
Rp148
g45
I01
NI01
tp149
(dp150
g14
F5.999755859375
sNF-5.0
sg15
F0.951155167068605
ss(g1
(g2
(S'S5'
p151
I0
I1
tp152
Rp153
(I3
S'|'
p154
NNNI5
I1
I0
tp155
bS'right'
p156
tp157
Rp158
g45
NI01
I00
tp159
(dp160
NF-5.0
sg15
F-45.0
sg16
F-1.0
ss(g1
(g2
(S'S7'
p161
I0
I1
tp162
Rp163
(I3
S'|'
p164
NNNI7
I1
I0
tp165
bS'forward'
p166
tp167
Rp168
g11
I01
I00
I01
tp169
(dp170
g14
F-50.0
sNF0.0
sg15
F-50.0
sg16
F-50.0
ss(g1
(g2
(S'S4'
p171
I0
I1
tp172
Rp173
(I3
S'|'
p174
NNNI4
I1
I0
tp175
bS'left'
p176
tp177
Rp178
g11
I01
I01
I01
tp179
(dp180
g14
F-50.0
sNF0.0
sg15
F-50.0
sg16
F-50.0
ss(g1
(g2
(S'S4'
p181
I0
I1
tp182
Rp183
(I3
S'|'
p184
NNNI4
I1
I0
tp185
bS'left'
p186
tp187
Rp188
g11
NI01
I00
tp189
(dp190
NF0.0
sg15
F-50.0
sg16
F-50.0
ss(g1
(g2
(S'S7'
p191
I0
I1
tp192
Rp193
(I3
S'|'
p194
NNNI7
I1
I0
tp195
bS'forward'
p196
tp197
Rp198
g11
I01
I01
Ntp199
(dp200
g14
F-50.0
sNF0.0
sg16
F-50.0
ss(g1
(g2
(S'S7'
p201
I0
I1
tp202
Rp203
(I3
S'|'
p204
NNNI7
I1
I0
tp205
bS'forward'
p206
tp207
Rp208
g11
I01
I00
Ntp209
(dp210
g14
F-50.0
sNF0.0
sg16
F-50.0
ss(g1
(g2
(S'S7'
p211
I0
I1
tp212
Rp213
(I3
S'|'
p214
NNNI7
I1
I0
tp215
bS'forward'
p216
tp217
Rp218
g45
I01
I01
I01
tp219
(dp220
g14
F6.0
sNF-5.0
sg15
F-0.8543182992739112
sg16
F-0.5821252724258466
ss(g1
(g2
(S'S4'
p221
I0
I1
tp222
Rp223
(I3
S'|'
p224
NNNI4
I1
I0
tp225
bS'left'
p226
tp227
Rp228
g45
I01
I00
I01
tp229
(dp230
g14
F-0.6582262226177726
sNF-4.99999999992724
sg15
F-0.9999999999999121
sg16
F-44.99999999998977
ss(g1
(g2
(S'S5'
p231
I0
I1
tp232
Rp233
(I3
S'|'
p234
NNNI5
I1
I0
tp235
bS'right'
p236
tp237
Rp238
g116
I00
NI00
tp239
(dp240
g119
F0.0
sNF0.0
sg120
F-22.5
ss(g1
(g2
(S'S5'
p241
I0
I1
tp242
Rp243
(I3
S'|'
p244
NNNI5
I1
I0
tp245
bS'right'
p246
tp247
Rp248
g45
I01
NI00
tp249
(dp250
g14
F0.9999990463247723
sNF-5.0
sg15
F-45.0
ss(g1
(g2
(S'S4'
p251
I0
I1
tp252
Rp253
(I3
S'|'
p254
NNNI4
I1
I0
tp255
bS'left'
p256
tp257
Rp258
g45
I00
I01
I01
tp259
(dp260
g14
F-49.99999998835847
sNF-4.999999999999929
sg15
F-0.9999999999593001
sg16
F6.0
ss(g1
(g2
(S'S7'
p261
I0
I1
tp262
Rp263
(I3
S'|'
p264
NNNI7
I1
I0
tp265
bS'forward'
p266
tp267
Rp268
g45
I01
I00
I01
tp269
(dp270
g14
F6.0
sNF-4.9999999813735485
sg15
F-0.5550107039578052
sg16
F-49.99999999999716
ss(g1
(g2
(S'S5'
p271
I0
I1
tp272
Rp273
(I3
S'|'
p274
NNNI5
I1
I0
tp275
bS'right'
p276
tp277
Rp278
g11
I00
I01
I01
tp279
(dp280
g14
F-50.0
sNF0.0
sg15
F-50.0
sg16
F-50.0
ss(g1
(g2
(S'S4'
p281
I0
I1
tp282
Rp283
(I3
S'|'
p284
NNNI4
I1
I0
tp285
bS'left'
p286
tp287
Rp288
g45
I00
I01
Ntp289
(dp290
g14
F-50.0
sNF-5.0
sg16
F5.9994411467832744
ss(g1
(g2
(S'S5'
p291
I0
I1
tp292
Rp293
(I3
S'|'
p294
NNNI5
I1
I0
tp295
bS'right'
p296
tp297
Rp298
g11
I00
NI01
tp299
(dp300
g14
F-50.0
sNF0.0
sg15
F-50.0
ss(g1
(g2
(S'S5'
p301
I0
I1
tp302
Rp303
(I3
S'|'
p304
NNNI5
I1
I0
tp305
bS'right'
p306
tp307
Rp308
g45
NI00
I01
tp309
(dp310
NF-5.0
sg15
F5.999937055632472
sg16
F-50.0
ss(g1
(g2
(S'S5'
p311
I0
I1
tp312
Rp313
(I3
S'|'
p314
NNNI5
I1
I0
tp315
bS'right'
p316
tp317
Rp318
g11
I01
I00
I01
tp319
(dp320
g14
F-50.0
sNF0.0
sg15
F-50.0
sg16
F-50.0
ss(g1
(g2
(S'S5'
p321
I0
I1
tp322
Rp323
(I3
S'|'
p324
NNNI5
I1
I0
tp325
bS'right'
p326
tp327
Rp328
g11
I01
I01
I00
tp329
(dp330
g14
F-50.0
sNF0.0
sg15
F-50.0
sg16
F-50.0
ss(g14
g45
I01
NNtp331
(dp332
g14
F39.999999997379376
sNF-5.0
ss(g1
(g2
(S'S4'
p333
I0
I1
tp334
Rp335
(I3
S'|'
p336
NNNI4
I1
I0
tp337
bS'left'
p338
tp339
Rp340
g45
I01
I01
I01
tp341
(dp342
g14
F0.925761792542241
sNF-5.0
sg15
F-1.0
sg16
F6.0
ss(g1
(g2
(S'S5'
p343
I0
I1
tp344
Rp345
(I3
S'|'
p346
NNNI5
I1
I0
tp347
bS'right'
p348
tp349
Rp350
S'red'
p351
I00
NI00
tp352
(dp353
g119
F0.0
sNF0.0
sg120
F-37.5
ss(g1
(g2
(S'S7'
p354
I0
I1
tp355
Rp356
(I3
S'|'
p357
NNNI7
I1
I0
tp358
bS'forward'
p359
tp360
Rp361
g45
I00
I01
I01
tp362
(dp363
g14
F-44.99999999999872
sNF-4.99999999998181
sg15
F0.05751170514814119
sg16
F-0.9243364528722927
ss(g1
(g2
(S'S4'
p364
I0
I1
tp365
Rp366
(I3
S'|'
p367
NNNI4
I1
I0
tp368
bS'left'
p369
tp370
Rp371
g45
NI01
I01
tp372
(dp373
NF-5.0
sg15
F-1.0
sg16
F6.0
ss(g1
(g2
(S'S5'
p374
I0
I1
tp375
Rp376
(I3
S'|'
p377
NNNI5
I1
I0
tp378
bS'right'
p379
tp380
Rp381
g11
I01
NI00
tp382
(dp383
g14
F-50.0
sNF0.0
sg15
F-50.0
ss(g1
(g2
(S'S5'
p384
I0
I1
tp385
Rp386
(I3
S'|'
p387
NNNI5
I1
I0
tp388
bS'right'
p389
tp390
Rp391
g45
I01
I00
I01
tp392
(dp393
g14
F0.7707697593650664
sNF-4.999999999999716
sg15
F6.0
sg16
F-49.99999999998863
ss(g1
(g2
(S'S7'
p394
I0
I1
tp395
Rp396
(I3
S'|'
p397
NNNI7
I1
I0
tp398
bS'forward'
p399
tp400
Rp401
g45
I00
NI01
tp402
(dp403
g14
F-45.0
sNF-5.0
sg15
F0.9905375205953522
ss(g1
(g2
(S'S7'
p404
I0
I1
tp405
Rp406
(I3
S'|'
p407
NNNI7
I1
I0
tp408
bS'forward'
p409
tp410
Rp411
g11
I01
NI00
tp412
(dp413
g14
F-50.0
sNF0.0
sg15
F-50.0
ss(g1
(g2
(S'S4'
p414
I0
I1
tp415
Rp416
(I3
S'|'
p417
NNNI4
I1
I0
tp418
bS'left'
p419
tp420
Rp421
g45
NI00
I01
tp422
(dp423
NF-5.0
sg15
F-1.0
sg16
F-45.0
ss(g1
(g2
(S'S5'
p424
I0
I1
tp425
Rp426
(I3
S'|'
p427
NNNI5
I1
I0
tp428
bS'right'
p429
tp430
Rp431
g45
I01
I01
I00
tp432
(dp433
g14
F0.9322002732322361
sNF-4.999999999999432
sg15
F-44.99999999967258
sg16
F-0.9999999942556315
ss(g1
(g2
(S'S7'
p434
I0
I1
tp435
Rp436
(I3
S'|'
p437
NNNI7
I1
I0
tp438
bS'forward'
p439
tp440
Rp441
g351
I00
NI00
tp442
(dp443
g119
F-25.0
sNF0.0
sg120
F-25.0
ss(g1
(g2
(S'S4'
p444
I0
I1
tp445
Rp446
(I3
S'|'
p447
NNNI4
I1
I0
tp448
bS'left'
p449
tp450
Rp451
g11
I01
I01
I00
tp452
(dp453
g14
F-50.0
sNF0.0
sg15
F-50.0
sg16
F-50.0
ss(g1
(g2
(S'S4'
p454
I0
I1
tp455
Rp456
(I3
S'|'
p457
NNNI4
I1
I0
tp458
bS'left'
p459
tp460
Rp461
g11
NI01
I01
tp462
(dp463
NF0.0
sg15
F-50.0
sg16
F-50.0
ss(g1
(g2
(S'S7'
p464
I0
I1
tp465
Rp466
(I3
S'|'
p467
NNNI7
I1
I0
tp468
bS'forward'
p469
tp470
Rp471
g11
I01
I01
I00
tp472
(dp473
g14
F-50.0
sNF0.0
sg15
F-50.0
sg16
F-50.0
ss(g1
(g2
(S'S7'
p474
I0
I1
tp475
Rp476
(I3
S'|'
p477
NNNI7
I1
I0
tp478
bS'forward'
p479
tp480
Rp481
g351
I00
I00
Ntp482
(dp483
g119
F-25.0
sNF0.0
sS'left'
p484
F-25.0
ss(g1
(g2
(S'S7'
p485
I0
I1
tp486
Rp487
(I3
S'|'
p488
NNNI7
I1
I0
tp489
bS'forward'
p490
tp491
Rp492
g45
I01
NI00
tp493
(dp494
g14
F5.9999998807907104
sNF-5.0
sg15
F-50.0
ss(g1
(g2
(S'S4'
p495
I0
I1
tp496
Rp497
(I3
S'|'
p498
NNNI4
I1
I0
tp499
bS'left'
p500
tp501
Rp502
g11
I01
I00
Ntp503
(dp504
g14
F-50.0
sNF0.0
sg16
F-50.0
ss(g1
(g2
(S'S4'
p505
I0
I1
tp506
Rp507
(I3
S'|'
p508
NNNI4
I1
I0
tp509
bS'left'
p510
tp511
Rp512
g11
NI00
I01
tp513
(dp514
NF0.0
sg15
F-50.0
sg16
F-50.0
ss(g1
(g2
(S'S5'
p515
I0
I1
tp516
Rp517
(I3
S'|'
p518
NNNI5
I1
I0
tp519
bS'right'
p520
tp521
Rp522
g45
NI01
I01
tp523
(dp524
NF-5.0
sg15
F5.992057800278275
sg16
F-1.0
ss(g1
(g2
(S'S5'
p525
I0
I1
tp526
Rp527
(I3
S'|'
p528
NNNI5
I1
I0
tp529
bS'right'
p530
tp531
Rp532
g11
NI01
I01
tp533
(dp534
NF0.0
sg15
F-50.0
sg16
F-50.0
ss(g1
(g2
(S'S4'
p535
I0
I1
tp536
Rp537
(I3
S'|'
p538
NNNI4
I1
I0
tp539
bS'left'
p540
tp541
Rp542
g45
I01
I01
I00
tp543
(dp544
g14
F0.7110014830176397
sNF-4.999999999999991
sg15
F-49.99999999999996
sg16
F6.0
ss(g1
(g2
(S'S7'
p545
I0
I1
tp546
Rp547
(I3
S'|'
p548
NNNI7
I1
I0
tp549
bS'forward'
p550
tp551
Rp552
g116
I00
I00
Ntp553
(dp554
g119
F0.0
sNF0.0
sg484
F-37.5
ss(g1
(g2
(S'S4'
p555
I0
I1
tp556
Rp557
(I3
S'|'
p558
NNNI4
I1
I0
tp559
bS'left'
p560
tp561
Rp562
g45
I01
I01
Ntp563
(dp564
g14
F0.23560102354361745
sNF-5.0
sg16
F5.497740728778695
ss(g1
(g2
(S'S7'
p565
I0
I1
tp566
Rp567
(I3
S'|'
p568
NNNI7
I1
I0
tp569
bS'forward'
p570
tp571
Rp572
g45
I01
I01
I00
tp573
(dp574
g14
F6.0
sNF-4.999999999997726
sg15
F-49.9999999998181
sg16
F0.6876200875395
ss(g1
(g2
(S'S7'
p575
I0
I1
tp576
Rp577
(I3
S'|'
p578
NNNI7
I1
I0
tp579
bS'forward'
p580
tp581
Rp582
g11
I00
I01
I01
tp583
(dp584
g14
F-50.0
sNF0.0
sg15
F-50.0
sg16
F-50.0
ss(g1
(g2
(S'S7'
p585
I0
I1
tp586
Rp587
(I3
S'|'
p588
NNNI7
I1
I0
tp589
bS'forward'
p590
tp591
Rp592
g45
I01
I00
Ntp593
(dp594
g14
F5.999999999999943
sNF-5.0
sg16
F-50.0
ss(g1
(g2
(S'S5'
p595
I0
I1
tp596
Rp597
(I3
S'|'
p598
NNNI5
I1
I0
tp599
bS'right'
p600
tp601
Rp602
g45
I00
NI01
tp603
(dp604
g14
F-50.0
sNF-5.0
sg15
F5.8749995194375515
ss(g1
(g2
(S'S4'
p605
I0
I1
tp606
Rp607
(I3
S'|'
p608
NNNI4
I1
I0
tp609
bS'left'
p610
tp611
Rp612
g351
I00
I00
Ntp613
(dp614
g119
F0.0
sNF0.0
sg484
F-25.0
ss(g1
(g2
(S'S7'
p615
I0
I1
tp616
Rp617
(I3
S'|'
p618
NNNI7
I1
I0
tp619
bS'forward'
p620
tp621
Rp622
g11
I00
I01
Ntp623
(dp624
g14
F-50.0
sNF0.0
sg16
F-50.0
ss(g1
(g2
(S'S5'
p625
I0
I1
tp626
Rp627
(I3
S'|'
p628
NNNI5
I1
I0
tp629
bS'right'
p630
tp631
Rp632
g45
I01
NI01
tp633
(dp634
g14
F0.9840997456921768
sNF-5.0
sg15
F5.999999999883585
ss(g1
(g2
(S'S5'
p635
I0
I1
tp636
Rp637
(I3
S'|'
p638
NNNI5
I1
I0
tp639
bS'right'
p640
tp641
Rp642
g11
NI01
I00
tp643
(dp644
NF0.0
sg15
F-50.0
sg16
F-50.0
ss(g1
(g2
(S'S4'
p645
I0
I1
tp646
Rp647
(I3
S'|'
p648
NNNI4
I1
I0
tp649
bS'left'
p650
tp651
Rp652
g11
I00
I01
Ntp653
(dp654
g14
F-50.0
sNF0.0
sg16
F-50.0
ss(g1
(g2
(S'S7'
p655
I0
I1
tp656
Rp657
(I3
S'|'
p658
NNNI7
I1
I0
tp659
bS'forward'
p660
tp661
Rp662
g45
I00
I01
Ntp663
(dp664
g14
F-45.0
sNF-5.0
sg16
F-0.734367349879326
ss(g1
(g2
(S'S5'
p665
I0
I1
tp666
Rp667
(I3
S'|'
p668
NNNI5
I1
I0
tp669
bS'right'
p670
tp671
Rp672
g11
I01
NI01
tp673
(dp674
g14
F-50.0
sNF0.0
sg15
F-50.0
ss(g1
(g2
(S'S4'
p675
I0
I1
tp676
Rp677
(I3
S'|'
p678
NNNI4
I1
I0
tp679
bS'left'
p680
tp681
Rp682
g45
I01
I00
Ntp683
(dp684
g14
F0.015010634886332919
sNF-5.0
sg16
F-45.0
ss.